---
triple:          'arm64-apple-darwin'
binary-path:     myrobot
relocations:
  - { offsetInCU: 0xAE, offset: 0xAE, size: 0x8, addend: 0x0, symName: __ZNSt3__119piecewise_constructE, symObjAddr: 0x116B1, symBinAddr: 0x100049732, symSize: 0x0 }
  - { offsetInCU: 0xE8, offset: 0xE8, size: 0x8, addend: 0x0, symName: __ZNSt3__16ranges5__cpo9iter_moveE, symObjAddr: 0x116B2, symBinAddr: 0x100049733, symSize: 0x0 }
  - { offsetInCU: 0x9773, offset: 0x9773, size: 0x8, addend: 0x0, symName: __ZNSt3__124__put_character_sequenceB8ue170006IcNS_11char_traitsIcEEEERNS_13basic_ostreamIT_T0_EES7_PKS4_m, symObjAddr: 0x7D40, symBinAddr: 0x10000C294, symSize: 0x1EC }
  - { offsetInCU: 0x101F5, offset: 0x101F5, size: 0x8, addend: 0x0, symName: __ZNSt3__1eqB8ue170006ERKNS_19__hash_map_iteratorINS_15__hash_iteratorIPNS_11__hash_nodeINS_17__hash_value_typeI6CoordsfEEPvEEEEEESC_, symObjAddr: 0x4A4, symBinAddr: 0x1000049F8, symSize: 0x30 }
  - { offsetInCU: 0x10232, offset: 0x10232, size: 0x8, addend: 0x0, symName: __ZNSt3__1lsB8ue170006INS_11char_traitsIcEEEERNS_13basic_ostreamIcT_EES6_PKc, symObjAddr: 0x930, symBinAddr: 0x100004E84, symSize: 0x48 }
  - { offsetInCU: 0x10278, offset: 0x10278, size: 0x8, addend: 0x0, symName: __ZNSt3__14endlB8ue170006IcNS_11char_traitsIcEEEERNS_13basic_ostreamIT_T0_EES7_, symObjAddr: 0x9A4, symBinAddr: 0x100004EF8, symSize: 0x58 }
  - { offsetInCU: 0x102B8, offset: 0x102B8, size: 0x8, addend: 0x0, symName: __ZNSt3__1eqB8ue170006ERKNS_19__hash_map_iteratorINS_15__hash_iteratorIPNS_11__hash_nodeINS_17__hash_value_typeI6CoordsS4_EEPvEEEEEESC_, symObjAddr: 0x9FC, symBinAddr: 0x100004F50, symSize: 0x30 }
  - { offsetInCU: 0x102F5, offset: 0x102F5, size: 0x8, addend: 0x0, symName: __ZNSt3__13minB8ue170006ImEERKT_S3_S3_, symObjAddr: 0x1DC8, symBinAddr: 0x10000631C, symSize: 0x2C }
  - { offsetInCU: 0x10338, offset: 0x10338, size: 0x8, addend: 0x0, symName: __ZNSt3__112__to_addressB8ue170006I6CoordsEEPT_S3_, symObjAddr: 0x2418, symBinAddr: 0x10000696C, symSize: 0x14 }
  - { offsetInCU: 0x1036D, offset: 0x1036D, size: 0x8, addend: 0x0, symName: __ZNSt3__110destroy_atB8ue170006I6CoordsLi0EEEvPT_, symObjAddr: 0x242C, symBinAddr: 0x100006980, symSize: 0x24 }
  - { offsetInCU: 0x103A4, offset: 0x103A4, size: 0x8, addend: 0x0, symName: __ZNSt3__112__destroy_atB8ue170006I6CoordsLi0EEEvPT_, symObjAddr: 0x2450, symBinAddr: 0x1000069A4, symSize: 0x10 }
  - { offsetInCU: 0x103DB, offset: 0x103DB, size: 0x8, addend: 0x0, symName: __ZNSt3__119__libcpp_deallocateB8ue170006EPvmm, symObjAddr: 0x24E8, symBinAddr: 0x100006A3C, symSize: 0x60 }
  - { offsetInCU: 0x10440, offset: 0x10440, size: 0x8, addend: 0x0, symName: __ZNSt3__124__is_overaligned_for_newB8ue170006Em, symObjAddr: 0x2548, symBinAddr: 0x100006A9C, symSize: 0x20 }
  - { offsetInCU: 0x1046E, offset: 0x1046E, size: 0x8, addend: 0x0, symName: __ZNSt3__127__do_deallocate_handle_sizeB8ue170006IJSt11align_val_tEEEvPvmDpT_, symObjAddr: 0x2568, symBinAddr: 0x100006ABC, symSize: 0x30 }
  - { offsetInCU: 0x104C1, offset: 0x104C1, size: 0x8, addend: 0x0, symName: __ZNSt3__127__do_deallocate_handle_sizeB8ue170006IJEEEvPvmDpT_, symObjAddr: 0x2598, symBinAddr: 0x100006AEC, symSize: 0x28 }
  - { offsetInCU: 0x104FF, offset: 0x104FF, size: 0x8, addend: 0x0, symName: __ZNSt3__124__libcpp_operator_deleteB8ue170006IJPvSt11align_val_tEEEvDpT_, symObjAddr: 0x25C0, symBinAddr: 0x100006B14, symSize: 0x2C }
  - { offsetInCU: 0x10548, offset: 0x10548, size: 0x8, addend: 0x0, symName: __ZNSt3__124__libcpp_operator_deleteB8ue170006IJPvEEEvDpT_, symObjAddr: 0x25EC, symBinAddr: 0x100006B40, symSize: 0x24 }
  - { offsetInCU: 0x105A2, offset: 0x105A2, size: 0x8, addend: 0x0, symName: __ZNSt3__112construct_atB8ue170006I6CoordsJRKS1_EPS1_EEPT_S6_DpOT0_, symObjAddr: 0x294C, symBinAddr: 0x100006EA0, symSize: 0x2C }
  - { offsetInCU: 0x10612, offset: 0x10612, size: 0x8, addend: 0x0, symName: __ZNSt3__13maxB8ue170006ImEERKT_S3_S3_, symObjAddr: 0x2C48, symBinAddr: 0x10000719C, symSize: 0x2C }
  - { offsetInCU: 0x10840, offset: 0x10840, size: 0x8, addend: 0x0, symName: __ZNSt3__120__throw_length_errorB8ue170006EPKc, symObjAddr: 0x2D34, symBinAddr: 0x100007288, symSize: 0x64 }
  - { offsetInCU: 0x10869, offset: 0x10869, size: 0x8, addend: 0x0, symName: __ZNSt3__13maxB8ue170006ImNS_6__lessIvvEEEERKT_S5_S5_T0_, symObjAddr: 0x2E18, symBinAddr: 0x10000736C, symSize: 0x54 }
  - { offsetInCU: 0x10908, offset: 0x10908, size: 0x8, addend: 0x0, symName: __ZNSt3__119__allocate_at_leastB8ue170006INS_9allocatorI6CoordsEEEENS_19__allocation_resultINS_16allocator_traitsIT_E7pointerEEERS6_m, symObjAddr: 0x2FB0, symBinAddr: 0x100007504, symSize: 0x40 }
  - { offsetInCU: 0x1094B, offset: 0x1094B, size: 0x8, addend: 0x0, symName: __ZNSt3__117__libcpp_allocateB8ue170006Emm, symObjAddr: 0x3134, symBinAddr: 0x100007688, symSize: 0x60 }
  - { offsetInCU: 0x109A5, offset: 0x109A5, size: 0x8, addend: 0x0, symName: __ZNSt3__121__libcpp_operator_newB8ue170006IJmSt11align_val_tEEEPvDpT_, symObjAddr: 0x3194, symBinAddr: 0x1000076E8, symSize: 0x2C }
  - { offsetInCU: 0x109F2, offset: 0x109F2, size: 0x8, addend: 0x0, symName: __ZNSt3__121__libcpp_operator_newB8ue170006IJmEEEPvDpT_, symObjAddr: 0x31C0, symBinAddr: 0x100007714, symSize: 0x24 }
  - { offsetInCU: 0x10A2B, offset: 0x10A2B, size: 0x8, addend: 0x0, symName: __ZNSt3__142__uninitialized_allocator_move_if_noexceptB8ue170006INS_9allocatorI6CoordsEENS_16reverse_iteratorIPS2_EES6_S2_vEET1_RT_T0_SA_S7_, symObjAddr: 0x3248, symBinAddr: 0x10000779C, symSize: 0x78 }
  - { offsetInCU: 0x10AA9, offset: 0x10AA9, size: 0x8, addend: 0x0, symName: __ZNSt3__14swapB8ue170006IP6CoordsEENS_9enable_ifIXaasr21is_move_constructibleIT_EE5valuesr18is_move_assignableIS4_EE5valueEvE4typeERS4_S7_, symObjAddr: 0x330C, symBinAddr: 0x100007860, symSize: 0x3C }
  - { offsetInCU: 0x10AFB, offset: 0x10AFB, size: 0x8, addend: 0x0, symName: __ZNSt3__14moveB8ue170006INS_16reverse_iteratorIP6CoordsEES4_EET0_T_S6_S5_, symObjAddr: 0x33F4, symBinAddr: 0x100007948, symSize: 0x78 }
  - { offsetInCU: 0x10B55, offset: 0x10B55, size: 0x8, addend: 0x0, symName: __ZNSt3__16__moveB8ue170006INS_17_ClassicAlgPolicyENS_16reverse_iteratorIP6CoordsEES5_S5_EENS_4pairIT0_T2_EES7_T1_S8_, symObjAddr: 0x346C, symBinAddr: 0x1000079C0, symSize: 0x64 }
  - { offsetInCU: 0x10BC1, offset: 0x10BC1, size: 0x8, addend: 0x0, symName: __ZNSt3__123__dispatch_copy_or_moveB8ue170006INS_17_ClassicAlgPolicyENS_11__move_loopIS1_EENS_14__move_trivialENS_16reverse_iteratorIP6CoordsEES8_S8_EENS_4pairIT2_T4_EESA_T3_SB_, symObjAddr: 0x34D0, symBinAddr: 0x100007A24, symSize: 0x64 }
  - { offsetInCU: 0x10C3F, offset: 0x10C3F, size: 0x8, addend: 0x0, symName: __ZNSt3__121__unwrap_and_dispatchB8ue170006INS_10__overloadINS_11__move_loopINS_17_ClassicAlgPolicyEEENS_14__move_trivialEEENS_16reverse_iteratorIP6CoordsEESA_SA_Li0EEENS_4pairIT0_T2_EESC_T1_SD_, symObjAddr: 0x3534, symBinAddr: 0x100007A88, symSize: 0x12C }
  - { offsetInCU: 0x10CD1, offset: 0x10CD1, size: 0x8, addend: 0x0, symName: __ZNSt3__114__unwrap_rangeB8ue170006INS_16reverse_iteratorIP6CoordsEES4_EEDaT_T0_, symObjAddr: 0x3660, symBinAddr: 0x100007BB4, symSize: 0x4C }
  - { offsetInCU: 0x10E4C, offset: 0x10E4C, size: 0x8, addend: 0x0, symName: __ZNSt3__113__unwrap_iterB8ue170006INS_16reverse_iteratorIP6CoordsEENS_18__unwrap_iter_implIS4_Lb0EEELi0EEEDTclsrT0_8__unwrapclsr3stdE7declvalIT_EEEES8_, symObjAddr: 0x374C, symBinAddr: 0x100007CA0, symSize: 0x44 }
  - { offsetInCU: 0x10E90, offset: 0x10E90, size: 0x8, addend: 0x0, symName: __ZNSt3__19make_pairB8ue170006INS_16reverse_iteratorIP6CoordsEES4_EENS_4pairINS_18__unwrap_ref_decayIT_E4typeENS6_IT0_E4typeEEEOS7_OSA_, symObjAddr: 0x3790, symBinAddr: 0x100007CE4, symSize: 0x38 }
  - { offsetInCU: 0x10EDF, offset: 0x10EDF, size: 0x8, addend: 0x0, symName: __ZNSt3__114__rewrap_rangeB8ue170006INS_16reverse_iteratorIP6CoordsEES4_S4_EET0_S5_T1_, symObjAddr: 0x37C8, symBinAddr: 0x100007D1C, symSize: 0x5C }
  - { offsetInCU: 0x10F34, offset: 0x10F34, size: 0x8, addend: 0x0, symName: __ZNSt3__113__rewrap_iterB8ue170006INS_16reverse_iteratorIP6CoordsEES4_NS_18__unwrap_iter_implIS4_Lb0EEEEET_S7_T0_, symObjAddr: 0x3824, symBinAddr: 0x100007D78, symSize: 0x74 }
  - { offsetInCU: 0x10FD9, offset: 0x10FD9, size: 0x8, addend: 0x0, symName: __ZNSt3__1neB8ue170006IP6CoordsS2_EEbRKNS_16reverse_iteratorIT_EERKNS3_IT0_EE, symObjAddr: 0x398C, symBinAddr: 0x100007EE0, symSize: 0x48 }
  - { offsetInCU: 0x110D7, offset: 0x110D7, size: 0x8, addend: 0x0, symName: __ZNSt3__122__make_exception_guardB8ue170006INS_6vectorI6CoordsNS_9allocatorIS2_EEE16__destroy_vectorEEENS_28__exception_guard_exceptionsIT_EES8_, symObjAddr: 0x3EFC, symBinAddr: 0x100008450, symSize: 0x40 }
  - { offsetInCU: 0x1110C, offset: 0x1110C, size: 0x8, addend: 0x0, symName: __ZNSt3__130__uninitialized_allocator_copyB8ue170006INS_9allocatorI6CoordsEEPS2_S4_S4_EET2_RT_T0_T1_S5_, symObjAddr: 0x4114, symBinAddr: 0x100008668, symSize: 0x80 }
  - { offsetInCU: 0x111A9, offset: 0x111A9, size: 0x8, addend: 0x0, symName: __ZNSt3__114__unwrap_rangeB8ue170006IP6CoordsS2_EEDaT_T0_, symObjAddr: 0x4194, symBinAddr: 0x1000086E8, symSize: 0x3C }
  - { offsetInCU: 0x111F5, offset: 0x111F5, size: 0x8, addend: 0x0, symName: __ZNSt3__135__uninitialized_allocator_copy_implB8ue170006INS_9allocatorI6CoordsEES2_S2_S2_LPv0EEEPT2_RT_PT0_SA_S6_, symObjAddr: 0x41D0, symBinAddr: 0x100008724, symSize: 0x38 }
  - { offsetInCU: 0x11277, offset: 0x11277, size: 0x8, addend: 0x0, symName: __ZNSt3__113__unwrap_iterB8ue170006IP6CoordsNS_18__unwrap_iter_implIS2_Lb1EEELi0EEEDTclsrT0_8__unwrapclsr3stdE7declvalIT_EEEES6_, symObjAddr: 0x4208, symBinAddr: 0x10000875C, symSize: 0x24 }
  - { offsetInCU: 0x112BB, offset: 0x112BB, size: 0x8, addend: 0x0, symName: __ZNSt3__113__rewrap_iterB8ue170006IP6CoordsS2_NS_18__unwrap_iter_implIS2_Lb1EEEEET_S5_T0_, symObjAddr: 0x422C, symBinAddr: 0x100008780, symSize: 0x3C }
  - { offsetInCU: 0x1145B, offset: 0x1145B, size: 0x8, addend: 0x0, symName: __ZNSt3__14copyB8ue170006IP6CoordsS2_EET0_T_S4_S3_, symObjAddr: 0x4330, symBinAddr: 0x100008884, symSize: 0x40 }
  - { offsetInCU: 0x114B5, offset: 0x114B5, size: 0x8, addend: 0x0, symName: __ZNSt3__16__copyB8ue170006INS_17_ClassicAlgPolicyEP6CoordsS3_S3_EENS_4pairIT0_T2_EES5_T1_S6_, symObjAddr: 0x4370, symBinAddr: 0x1000088C4, symSize: 0x44 }
  - { offsetInCU: 0x11521, offset: 0x11521, size: 0x8, addend: 0x0, symName: __ZNSt3__123__dispatch_copy_or_moveB8ue170006INS_17_ClassicAlgPolicyENS_11__copy_loopIS1_EENS_14__copy_trivialEP6CoordsS6_S6_EENS_4pairIT2_T4_EES8_T3_S9_, symObjAddr: 0x43B4, symBinAddr: 0x100008908, symSize: 0x44 }
  - { offsetInCU: 0x1159F, offset: 0x1159F, size: 0x8, addend: 0x0, symName: __ZNSt3__121__unwrap_and_dispatchB8ue170006INS_10__overloadINS_11__copy_loopINS_17_ClassicAlgPolicyEEENS_14__copy_trivialEEEP6CoordsS8_S8_Li0EEENS_4pairIT0_T2_EESA_T1_SB_, symObjAddr: 0x43F8, symBinAddr: 0x10000894C, symSize: 0xB4 }
  - { offsetInCU: 0x11675, offset: 0x11675, size: 0x8, addend: 0x0, symName: __ZNSt3__19make_pairB8ue170006IP6CoordsS2_EENS_4pairINS_18__unwrap_ref_decayIT_E4typeENS4_IT0_E4typeEEEOS5_OS8_, symObjAddr: 0x44F4, symBinAddr: 0x100008A48, symSize: 0x38 }
  - { offsetInCU: 0x116C4, offset: 0x116C4, size: 0x8, addend: 0x0, symName: __ZNSt3__114__rewrap_rangeB8ue170006IP6CoordsS2_S2_EET0_S3_T1_, symObjAddr: 0x452C, symBinAddr: 0x100008A80, symSize: 0x2C }
  - { offsetInCU: 0x11719, offset: 0x11719, size: 0x8, addend: 0x0, symName: __ZNSt3__119__copy_trivial_implB8ue170006I6CoordsS1_EENS_4pairIPT_PT0_EES4_S4_S6_, symObjAddr: 0x4558, symBinAddr: 0x100008AAC, symSize: 0x80 }
  - { offsetInCU: 0x11782, offset: 0x11782, size: 0x8, addend: 0x0, symName: __ZNSt3__119__constexpr_memmoveB8ue170006I6CoordsS1_Li0EEEPT_S3_PT0_NS_15__element_countE, symObjAddr: 0x45D8, symBinAddr: 0x100008B2C, symSize: 0x64 }
  - { offsetInCU: 0x117F1, offset: 0x117F1, size: 0x8, addend: 0x0, symName: __ZNSt3__19make_pairB8ue170006IRP6CoordsS2_EENS_4pairINS_18__unwrap_ref_decayIT_E4typeENS5_IT0_E4typeEEEOS6_OS9_, symObjAddr: 0x463C, symBinAddr: 0x100008B90, symSize: 0x38 }
  - { offsetInCU: 0x11893, offset: 0x11893, size: 0x8, addend: 0x0, symName: __ZNSt3__13minB8ue170006ImNS_6__lessIvvEEEERKT_S5_S5_T0_, symObjAddr: 0x48CC, symBinAddr: 0x100008E20, symSize: 0x54 }
  - { offsetInCU: 0x11920, offset: 0x11920, size: 0x8, addend: 0x0, symName: __ZNSt3__110destroy_atB8ue170006INS_4pairIK6CoordsfEELi0EEEvPT_, symObjAddr: 0x5440, symBinAddr: 0x100009994, symSize: 0x24 }
  - { offsetInCU: 0x11957, offset: 0x11957, size: 0x8, addend: 0x0, symName: __ZNSt3__112__destroy_atB8ue170006INS_4pairIK6CoordsfEELi0EEEvPT_, symObjAddr: 0x5464, symBinAddr: 0x1000099B8, symSize: 0x10 }
  - { offsetInCU: 0x1198E, offset: 0x1198E, size: 0x8, addend: 0x0, symName: __ZNSt3__17launderB8ue170006INS_4pairIK6CoordsfEEEEPT_S6_, symObjAddr: 0x5498, symBinAddr: 0x1000099EC, symSize: 0x24 }
  - { offsetInCU: 0x119C5, offset: 0x119C5, size: 0x8, addend: 0x0, symName: __ZNSt3__19__launderB8ue170006INS_4pairIK6CoordsfEEEEPT_S6_, symObjAddr: 0x54BC, symBinAddr: 0x100009A10, symSize: 0x14 }
  - { offsetInCU: 0x11A33, offset: 0x11A33, size: 0x8, addend: 0x0, symName: __ZNSt3__116forward_as_tupleB8ue170006IJ6CoordsEEENS_5tupleIJDpOT_EEES5_, symObjAddr: 0x5CA0, symBinAddr: 0x10000A1F4, symSize: 0x2C }
  - { offsetInCU: 0x11A6C, offset: 0x11A6C, size: 0x8, addend: 0x0, symName: __ZNSt3__116forward_as_tupleB8ue170006IJEEENS_5tupleIJDpOT_EEES4_, symObjAddr: 0x5CCC, symBinAddr: 0x10000A220, symSize: 0x4 }
  - { offsetInCU: 0x11A90, offset: 0x11A90, size: 0x8, addend: 0x0, symName: __ZNSt3__116__constrain_hashB8ue170006Emm, symObjAddr: 0x5D7C, symBinAddr: 0x10000A2D0, symSize: 0x98 }
  - { offsetInCU: 0x11ACA, offset: 0x11ACA, size: 0x8, addend: 0x0, symName: __ZNSt3__116__is_hash_power2B8ue170006Em, symObjAddr: 0x609C, symBinAddr: 0x10000A5F0, symSize: 0x50 }
  - { offsetInCU: 0x11AF6, offset: 0x11AF6, size: 0x8, addend: 0x0, symName: __ZNSt3__17launderB8ue170006IKNS_4pairIK6CoordsfEEEEPT_S7_, symObjAddr: 0x6418, symBinAddr: 0x10000A96C, symSize: 0x24 }
  - { offsetInCU: 0x11B2D, offset: 0x11B2D, size: 0x8, addend: 0x0, symName: __ZNSt3__19__launderB8ue170006IKNS_4pairIK6CoordsfEEEEPT_S7_, symObjAddr: 0x643C, symBinAddr: 0x10000A990, symSize: 0x14 }
  - { offsetInCU: 0x11BA7, offset: 0x11BA7, size: 0x8, addend: 0x0, symName: __ZNSt3__112construct_atB8ue170006INS_4pairIK6CoordsfEEJRKNS_21piecewise_construct_tENS_5tupleIJOS2_EEENS8_IJEEEEPS4_EEPT_SE_DpOT0_, symObjAddr: 0x6730, symBinAddr: 0x10000AC84, symSize: 0x50 }
  - { offsetInCU: 0x11C49, offset: 0x11C49, size: 0x8, addend: 0x0, symName: __ZNSt3__13getB8ue170006ILm0EJO6CoordsEEERNS_13tuple_elementIXT_ENS_5tupleIJDpT0_EEEE4typeERS7_, symObjAddr: 0x684C, symBinAddr: 0x10000ADA0, symSize: 0x24 }
  - { offsetInCU: 0x11C8C, offset: 0x11C8C, size: 0x8, addend: 0x0, symName: __ZNSt3__116__next_hash_pow2B8ue170006Em, symObjAddr: 0x6D50, symBinAddr: 0x10000B2A4, symSize: 0x6C }
  - { offsetInCU: 0x11CD5, offset: 0x11CD5, size: 0x8, addend: 0x0, symName: __ZNSt3__112__libcpp_clzB8ue170006Em, symObjAddr: 0x6F04, symBinAddr: 0x10000B458, symSize: 0x1C }
  - { offsetInCU: 0x11D58, offset: 0x11D58, size: 0x8, addend: 0x0, symName: __ZNSt3__116forward_as_tupleB8ue170006IJRK6CoordsEEENS_5tupleIJDpOT_EEES7_, symObjAddr: 0x76DC, symBinAddr: 0x10000BC30, symSize: 0x2C }
  - { offsetInCU: 0x11D91, offset: 0x11D91, size: 0x8, addend: 0x0, symName: __ZNSt3__112construct_atB8ue170006INS_4pairIK6CoordsfEEJRKNS_21piecewise_construct_tENS_5tupleIJRS3_EEENS8_IJEEEEPS4_EEPT_SE_DpOT0_, symObjAddr: 0x7898, symBinAddr: 0x10000BDEC, symSize: 0x50 }
  - { offsetInCU: 0x11E27, offset: 0x11E27, size: 0x8, addend: 0x0, symName: __ZNSt3__13getB8ue170006ILm0EJRK6CoordsEEERNS_13tuple_elementIXT_ENS_5tupleIJDpT0_EEEE4typeERS8_, symObjAddr: 0x79B4, symBinAddr: 0x10000BF08, symSize: 0x24 }
  - { offsetInCU: 0x11E7F, offset: 0x11E7F, size: 0x8, addend: 0x0, symName: __ZNSt3__1eqB8ue170006ERKNS_15__hash_iteratorIPNS_11__hash_nodeINS_17__hash_value_typeI6CoordsfEEPvEEEESA_, symObjAddr: 0x7D10, symBinAddr: 0x10000C264, symSize: 0x30 }
  - { offsetInCU: 0x11EBC, offset: 0x11EBC, size: 0x8, addend: 0x0, symName: __ZNSt3__116__pad_and_outputB8ue170006IcNS_11char_traitsIcEEEENS_19ostreambuf_iteratorIT_T0_EES6_PKS4_S8_S8_RNS_8ios_baseES4_, symObjAddr: 0x7F7C, symBinAddr: 0x10000C4D0, symSize: 0x240 }
  - { offsetInCU: 0x11F8B, offset: 0x11F8B, size: 0x8, addend: 0x0, symName: __ZNSt3__112__to_addressB8ue170006IcEEPT_S2_, symObjAddr: 0x84E4, symBinAddr: 0x10000CA38, symSize: 0x14 }
  - { offsetInCU: 0x11FC0, offset: 0x11FC0, size: 0x8, addend: 0x0, symName: __ZNSt3__19use_facetB8ue170006INS_5ctypeIcEEEERKT_RKNS_6localeE, symObjAddr: 0x879C, symBinAddr: 0x10000CCF0, symSize: 0x2C }
  - { offsetInCU: 0x1248D, offset: 0x1248D, size: 0x8, addend: 0x0, symName: __ZNSt3__118__constexpr_strlenB8ue170006EPKc, symObjAddr: 0x8834, symBinAddr: 0x10000CD88, symSize: 0x24 }
  - { offsetInCU: 0x124B9, offset: 0x124B9, size: 0x8, addend: 0x0, symName: __ZNSt3__17launderB8ue170006IKNS_4pairIK6CoordsS2_EEEEPT_S7_, symObjAddr: 0x8D70, symBinAddr: 0x10000D2C4, symSize: 0x24 }
  - { offsetInCU: 0x124F0, offset: 0x124F0, size: 0x8, addend: 0x0, symName: __ZNSt3__19__launderB8ue170006IKNS_4pairIK6CoordsS2_EEEEPT_S7_, symObjAddr: 0x8D94, symBinAddr: 0x10000D2E8, symSize: 0x14 }
  - { offsetInCU: 0x1255A, offset: 0x1255A, size: 0x8, addend: 0x0, symName: __ZNSt3__1eqB8ue170006ERKNS_15__hash_iteratorIPNS_11__hash_nodeINS_17__hash_value_typeI6CoordsS3_EEPvEEEESA_, symObjAddr: 0x8DFC, symBinAddr: 0x10000D350, symSize: 0x30 }
  - { offsetInCU: 0x125DA, offset: 0x125DA, size: 0x8, addend: 0x0, symName: __ZNSt3__112construct_atB8ue170006INS_4pairIK6CoordsS2_EEJRKNS_21piecewise_construct_tENS_5tupleIJRS3_EEENS8_IJEEEEPS4_EEPT_SE_DpOT0_, symObjAddr: 0x99A4, symBinAddr: 0x10000DEF8, symSize: 0x50 }
  - { offsetInCU: 0x12670, offset: 0x12670, size: 0x8, addend: 0x0, symName: __ZNSt3__110destroy_atB8ue170006INS_4pairIK6CoordsS2_EELi0EEEvPT_, symObjAddr: 0xA4C0, symBinAddr: 0x10000EA14, symSize: 0x24 }
  - { offsetInCU: 0x126A7, offset: 0x126A7, size: 0x8, addend: 0x0, symName: __ZNSt3__112__destroy_atB8ue170006INS_4pairIK6CoordsS2_EELi0EEEvPT_, symObjAddr: 0xA4E4, symBinAddr: 0x10000EA38, symSize: 0x10 }
  - { offsetInCU: 0x12711, offset: 0x12711, size: 0x8, addend: 0x0, symName: __ZNSt3__17launderB8ue170006INS_4pairIK6CoordsS2_EEEEPT_S6_, symObjAddr: 0xA580, symBinAddr: 0x10000EAD4, symSize: 0x24 }
  - { offsetInCU: 0x12748, offset: 0x12748, size: 0x8, addend: 0x0, symName: __ZNSt3__19__launderB8ue170006INS_4pairIK6CoordsS2_EEEEPT_S6_, symObjAddr: 0xA5A4, symBinAddr: 0x10000EAF8, symSize: 0x14 }
  - { offsetInCU: 0x12B24, offset: 0x12B24, size: 0x8, addend: 0x0, symName: __ZNSt3__14swapB8ue170006IPP6CoordsEENS_9enable_ifIXaasr21is_move_constructibleIT_EE5valuesr18is_move_assignableIS5_EE5valueEvE4typeERS5_S8_, symObjAddr: 0xBAC0, symBinAddr: 0x100010014, symSize: 0x3C }
  - { offsetInCU: 0x12B76, offset: 0x12B76, size: 0x8, addend: 0x0, symName: __ZNSt3__14moveB8ue170006IPP6CoordsS3_EET0_T_S5_S4_, symObjAddr: 0xBBF0, symBinAddr: 0x100010144, symSize: 0x40 }
  - { offsetInCU: 0x12BD0, offset: 0x12BD0, size: 0x8, addend: 0x0, symName: __ZNSt3__112__to_addressB8ue170006IP6CoordsEEPT_S4_, symObjAddr: 0xBCF4, symBinAddr: 0x100010248, symSize: 0x14 }
  - { offsetInCU: 0x12C05, offset: 0x12C05, size: 0x8, addend: 0x0, symName: __ZNSt3__16__moveB8ue170006INS_17_ClassicAlgPolicyEPP6CoordsS4_S4_EENS_4pairIT0_T2_EES6_T1_S7_, symObjAddr: 0xBD08, symBinAddr: 0x10001025C, symSize: 0x44 }
  - { offsetInCU: 0x12C71, offset: 0x12C71, size: 0x8, addend: 0x0, symName: __ZNSt3__123__dispatch_copy_or_moveB8ue170006INS_17_ClassicAlgPolicyENS_11__move_loopIS1_EENS_14__move_trivialEPP6CoordsS7_S7_EENS_4pairIT2_T4_EES9_T3_SA_, symObjAddr: 0xBD4C, symBinAddr: 0x1000102A0, symSize: 0x44 }
  - { offsetInCU: 0x12CEF, offset: 0x12CEF, size: 0x8, addend: 0x0, symName: __ZNSt3__121__unwrap_and_dispatchB8ue170006INS_10__overloadINS_11__move_loopINS_17_ClassicAlgPolicyEEENS_14__move_trivialEEEPP6CoordsS9_S9_Li0EEENS_4pairIT0_T2_EESB_T1_SC_, symObjAddr: 0xBD90, symBinAddr: 0x1000102E4, symSize: 0xB4 }
  - { offsetInCU: 0x12D7F, offset: 0x12D7F, size: 0x8, addend: 0x0, symName: __ZNSt3__114__unwrap_rangeB8ue170006IPP6CoordsS3_EEDaT_T0_, symObjAddr: 0xBE44, symBinAddr: 0x100010398, symSize: 0x3C }
  - { offsetInCU: 0x12F43, offset: 0x12F43, size: 0x8, addend: 0x0, symName: __ZNSt3__113__unwrap_iterB8ue170006IPP6CoordsNS_18__unwrap_iter_implIS3_Lb1EEELi0EEEDTclsrT0_8__unwrapclsr3stdE7declvalIT_EEEES7_, symObjAddr: 0xBEC8, symBinAddr: 0x10001041C, symSize: 0x24 }
  - { offsetInCU: 0x12F87, offset: 0x12F87, size: 0x8, addend: 0x0, symName: __ZNSt3__19make_pairB8ue170006IPP6CoordsS3_EENS_4pairINS_18__unwrap_ref_decayIT_E4typeENS5_IT0_E4typeEEEOS6_OS9_, symObjAddr: 0xBEEC, symBinAddr: 0x100010440, symSize: 0x38 }
  - { offsetInCU: 0x12FD6, offset: 0x12FD6, size: 0x8, addend: 0x0, symName: __ZNSt3__114__rewrap_rangeB8ue170006IPP6CoordsS3_S3_EET0_S4_T1_, symObjAddr: 0xBF24, symBinAddr: 0x100010478, symSize: 0x2C }
  - { offsetInCU: 0x1302B, offset: 0x1302B, size: 0x8, addend: 0x0, symName: __ZNSt3__113__rewrap_iterB8ue170006IPP6CoordsS3_NS_18__unwrap_iter_implIS3_Lb1EEEEET_S6_T0_, symObjAddr: 0xBF50, symBinAddr: 0x1000104A4, symSize: 0x3C }
  - { offsetInCU: 0x130D0, offset: 0x130D0, size: 0x8, addend: 0x0, symName: __ZNSt3__119__copy_trivial_implB8ue170006IP6CoordsS2_EENS_4pairIPT_PT0_EES5_S5_S7_, symObjAddr: 0xC054, symBinAddr: 0x1000105A8, symSize: 0x80 }
  - { offsetInCU: 0x13139, offset: 0x13139, size: 0x8, addend: 0x0, symName: __ZNSt3__119__constexpr_memmoveB8ue170006IP6CoordsS2_Li0EEEPT_S4_PT0_NS_15__element_countE, symObjAddr: 0xC0D4, symBinAddr: 0x100010628, symSize: 0x64 }
  - { offsetInCU: 0x131A8, offset: 0x131A8, size: 0x8, addend: 0x0, symName: __ZNSt3__19make_pairB8ue170006IRPP6CoordsS3_EENS_4pairINS_18__unwrap_ref_decayIT_E4typeENS6_IT0_E4typeEEEOS7_OSA_, symObjAddr: 0xC138, symBinAddr: 0x10001068C, symSize: 0x38 }
  - { offsetInCU: 0x1324A, offset: 0x1324A, size: 0x8, addend: 0x0, symName: __ZNSt3__18distanceB8ue170006INS_13move_iteratorIPP6CoordsEEEENS_15iterator_traitsIT_E15difference_typeES7_S7_, symObjAddr: 0xC35C, symBinAddr: 0x1000108B0, symSize: 0x3C }
  - { offsetInCU: 0x132B2, offset: 0x132B2, size: 0x8, addend: 0x0, symName: __ZNSt3__112construct_atB8ue170006IP6CoordsJS2_EPS2_EEPT_S5_DpOT0_, symObjAddr: 0xC4E8, symBinAddr: 0x100010A3C, symSize: 0x2C }
  - { offsetInCU: 0x13322, offset: 0x13322, size: 0x8, addend: 0x0, symName: __ZNSt3__110__distanceB8ue170006INS_13move_iteratorIPP6CoordsEEEENS_15iterator_traitsIT_E15difference_typeES7_S7_NS_26random_access_iterator_tagE, symObjAddr: 0xC590, symBinAddr: 0x100010AE4, symSize: 0x30 }
  - { offsetInCU: 0x13370, offset: 0x13370, size: 0x8, addend: 0x0, symName: __ZNSt3__1miB8ue170006IPP6CoordsS3_EEDTmicldtfp_4baseEcldtfp0_4baseEERKNS_13move_iteratorIT_EERKNS5_IT0_EE, symObjAddr: 0xC5C0, symBinAddr: 0x100010B14, symSize: 0x4C }
  - { offsetInCU: 0x133BF, offset: 0x133BF, size: 0x8, addend: 0x0, symName: __ZNSt3__112construct_atB8ue170006IP6CoordsJRKS2_EPS2_EEPT_S7_DpOT0_, symObjAddr: 0xC640, symBinAddr: 0x100010B94, symSize: 0x2C }
  - { offsetInCU: 0x1342F, offset: 0x1342F, size: 0x8, addend: 0x0, symName: __ZNSt3__113move_backwardB8ue170006IPP6CoordsS3_EET0_T_S5_S4_, symObjAddr: 0xC6CC, symBinAddr: 0x100010C20, symSize: 0x40 }
  - { offsetInCU: 0x13489, offset: 0x13489, size: 0x8, addend: 0x0, symName: __ZNSt3__115__move_backwardB8ue170006INS_17_ClassicAlgPolicyEPP6CoordsS4_S4_EENS_4pairIT0_T2_EES6_T1_S7_, symObjAddr: 0xC70C, symBinAddr: 0x100010C60, symSize: 0x44 }
  - { offsetInCU: 0x134F5, offset: 0x134F5, size: 0x8, addend: 0x0, symName: __ZNSt3__123__dispatch_copy_or_moveB8ue170006INS_17_ClassicAlgPolicyENS_20__move_backward_loopIS1_EENS_23__move_backward_trivialEPP6CoordsS7_S7_EENS_4pairIT2_T4_EES9_T3_SA_, symObjAddr: 0xC750, symBinAddr: 0x100010CA4, symSize: 0x44 }
  - { offsetInCU: 0x13573, offset: 0x13573, size: 0x8, addend: 0x0, symName: __ZNSt3__121__unwrap_and_dispatchB8ue170006INS_10__overloadINS_20__move_backward_loopINS_17_ClassicAlgPolicyEEENS_23__move_backward_trivialEEEPP6CoordsS9_S9_Li0EEENS_4pairIT0_T2_EESB_T1_SC_, symObjAddr: 0xC794, symBinAddr: 0x100010CE8, symSize: 0xB4 }
  - { offsetInCU: 0x13649, offset: 0x13649, size: 0x8, addend: 0x0, symName: __ZNSt3__128__copy_backward_trivial_implB8ue170006IP6CoordsS2_EENS_4pairIPT_PT0_EES5_S5_S7_, symObjAddr: 0xC890, symBinAddr: 0x100010DE4, symSize: 0x90 }
  - { offsetInCU: 0x136B2, offset: 0x136B2, size: 0x8, addend: 0x0, symName: __ZNSt3__19make_pairB8ue170006IRPP6CoordsS4_EENS_4pairINS_18__unwrap_ref_decayIT_E4typeENS6_IT0_E4typeEEEOS7_OSA_, symObjAddr: 0xC920, symBinAddr: 0x100010E74, symSize: 0x38 }
  - { offsetInCU: 0x13701, offset: 0x13701, size: 0x8, addend: 0x0, symName: __ZNSt3__119__allocate_at_leastB8ue170006INS_9allocatorIP6CoordsEEEENS_19__allocation_resultINS_16allocator_traitsIT_E7pointerEEERS7_m, symObjAddr: 0xCB94, symBinAddr: 0x1000110E8, symSize: 0x40 }
  - { offsetInCU: 0x13744, offset: 0x13744, size: 0x8, addend: 0x0, symName: __ZNSt3__110destroy_atB8ue170006IP6CoordsLi0EEEvPT_, symObjAddr: 0xD1D0, symBinAddr: 0x100011724, symSize: 0x24 }
  - { offsetInCU: 0x1377B, offset: 0x1377B, size: 0x8, addend: 0x0, symName: __ZNSt3__112__destroy_atB8ue170006IP6CoordsLi0EEEvPT_, symObjAddr: 0xD1F4, symBinAddr: 0x100011748, symSize: 0x10 }
  - { offsetInCU: 0x137B2, offset: 0x137B2, size: 0x8, addend: 0x0, symName: __ZNSt3__18distanceB8ue170006IPK6CoordsEENS_15iterator_traitsIT_E15difference_typeES5_S5_, symObjAddr: 0xDED8, symBinAddr: 0x10001242C, symSize: 0x2C }
  - { offsetInCU: 0x137F5, offset: 0x137F5, size: 0x8, addend: 0x0, symName: __ZNSt3__1neB8ue170006ERKNS_5dequeI6CoordsNS_9allocatorIS1_EEE13__deque_rangeES7_, symObjAddr: 0xE640, symBinAddr: 0x100012B94, symSize: 0x34 }
  - { offsetInCU: 0x13832, offset: 0x13832, size: 0x8, addend: 0x0, symName: __ZNSt3__1eqB8ue170006ERKNS_5dequeI6CoordsNS_9allocatorIS1_EEE13__deque_rangeES7_, symObjAddr: 0xECD4, symBinAddr: 0x100013228, symSize: 0x30 }
  - { offsetInCU: 0x1386F, offset: 0x1386F, size: 0x8, addend: 0x0, symName: __ZNSt3__1eqB8ue170006ERKNS_16__deque_iteratorI6CoordsPS1_RS1_PS2_lLl512EEES7_, symObjAddr: 0xED04, symBinAddr: 0x100013258, symSize: 0x30 }
  - { offsetInCU: 0x138AC, offset: 0x138AC, size: 0x8, addend: 0x0, symName: __ZNSt3__110__distanceB8ue170006IPK6CoordsEENS_15iterator_traitsIT_E15difference_typeES5_S5_NS_26random_access_iterator_tagE, symObjAddr: 0xEE40, symBinAddr: 0x100013394, symSize: 0x28 }
  - { offsetInCU: 0x138FA, offset: 0x138FA, size: 0x8, addend: 0x0, symName: __ZNSt3__1neB8ue170006ERKNS_16__deque_iteratorI6CoordsPS1_RS1_PS2_lLl512EEES7_, symObjAddr: 0xF278, symBinAddr: 0x1000137CC, symSize: 0x34 }
  - { offsetInCU: 0x13955, offset: 0x13955, size: 0x8, addend: 0x0, symName: __ZNSt3__1eqB8ue170006ERKNS_25__hash_map_const_iteratorINS_21__hash_const_iteratorIPNS_11__hash_nodeINS_17__hash_value_typeI6CoordsS4_EEPvEEEEEESC_, symObjAddr: 0x1056C, symBinAddr: 0x100014AC0, symSize: 0x30 }
  - { offsetInCU: 0x13992, offset: 0x13992, size: 0x8, addend: 0x0, symName: __ZNSt3__1eqB8ue170006ERKNS_21__hash_const_iteratorIPNS_11__hash_nodeINS_17__hash_value_typeI6CoordsS3_EEPvEEEESA_, symObjAddr: 0x10640, symBinAddr: 0x100014B94, symSize: 0x30 }
  - { offsetInCU: 0x139CF, offset: 0x139CF, size: 0x8, addend: 0x0, symName: __ZNSt3__112construct_atB8ue170006INS_4pairIK6CoordsS2_EEJRKS4_EPS4_EEPT_S9_DpOT0_, symObjAddr: 0x10C94, symBinAddr: 0x1000151E8, symSize: 0x2C }
  - { offsetInCU: 0x13F13, offset: 0x13F13, size: 0x8, addend: 0x0, symName: __ZSt28__throw_bad_array_new_lengthB8ue170006v, symObjAddr: 0x3100, symBinAddr: 0x100007654, symSize: 0x34 }
  - { offsetInCU: 0x147B3, offset: 0x147B3, size: 0x8, addend: 0x0, symName: __ZNSt3__16vectorI6CoordsNS_9allocatorIS1_EEE26__swap_out_circular_bufferERNS_14__split_bufferIS1_RS3_EE, symObjAddr: 0x2A90, symBinAddr: 0x100006FE4, symSize: 0x110 }
  - { offsetInCU: 0x17E58, offset: 0x17E58, size: 0x8, addend: 0x0, symName: __ZN9AlgorithmC2Ev, symObjAddr: 0x0, symBinAddr: 0x100004554, symSize: 0x118 }
  - { offsetInCU: 0x17E84, offset: 0x17E84, size: 0x8, addend: 0x0, symName: __ZN17AbstractAlgorithmC2Ev, symObjAddr: 0x118, symBinAddr: 0x10000466C, symSize: 0x24 }
  - { offsetInCU: 0x17EB0, offset: 0x17EB0, size: 0x8, addend: 0x0, symName: __ZNSt3__16vectorI6CoordsNS_9allocatorIS1_EEEC1B8ue170006Ev, symObjAddr: 0x13C, symBinAddr: 0x100004690, symSize: 0x2C }
  - { offsetInCU: 0x17EDA, offset: 0x17EDA, size: 0x8, addend: 0x0, symName: __ZNSt3__113unordered_mapI6CoordsfNS_4hashIS1_EENS_8equal_toIS1_EENS_9allocatorINS_4pairIKS1_fEEEEEC1B8ue170006Ev, symObjAddr: 0x168, symBinAddr: 0x1000046BC, symSize: 0x2C }
  - { offsetInCU: 0x17F04, offset: 0x17F04, size: 0x8, addend: 0x0, symName: __ZNSt3__113unordered_mapI6CoordsfNS_4hashIS1_EENS_8equal_toIS1_EENS_9allocatorINS_4pairIKS1_fEEEEEixEOS1_, symObjAddr: 0x194, symBinAddr: 0x1000046E8, symSize: 0x80 }
  - { offsetInCU: 0x17F3B, offset: 0x17F3B, size: 0x8, addend: 0x0, symName: __ZNSt3__113unordered_mapI6CoordsfNS_4hashIS1_EENS_8equal_toIS1_EENS_9allocatorINS_4pairIKS1_fEEEEED1B8ue170006Ev, symObjAddr: 0x214, symBinAddr: 0x100004768, symSize: 0x2C }
  - { offsetInCU: 0x17F65, offset: 0x17F65, size: 0x8, addend: 0x0, symName: __ZNSt3__16vectorI6CoordsNS_9allocatorIS1_EEED1B8ue170006Ev, symObjAddr: 0x240, symBinAddr: 0x100004794, symSize: 0x2C }
  - { offsetInCU: 0x17F8F, offset: 0x17F8F, size: 0x8, addend: 0x0, symName: __ZN17AbstractAlgorithmD2Ev, symObjAddr: 0x26C, symBinAddr: 0x1000047C0, symSize: 0x14 }
  - { offsetInCU: 0x17FB9, offset: 0x17FB9, size: 0x8, addend: 0x0, symName: __ZN9AlgorithmC1Ev, symObjAddr: 0x280, symBinAddr: 0x1000047D4, symSize: 0x2C }
  - { offsetInCU: 0x17FE5, offset: 0x17FE5, size: 0x8, addend: 0x0, symName: __ZN9Algorithm40updateDetailsAboutCurrLocAndItsNeighborsEv, symObjAddr: 0x2AC, symBinAddr: 0x100004800, symSize: 0x178 }
  - { offsetInCU: 0x18056, offset: 0x18056, size: 0x8, addend: 0x0, symName: __ZNSt3__113unordered_mapI6CoordsfNS_4hashIS1_EENS_8equal_toIS1_EENS_9allocatorINS_4pairIKS1_fEEEEEixERS8_, symObjAddr: 0x424, symBinAddr: 0x100004978, symSize: 0x80 }
  - { offsetInCU: 0x1808D, offset: 0x1808D, size: 0x8, addend: 0x0, symName: __ZNSt3__113unordered_mapI6CoordsfNS_4hashIS1_EENS_8equal_toIS1_EENS_9allocatorINS_4pairIKS1_fEEEEE4findB8ue170006ERS8_, symObjAddr: 0x4D4, symBinAddr: 0x100004A28, symSize: 0x40 }
  - { offsetInCU: 0x180C2, offset: 0x180C2, size: 0x8, addend: 0x0, symName: __ZNSt3__113unordered_mapI6CoordsfNS_4hashIS1_EENS_8equal_toIS1_EENS_9allocatorINS_4pairIKS1_fEEEEE3endB8ue170006Ev, symObjAddr: 0x514, symBinAddr: 0x100004A68, symSize: 0x38 }
  - { offsetInCU: 0x180E8, offset: 0x180E8, size: 0x8, addend: 0x0, symName: __ZN9Algorithm21updateDistFromDockingEi, symObjAddr: 0x54C, symBinAddr: 0x100004AA0, symSize: 0x28 }
  - { offsetInCU: 0x1811E, offset: 0x1811E, size: 0x8, addend: 0x0, symName: __ZN9Algorithm15appendNeighborsERK6CoordsRNSt3__15dequeIS0_NS3_9allocatorIS0_EEEERNS3_13unordered_mapIS0_S0_NS3_4hashIS0_EENS3_8equal_toIS0_EENS5_INS3_4pairIS1_S0_EEEEEEb, symObjAddr: 0x574, symBinAddr: 0x100004AC8, symSize: 0x3BC }
  - { offsetInCU: 0x181D8, offset: 0x181D8, size: 0x8, addend: 0x0, symName: __ZNSt3__113basic_ostreamIcNS_11char_traitsIcEEElsB8ue170006EPFRS3_S4_E, symObjAddr: 0x978, symBinAddr: 0x100004ECC, symSize: 0x2C }
  - { offsetInCU: 0x1820C, offset: 0x1820C, size: 0x8, addend: 0x0, symName: __ZNSt3__113unordered_mapI6CoordsS1_NS_4hashIS1_EENS_8equal_toIS1_EENS_9allocatorINS_4pairIKS1_S1_EEEEE4findB8ue170006ERS8_, symObjAddr: 0xA2C, symBinAddr: 0x100004F80, symSize: 0x40 }
  - { offsetInCU: 0x18241, offset: 0x18241, size: 0x8, addend: 0x0, symName: __ZNSt3__113unordered_mapI6CoordsS1_NS_4hashIS1_EENS_8equal_toIS1_EENS_9allocatorINS_4pairIKS1_S1_EEEEE3endB8ue170006Ev, symObjAddr: 0xA6C, symBinAddr: 0x100004FC0, symSize: 0x38 }
  - { offsetInCU: 0x18267, offset: 0x18267, size: 0x8, addend: 0x0, symName: __ZNSt3__113unordered_mapI6CoordsS1_NS_4hashIS1_EENS_8equal_toIS1_EENS_9allocatorINS_4pairIKS1_S1_EEEEEixERS8_, symObjAddr: 0xAA4, symBinAddr: 0x100004FF8, symSize: 0x80 }
  - { offsetInCU: 0x1829E, offset: 0x1829E, size: 0x8, addend: 0x0, symName: __ZNSt3__15dequeI6CoordsNS_9allocatorIS1_EEE9push_backERKS1_, symObjAddr: 0xB24, symBinAddr: 0x100005078, symSize: 0xAC }
  - { offsetInCU: 0x182E3, offset: 0x182E3, size: 0x8, addend: 0x0, symName: __Z19createPathByParents6CoordsS_NSt3__113unordered_mapIS_S_NS0_4hashIS_EENS0_8equal_toIS_EENS0_9allocatorINS0_4pairIKS_S_EEEEEE, symObjAddr: 0xBD0, symBinAddr: 0x100005124, symSize: 0x128 }
  - { offsetInCU: 0x1834C, offset: 0x1834C, size: 0x8, addend: 0x0, symName: __ZNSt3__16vectorI6CoordsNS_9allocatorIS1_EEE9push_backB8ue170006ERKS1_, symObjAddr: 0xCF8, symBinAddr: 0x10000524C, symSize: 0x6C }
  - { offsetInCU: 0x18383, offset: 0x18383, size: 0x8, addend: 0x0, symName: __ZN9Algorithm3bfsEbm, symObjAddr: 0xD64, symBinAddr: 0x1000052B8, symSize: 0x498 }
  - { offsetInCU: 0x184AD, offset: 0x184AD, size: 0x8, addend: 0x0, symName: __ZNSt3__15dequeI6CoordsNS_9allocatorIS1_EEEC1ESt16initializer_listIS1_E, symObjAddr: 0x11FC, symBinAddr: 0x100005750, symSize: 0x3C }
  - { offsetInCU: 0x184E8, offset: 0x184E8, size: 0x8, addend: 0x0, symName: __ZNSt3__113unordered_mapI6CoordsS1_NS_4hashIS1_EENS_8equal_toIS1_EENS_9allocatorINS_4pairIKS1_S1_EEEEEC1B8ue170006Ev, symObjAddr: 0x1238, symBinAddr: 0x10000578C, symSize: 0x2C }
  - { offsetInCU: 0x18512, offset: 0x18512, size: 0x8, addend: 0x0, symName: __ZNKSt3__15dequeI6CoordsNS_9allocatorIS1_EEE4sizeB8ue170006Ev, symObjAddr: 0x1264, symBinAddr: 0x1000057B8, symSize: 0x28 }
  - { offsetInCU: 0x18538, offset: 0x18538, size: 0x8, addend: 0x0, symName: __ZNSt3__15dequeI6CoordsNS_9allocatorIS1_EEE5frontEv, symObjAddr: 0x128C, symBinAddr: 0x1000057E0, symSize: 0x50 }
  - { offsetInCU: 0x18560, offset: 0x18560, size: 0x8, addend: 0x0, symName: __ZNSt3__15dequeI6CoordsNS_9allocatorIS1_EEE9pop_frontEv, symObjAddr: 0x12DC, symBinAddr: 0x100005830, symSize: 0xD4 }
  - { offsetInCU: 0x185B5, offset: 0x185B5, size: 0x8, addend: 0x0, symName: __ZNKSt3__15dequeI6CoordsNS_9allocatorIS1_EEE5emptyB8ue170006Ev, symObjAddr: 0x13B0, symBinAddr: 0x100005904, symSize: 0x30 }
  - { offsetInCU: 0x185DB, offset: 0x185DB, size: 0x8, addend: 0x0, symName: __ZNSt3__113unordered_mapI6CoordsS1_NS_4hashIS1_EENS_8equal_toIS1_EENS_9allocatorINS_4pairIKS1_S1_EEEEEC1ERKSB_, symObjAddr: 0x13E0, symBinAddr: 0x100005934, symSize: 0x34 }
  - { offsetInCU: 0x18616, offset: 0x18616, size: 0x8, addend: 0x0, symName: __ZNSt3__113unordered_mapI6CoordsS1_NS_4hashIS1_EENS_8equal_toIS1_EENS_9allocatorINS_4pairIKS1_S1_EEEEED1B8ue170006Ev, symObjAddr: 0x1414, symBinAddr: 0x100005968, symSize: 0x2C }
  - { offsetInCU: 0x18640, offset: 0x18640, size: 0x8, addend: 0x0, symName: __ZNSt3__15dequeI6CoordsNS_9allocatorIS1_EEED1B8ue170006Ev, symObjAddr: 0x1440, symBinAddr: 0x100005994, symSize: 0x2C }
  - { offsetInCU: 0x1866A, offset: 0x1866A, size: 0x8, addend: 0x0, symName: __ZN9Algorithm17constructNextPathEm, symObjAddr: 0x146C, symBinAddr: 0x1000059C0, symSize: 0x19C }
  - { offsetInCU: 0x186BF, offset: 0x186BF, size: 0x8, addend: 0x0, symName: __ZNKSt3__16vectorI6CoordsNS_9allocatorIS1_EEE4sizeB8ue170006Ev, symObjAddr: 0x1608, symBinAddr: 0x100005B5C, symSize: 0x28 }
  - { offsetInCU: 0x186E5, offset: 0x186E5, size: 0x8, addend: 0x0, symName: __ZNKSt3__16vectorI6CoordsNS_9allocatorIS1_EEE5emptyB8ue170006Ev, symObjAddr: 0x1630, symBinAddr: 0x100005B84, symSize: 0x28 }
  - { offsetInCU: 0x1870B, offset: 0x1870B, size: 0x8, addend: 0x0, symName: __ZNSt3__16vectorI6CoordsNS_9allocatorIS1_EEEC1ERKS4_, symObjAddr: 0x1658, symBinAddr: 0x100005BAC, symSize: 0x34 }
  - { offsetInCU: 0x18746, offset: 0x18746, size: 0x8, addend: 0x0, symName: __ZN9Algorithm25marchTheNextStepOfThePathEv, symObjAddr: 0x168C, symBinAddr: 0x100005BE0, symSize: 0xF0 }
  - { offsetInCU: 0x1879B, offset: 0x1879B, size: 0x8, addend: 0x0, symName: __ZNSt3__16vectorI6CoordsNS_9allocatorIS1_EEE5frontB8ue170006Ev, symObjAddr: 0x177C, symBinAddr: 0x100005CD0, symSize: 0x18 }
  - { offsetInCU: 0x187C1, offset: 0x187C1, size: 0x8, addend: 0x0, symName: __ZNSt3__16vectorI6CoordsNS_9allocatorIS1_EEE4backB8ue170006Ev, symObjAddr: 0x1794, symBinAddr: 0x100005CE8, symSize: 0x1C }
  - { offsetInCU: 0x187E7, offset: 0x187E7, size: 0x8, addend: 0x0, symName: __ZNSt3__16vectorI6CoordsNS_9allocatorIS1_EEE8pop_backEv, symObjAddr: 0x17B0, symBinAddr: 0x100005D04, symSize: 0x2C }
  - { offsetInCU: 0x1880F, offset: 0x1880F, size: 0x8, addend: 0x0, symName: __ZN9Algorithm8nextStepEv, symObjAddr: 0x17DC, symBinAddr: 0x100005D30, symSize: 0x5EC }
  - { offsetInCU: 0x18889, offset: 0x18889, size: 0x8, addend: 0x0, symName: __ZNSt3__16vectorI6CoordsNS_9allocatorIS1_EEEaSB8ue170006EOS4_, symObjAddr: 0x1DF4, symBinAddr: 0x100006348, symSize: 0x34 }
  - { offsetInCU: 0x188C0, offset: 0x188C0, size: 0x8, addend: 0x0, symName: __ZN9Algorithm11setMaxStepsEm, symObjAddr: 0x1E28, symBinAddr: 0x10000637C, symSize: 0x28 }
  - { offsetInCU: 0x188F8, offset: 0x188F8, size: 0x8, addend: 0x0, symName: __ZN9Algorithm14setWallsSensorERK11WallsSensor, symObjAddr: 0x1E50, symBinAddr: 0x1000063A4, symSize: 0x20 }
  - { offsetInCU: 0x18930, offset: 0x18930, size: 0x8, addend: 0x0, symName: __ZN9Algorithm13setDirtSensorERK10DirtSensor, symObjAddr: 0x1E70, symBinAddr: 0x1000063C4, symSize: 0x20 }
  - { offsetInCU: 0x18968, offset: 0x18968, size: 0x8, addend: 0x0, symName: __ZN9Algorithm15setBatteryMeterERK12BatteryMeter, symObjAddr: 0x1E90, symBinAddr: 0x1000063E4, symSize: 0x58 }
  - { offsetInCU: 0x189A0, offset: 0x189A0, size: 0x8, addend: 0x0, symName: __ZN9AlgorithmD1Ev, symObjAddr: 0x1EE8, symBinAddr: 0x10000643C, symSize: 0x2C }
  - { offsetInCU: 0x189CC, offset: 0x189CC, size: 0x8, addend: 0x0, symName: __ZN9AlgorithmD0Ev, symObjAddr: 0x1F14, symBinAddr: 0x100006468, symSize: 0x30 }
  - { offsetInCU: 0x189F8, offset: 0x189F8, size: 0x8, addend: 0x0, symName: __ZN17AbstractAlgorithmD1Ev, symObjAddr: 0x1F44, symBinAddr: 0x100006498, symSize: 0x14 }
  - { offsetInCU: 0x18A22, offset: 0x18A22, size: 0x8, addend: 0x0, symName: __ZN17AbstractAlgorithmD0Ev, symObjAddr: 0x1F58, symBinAddr: 0x1000064AC, symSize: 0xC }
  - { offsetInCU: 0x18A4C, offset: 0x18A4C, size: 0x8, addend: 0x0, symName: __ZNSt3__16vectorI6CoordsNS_9allocatorIS1_EEEC2B8ue170006Ev, symObjAddr: 0x1F64, symBinAddr: 0x1000064B8, symSize: 0x4C }
  - { offsetInCU: 0x18A82, offset: 0x18A82, size: 0x8, addend: 0x0, symName: __ZNSt3__117__compressed_pairIP6CoordsNS_9allocatorIS1_EEEC1B8ue170006IDnNS_18__default_init_tagEEEOT_OT0_, symObjAddr: 0x1FB0, symBinAddr: 0x100006504, symSize: 0x3C }
  - { offsetInCU: 0x18ADA, offset: 0x18ADA, size: 0x8, addend: 0x0, symName: __ZNSt3__117__compressed_pairIP6CoordsNS_9allocatorIS1_EEEC2B8ue170006IDnNS_18__default_init_tagEEEOT_OT0_, symObjAddr: 0x1FF8, symBinAddr: 0x10000654C, symSize: 0x40 }
  - { offsetInCU: 0x18B32, offset: 0x18B32, size: 0x8, addend: 0x0, symName: __ZNSt3__122__compressed_pair_elemIP6CoordsLi0ELb0EEC2B8ue170006IDnvEEOT_, symObjAddr: 0x2038, symBinAddr: 0x10000658C, symSize: 0x1C }
  - { offsetInCU: 0x18B74, offset: 0x18B74, size: 0x8, addend: 0x0, symName: __ZNSt3__122__compressed_pair_elemINS_9allocatorI6CoordsEELi1ELb1EEC2B8ue170006ENS_18__default_init_tagE, symObjAddr: 0x2054, symBinAddr: 0x1000065A8, symSize: 0x2C }
  - { offsetInCU: 0x18BA9, offset: 0x18BA9, size: 0x8, addend: 0x0, symName: __ZNSt3__19allocatorI6CoordsEC2B8ue170006Ev, symObjAddr: 0x2080, symBinAddr: 0x1000065D4, symSize: 0x2C }
  - { offsetInCU: 0x18BD3, offset: 0x18BD3, size: 0x8, addend: 0x0, symName: __ZNSt3__116__non_trivial_ifILb1ENS_9allocatorI6CoordsEEEC2B8ue170006Ev, symObjAddr: 0x20AC, symBinAddr: 0x100006600, symSize: 0x14 }
  - { offsetInCU: 0x18BFD, offset: 0x18BFD, size: 0x8, addend: 0x0, symName: __ZNSt3__16vectorI6CoordsNS_9allocatorIS1_EEED2B8ue170006Ev, symObjAddr: 0x20C0, symBinAddr: 0x100006614, symSize: 0x44 }
  - { offsetInCU: 0x18C27, offset: 0x18C27, size: 0x8, addend: 0x0, symName: __ZNSt3__16vectorI6CoordsNS_9allocatorIS1_EEE16__destroy_vectorC1B8ue170006ERS4_, symObjAddr: 0x2104, symBinAddr: 0x100006658, symSize: 0x34 }
  - { offsetInCU: 0x18C60, offset: 0x18C60, size: 0x8, addend: 0x0, symName: __ZNSt3__16vectorI6CoordsNS_9allocatorIS1_EEE16__destroy_vectorclB8ue170006Ev, symObjAddr: 0x2138, symBinAddr: 0x10000668C, symSize: 0x90 }
  - { offsetInCU: 0x18C86, offset: 0x18C86, size: 0x8, addend: 0x0, symName: __ZNSt3__16vectorI6CoordsNS_9allocatorIS1_EEE16__destroy_vectorC2B8ue170006ERS4_, symObjAddr: 0x21C8, symBinAddr: 0x10000671C, symSize: 0x20 }
  - { offsetInCU: 0x18CBF, offset: 0x18CBF, size: 0x8, addend: 0x0, symName: __ZNSt3__16vectorI6CoordsNS_9allocatorIS1_EEE7__clearB8ue170006Ev, symObjAddr: 0x21E8, symBinAddr: 0x10000673C, symSize: 0x28 }
  - { offsetInCU: 0x18CE5, offset: 0x18CE5, size: 0x8, addend: 0x0, symName: __ZNKSt3__16vectorI6CoordsNS_9allocatorIS1_EEE17__annotate_deleteB8ue170006Ev, symObjAddr: 0x2210, symBinAddr: 0x100006764, symSize: 0xB8 }
  - { offsetInCU: 0x18D0B, offset: 0x18D0B, size: 0x8, addend: 0x0, symName: __ZNSt3__116allocator_traitsINS_9allocatorI6CoordsEEE10deallocateB8ue170006ERS3_PS2_m, symObjAddr: 0x22C8, symBinAddr: 0x10000681C, symSize: 0x34 }
  - { offsetInCU: 0x18D4D, offset: 0x18D4D, size: 0x8, addend: 0x0, symName: __ZNSt3__16vectorI6CoordsNS_9allocatorIS1_EEE7__allocB8ue170006Ev, symObjAddr: 0x22FC, symBinAddr: 0x100006850, symSize: 0x28 }
  - { offsetInCU: 0x18D73, offset: 0x18D73, size: 0x8, addend: 0x0, symName: __ZNKSt3__16vectorI6CoordsNS_9allocatorIS1_EEE8capacityB8ue170006Ev, symObjAddr: 0x2324, symBinAddr: 0x100006878, symSize: 0x40 }
  - { offsetInCU: 0x18D99, offset: 0x18D99, size: 0x8, addend: 0x0, symName: __ZNSt3__16vectorI6CoordsNS_9allocatorIS1_EEE22__base_destruct_at_endB8ue170006EPS1_, symObjAddr: 0x2364, symBinAddr: 0x1000068B8, symSize: 0x8C }
  - { offsetInCU: 0x18DDD, offset: 0x18DDD, size: 0x8, addend: 0x0, symName: __ZNSt3__116allocator_traitsINS_9allocatorI6CoordsEEE7destroyB8ue170006IS2_vvEEvRS3_PT_, symObjAddr: 0x23F0, symBinAddr: 0x100006944, symSize: 0x28 }
  - { offsetInCU: 0x18E18, offset: 0x18E18, size: 0x8, addend: 0x0, symName: __ZNKSt3__16vectorI6CoordsNS_9allocatorIS1_EEE31__annotate_contiguous_containerB8ue170006EPKvS6_S6_S6_, symObjAddr: 0x2460, symBinAddr: 0x1000069B4, symSize: 0x20 }
  - { offsetInCU: 0x18E6E, offset: 0x18E6E, size: 0x8, addend: 0x0, symName: __ZNKSt3__16vectorI6CoordsNS_9allocatorIS1_EEE4dataB8ue170006Ev, symObjAddr: 0x2480, symBinAddr: 0x1000069D4, symSize: 0x28 }
  - { offsetInCU: 0x18E94, offset: 0x18E94, size: 0x8, addend: 0x0, symName: __ZNSt3__19allocatorI6CoordsE10deallocateB8ue170006EPS1_m, symObjAddr: 0x24A8, symBinAddr: 0x1000069FC, symSize: 0x40 }
  - { offsetInCU: 0x18ED6, offset: 0x18ED6, size: 0x8, addend: 0x0, symName: __ZNSt3__117__compressed_pairIP6CoordsNS_9allocatorIS1_EEE6secondB8ue170006Ev, symObjAddr: 0x2610, symBinAddr: 0x100006B64, symSize: 0x24 }
  - { offsetInCU: 0x18EFC, offset: 0x18EFC, size: 0x8, addend: 0x0, symName: __ZNSt3__122__compressed_pair_elemINS_9allocatorI6CoordsEELi1ELb1EE5__getB8ue170006Ev, symObjAddr: 0x2634, symBinAddr: 0x100006B88, symSize: 0x14 }
  - { offsetInCU: 0x18F22, offset: 0x18F22, size: 0x8, addend: 0x0, symName: __ZNKSt3__16vectorI6CoordsNS_9allocatorIS1_EEE9__end_capB8ue170006Ev, symObjAddr: 0x2648, symBinAddr: 0x100006B9C, symSize: 0x28 }
  - { offsetInCU: 0x18F48, offset: 0x18F48, size: 0x8, addend: 0x0, symName: __ZNKSt3__117__compressed_pairIP6CoordsNS_9allocatorIS1_EEE5firstB8ue170006Ev, symObjAddr: 0x2670, symBinAddr: 0x100006BC4, symSize: 0x24 }
  - { offsetInCU: 0x18F6E, offset: 0x18F6E, size: 0x8, addend: 0x0, symName: __ZNKSt3__122__compressed_pair_elemIP6CoordsLi0ELb0EE5__getB8ue170006Ev, symObjAddr: 0x2694, symBinAddr: 0x100006BE8, symSize: 0x14 }
  - { offsetInCU: 0x18F94, offset: 0x18F94, size: 0x8, addend: 0x0, symName: __ZNSt3__16vectorI6CoordsNS_9allocatorIS1_EEE9__end_capB8ue170006Ev, symObjAddr: 0x26A8, symBinAddr: 0x100006BFC, symSize: 0x28 }
  - { offsetInCU: 0x18FBA, offset: 0x18FBA, size: 0x8, addend: 0x0, symName: __ZNSt3__16vectorI6CoordsNS_9allocatorIS1_EEE22__construct_one_at_endB8ue170006IJRKS1_EEEvDpOT_, symObjAddr: 0x26D0, symBinAddr: 0x100006C24, symSize: 0x90 }
  - { offsetInCU: 0x19009, offset: 0x19009, size: 0x8, addend: 0x0, symName: __ZNSt3__16vectorI6CoordsNS_9allocatorIS1_EEE21__push_back_slow_pathIRKS1_EEvOT_, symObjAddr: 0x2760, symBinAddr: 0x100006CB4, symSize: 0xD8 }
  - { offsetInCU: 0x19067, offset: 0x19067, size: 0x8, addend: 0x0, symName: __ZNSt3__117__compressed_pairIP6CoordsNS_9allocatorIS1_EEE5firstB8ue170006Ev, symObjAddr: 0x2838, symBinAddr: 0x100006D8C, symSize: 0x24 }
  - { offsetInCU: 0x1908D, offset: 0x1908D, size: 0x8, addend: 0x0, symName: __ZNSt3__122__compressed_pair_elemIP6CoordsLi0ELb0EE5__getB8ue170006Ev, symObjAddr: 0x285C, symBinAddr: 0x100006DB0, symSize: 0x14 }
  - { offsetInCU: 0x190CF, offset: 0x190CF, size: 0x8, addend: 0x0, symName: __ZNSt3__16vectorI6CoordsNS_9allocatorIS1_EEE21_ConstructTransactionC1B8ue170006ERS4_m, symObjAddr: 0x2870, symBinAddr: 0x100006DC4, symSize: 0x3C }
  - { offsetInCU: 0x19117, offset: 0x19117, size: 0x8, addend: 0x0, symName: __ZNSt3__116allocator_traitsINS_9allocatorI6CoordsEEE9constructB8ue170006IS2_JRKS2_EvvEEvRS3_PT_DpOT0_, symObjAddr: 0x28AC, symBinAddr: 0x100006E00, symSize: 0x30 }
  - { offsetInCU: 0x1916C, offset: 0x1916C, size: 0x8, addend: 0x0, symName: __ZNSt3__16vectorI6CoordsNS_9allocatorIS1_EEE21_ConstructTransactionD1B8ue170006Ev, symObjAddr: 0x28DC, symBinAddr: 0x100006E30, symSize: 0x2C }
  - { offsetInCU: 0x19196, offset: 0x19196, size: 0x8, addend: 0x0, symName: __ZNSt3__16vectorI6CoordsNS_9allocatorIS1_EEE21_ConstructTransactionC2B8ue170006ERS4_m, symObjAddr: 0x2908, symBinAddr: 0x100006E5C, symSize: 0x44 }
  - { offsetInCU: 0x191DE, offset: 0x191DE, size: 0x8, addend: 0x0, symName: __ZNSt3__16vectorI6CoordsNS_9allocatorIS1_EEE21_ConstructTransactionD2B8ue170006Ev, symObjAddr: 0x2978, symBinAddr: 0x100006ECC, symSize: 0x20 }
  - { offsetInCU: 0x19208, offset: 0x19208, size: 0x8, addend: 0x0, symName: __ZNKSt3__16vectorI6CoordsNS_9allocatorIS1_EEE11__recommendB8ue170006Em, symObjAddr: 0x2998, symBinAddr: 0x100006EEC, symSize: 0xB4 }
  - { offsetInCU: 0x1925D, offset: 0x1925D, size: 0x8, addend: 0x0, symName: __ZNSt3__114__split_bufferI6CoordsRNS_9allocatorIS1_EEEC1EmmS4_, symObjAddr: 0x2A4C, symBinAddr: 0x100006FA0, symSize: 0x44 }
  - { offsetInCU: 0x192B3, offset: 0x192B3, size: 0x8, addend: 0x0, symName: __ZNSt3__114__split_bufferI6CoordsRNS_9allocatorIS1_EEED1Ev, symObjAddr: 0x2BA0, symBinAddr: 0x1000070F4, symSize: 0x2C }
  - { offsetInCU: 0x192DF, offset: 0x192DF, size: 0x8, addend: 0x0, symName: __ZNKSt3__16vectorI6CoordsNS_9allocatorIS1_EEE8max_sizeEv, symObjAddr: 0x2BCC, symBinAddr: 0x100007120, symSize: 0x60 }
  - { offsetInCU: 0x19307, offset: 0x19307, size: 0x8, addend: 0x0, symName: __ZNKSt3__16vectorI6CoordsNS_9allocatorIS1_EEE20__throw_length_errorB8ue170006Ev, symObjAddr: 0x2C2C, symBinAddr: 0x100007180, symSize: 0x1C }
  - { offsetInCU: 0x19338, offset: 0x19338, size: 0x8, addend: 0x0, symName: __ZNSt3__116allocator_traitsINS_9allocatorI6CoordsEEE8max_sizeB8ue170006IS3_vvEEmRKS3_, symObjAddr: 0x2C74, symBinAddr: 0x1000071C8, symSize: 0x28 }
  - { offsetInCU: 0x19364, offset: 0x19364, size: 0x8, addend: 0x0, symName: __ZNKSt3__16vectorI6CoordsNS_9allocatorIS1_EEE7__allocB8ue170006Ev, symObjAddr: 0x2C9C, symBinAddr: 0x1000071F0, symSize: 0x28 }
  - { offsetInCU: 0x1938A, offset: 0x1938A, size: 0x8, addend: 0x0, symName: __ZNSt3__114numeric_limitsIlE3maxB8ue170006Ev, symObjAddr: 0x2CC4, symBinAddr: 0x100007218, symSize: 0x14 }
  - { offsetInCU: 0x1939E, offset: 0x1939E, size: 0x8, addend: 0x0, symName: __ZNSt3__114numeric_limitsImE3maxB8ue170006Ev, symObjAddr: 0x2CD8, symBinAddr: 0x10000722C, symSize: 0x14 }
  - { offsetInCU: 0x193B2, offset: 0x193B2, size: 0x8, addend: 0x0, symName: __ZNSt3__123__libcpp_numeric_limitsImLb1EE3maxB8ue170006Ev, symObjAddr: 0x2CEC, symBinAddr: 0x100007240, symSize: 0x8 }
  - { offsetInCU: 0x193C6, offset: 0x193C6, size: 0x8, addend: 0x0, symName: __ZNKSt3__117__compressed_pairIP6CoordsNS_9allocatorIS1_EEE6secondB8ue170006Ev, symObjAddr: 0x2CF4, symBinAddr: 0x100007248, symSize: 0x24 }
  - { offsetInCU: 0x193EC, offset: 0x193EC, size: 0x8, addend: 0x0, symName: __ZNKSt3__122__compressed_pair_elemINS_9allocatorI6CoordsEELi1ELb1EE5__getB8ue170006Ev, symObjAddr: 0x2D18, symBinAddr: 0x10000726C, symSize: 0x14 }
  - { offsetInCU: 0x19412, offset: 0x19412, size: 0x8, addend: 0x0, symName: __ZNSt3__123__libcpp_numeric_limitsIlLb1EE3maxB8ue170006Ev, symObjAddr: 0x2D2C, symBinAddr: 0x100007280, symSize: 0x8 }
  - { offsetInCU: 0x19426, offset: 0x19426, size: 0x8, addend: 0x0, symName: __ZNSt12length_errorC1B8ue170006EPKc, symObjAddr: 0x2D98, symBinAddr: 0x1000072EC, symSize: 0x34 }
  - { offsetInCU: 0x1945E, offset: 0x1945E, size: 0x8, addend: 0x0, symName: __ZNSt12length_errorC2B8ue170006EPKc, symObjAddr: 0x2DCC, symBinAddr: 0x100007320, symSize: 0x4C }
  - { offsetInCU: 0x194A1, offset: 0x194A1, size: 0x8, addend: 0x0, symName: __ZNKSt3__16__lessIvvEclB8ue170006ImmEEbRKT_RKT0_, symObjAddr: 0x2E6C, symBinAddr: 0x1000073C0, symSize: 0x34 }
  - { offsetInCU: 0x194F5, offset: 0x194F5, size: 0x8, addend: 0x0, symName: __ZNSt3__114__split_bufferI6CoordsRNS_9allocatorIS1_EEEC2EmmS4_, symObjAddr: 0x2EA0, symBinAddr: 0x1000073F4, symSize: 0xD4 }
  - { offsetInCU: 0x19568, offset: 0x19568, size: 0x8, addend: 0x0, symName: __ZNSt3__117__compressed_pairIP6CoordsRNS_9allocatorIS1_EEEC1B8ue170006IDnS5_EEOT_OT0_, symObjAddr: 0x2F74, symBinAddr: 0x1000074C8, symSize: 0x3C }
  - { offsetInCU: 0x195C0, offset: 0x195C0, size: 0x8, addend: 0x0, symName: __ZNSt3__114__split_bufferI6CoordsRNS_9allocatorIS1_EEE7__allocB8ue170006Ev, symObjAddr: 0x2FF0, symBinAddr: 0x100007544, symSize: 0x28 }
  - { offsetInCU: 0x195E6, offset: 0x195E6, size: 0x8, addend: 0x0, symName: __ZNSt3__114__split_bufferI6CoordsRNS_9allocatorIS1_EEE9__end_capB8ue170006Ev, symObjAddr: 0x3018, symBinAddr: 0x10000756C, symSize: 0x28 }
  - { offsetInCU: 0x1960C, offset: 0x1960C, size: 0x8, addend: 0x0, symName: __ZNSt3__117__compressed_pairIP6CoordsRNS_9allocatorIS1_EEEC2B8ue170006IDnS5_EEOT_OT0_, symObjAddr: 0x3040, symBinAddr: 0x100007594, symSize: 0x48 }
  - { offsetInCU: 0x19664, offset: 0x19664, size: 0x8, addend: 0x0, symName: __ZNSt3__122__compressed_pair_elemIRNS_9allocatorI6CoordsEELi1ELb0EEC2B8ue170006IS4_vEEOT_, symObjAddr: 0x3088, symBinAddr: 0x1000075DC, symSize: 0x20 }
  - { offsetInCU: 0x196A6, offset: 0x196A6, size: 0x8, addend: 0x0, symName: __ZNSt3__19allocatorI6CoordsE8allocateB8ue170006Em, symObjAddr: 0x30A8, symBinAddr: 0x1000075FC, symSize: 0x58 }
  - { offsetInCU: 0x196DA, offset: 0x196DA, size: 0x8, addend: 0x0, symName: __ZNSt3__117__compressed_pairIP6CoordsRNS_9allocatorIS1_EEE6secondB8ue170006Ev, symObjAddr: 0x31E4, symBinAddr: 0x100007738, symSize: 0x28 }
  - { offsetInCU: 0x19700, offset: 0x19700, size: 0x8, addend: 0x0, symName: __ZNSt3__122__compressed_pair_elemIRNS_9allocatorI6CoordsEELi1ELb0EE5__getB8ue170006Ev, symObjAddr: 0x320C, symBinAddr: 0x100007760, symSize: 0x18 }
  - { offsetInCU: 0x19726, offset: 0x19726, size: 0x8, addend: 0x0, symName: __ZNSt3__117__compressed_pairIP6CoordsRNS_9allocatorIS1_EEE5firstB8ue170006Ev, symObjAddr: 0x3224, symBinAddr: 0x100007778, symSize: 0x24 }
  - { offsetInCU: 0x1974C, offset: 0x1974C, size: 0x8, addend: 0x0, symName: __ZNSt3__116reverse_iteratorIP6CoordsEC1B8ue170006ES2_, symObjAddr: 0x32C0, symBinAddr: 0x100007814, symSize: 0x34 }
  - { offsetInCU: 0x19784, offset: 0x19784, size: 0x8, addend: 0x0, symName: __ZNKSt3__116reverse_iteratorIP6CoordsE4baseB8ue170006Ev, symObjAddr: 0x32F4, symBinAddr: 0x100007848, symSize: 0x18 }
  - { offsetInCU: 0x197AA, offset: 0x197AA, size: 0x8, addend: 0x0, symName: __ZNKSt3__16vectorI6CoordsNS_9allocatorIS1_EEE14__annotate_newB8ue170006Em, symObjAddr: 0x3348, symBinAddr: 0x10000789C, symSize: 0xAC }
  - { offsetInCU: 0x19807, offset: 0x19807, size: 0x8, addend: 0x0, symName: __ZNKSt3__111__move_loopINS_17_ClassicAlgPolicyEEclB8ue170006INS_16reverse_iteratorIP6CoordsEES7_S7_EENS_4pairIT_T1_EES9_T0_SA_, symObjAddr: 0x36AC, symBinAddr: 0x100007C00, symSize: 0xA0 }
  - { offsetInCU: 0x19872, offset: 0x19872, size: 0x8, addend: 0x0, symName: __ZNSt3__119__unwrap_range_implINS_16reverse_iteratorIP6CoordsEES4_E8__unwrapB8ue170006ES4_S4_, symObjAddr: 0x3898, symBinAddr: 0x100007DEC, symSize: 0x84 }
  - { offsetInCU: 0x198A9, offset: 0x198A9, size: 0x8, addend: 0x0, symName: __ZNSt3__14pairINS_16reverse_iteratorIP6CoordsEES4_EC1B8ue170006IS4_S4_LPv0EEEOT_OT0_, symObjAddr: 0x391C, symBinAddr: 0x100007E70, symSize: 0x3C }
  - { offsetInCU: 0x19907, offset: 0x19907, size: 0x8, addend: 0x0, symName: __ZNSt3__14pairINS_16reverse_iteratorIP6CoordsEES4_EC2B8ue170006IS4_S4_LPv0EEEOT_OT0_, symObjAddr: 0x3958, symBinAddr: 0x100007EAC, symSize: 0x34 }
  - { offsetInCU: 0x19965, offset: 0x19965, size: 0x8, addend: 0x0, symName: __ZNSt3__18_IterOpsINS_17_ClassicAlgPolicyEE11__iter_moveB8ue170006IRNS_16reverse_iteratorIP6CoordsEEEENS_9enable_ifIXsr12is_referenceIDTdeclsr3stdE7declvalIRT_EEEEE5valueEDTclsr3stdE4movedeclsr3stdE7declvalISB_EEEEE4typeEOSA_, symObjAddr: 0x39D4, symBinAddr: 0x100007F28, symSize: 0x28 }
  - { offsetInCU: 0x19991, offset: 0x19991, size: 0x8, addend: 0x0, symName: __ZNKSt3__116reverse_iteratorIP6CoordsEdeB8ue170006Ev, symObjAddr: 0x39FC, symBinAddr: 0x100007F50, symSize: 0x28 }
  - { offsetInCU: 0x199C6, offset: 0x199C6, size: 0x8, addend: 0x0, symName: __ZNSt3__116reverse_iteratorIP6CoordsEppB8ue170006Ev, symObjAddr: 0x3A24, symBinAddr: 0x100007F78, symSize: 0x20 }
  - { offsetInCU: 0x199EC, offset: 0x199EC, size: 0x8, addend: 0x0, symName: __ZNSt3__18_IterOpsINS_17_ClassicAlgPolicyEE25__validate_iter_referenceB8ue170006IRNS_16reverse_iteratorIP6CoordsEEEEvv, symObjAddr: 0x3A44, symBinAddr: 0x100007F98, symSize: 0x4 }
  - { offsetInCU: 0x19A0A, offset: 0x19A0A, size: 0x8, addend: 0x0, symName: __ZNSt3__118__unwrap_iter_implINS_16reverse_iteratorIP6CoordsEELb0EE8__unwrapB8ue170006ES4_, symObjAddr: 0x3A48, symBinAddr: 0x100007F9C, symSize: 0x24 }
  - { offsetInCU: 0x19A2D, offset: 0x19A2D, size: 0x8, addend: 0x0, symName: __ZNSt3__119__unwrap_range_implINS_16reverse_iteratorIP6CoordsEES4_E8__rewrapB8ue170006ES4_S4_, symObjAddr: 0x3A6C, symBinAddr: 0x100007FC0, symSize: 0x5C }
  - { offsetInCU: 0x19A5E, offset: 0x19A5E, size: 0x8, addend: 0x0, symName: __ZNSt3__118__unwrap_iter_implINS_16reverse_iteratorIP6CoordsEELb0EE8__rewrapB8ue170006ES4_S4_, symObjAddr: 0x3AC8, symBinAddr: 0x10000801C, symSize: 0x2C }
  - { offsetInCU: 0x19A8C, offset: 0x19A8C, size: 0x8, addend: 0x0, symName: __ZNSt3__116reverse_iteratorIP6CoordsEC2B8ue170006ES2_, symObjAddr: 0x3AF4, symBinAddr: 0x100008048, symSize: 0x28 }
  - { offsetInCU: 0x19AC4, offset: 0x19AC4, size: 0x8, addend: 0x0, symName: __ZNSt3__114__split_bufferI6CoordsRNS_9allocatorIS1_EEED2Ev, symObjAddr: 0x3B1C, symBinAddr: 0x100008070, symSize: 0x8C }
  - { offsetInCU: 0x19AF0, offset: 0x19AF0, size: 0x8, addend: 0x0, symName: __ZNSt3__114__split_bufferI6CoordsRNS_9allocatorIS1_EEE5clearB8ue170006Ev, symObjAddr: 0x3BA8, symBinAddr: 0x1000080FC, symSize: 0x28 }
  - { offsetInCU: 0x19B16, offset: 0x19B16, size: 0x8, addend: 0x0, symName: __ZNKSt3__114__split_bufferI6CoordsRNS_9allocatorIS1_EEE8capacityB8ue170006Ev, symObjAddr: 0x3BD0, symBinAddr: 0x100008124, symSize: 0x40 }
  - { offsetInCU: 0x19B3C, offset: 0x19B3C, size: 0x8, addend: 0x0, symName: __ZNSt3__114__split_bufferI6CoordsRNS_9allocatorIS1_EEE17__destruct_at_endB8ue170006EPS1_, symObjAddr: 0x3C10, symBinAddr: 0x100008164, symSize: 0x2C }
  - { offsetInCU: 0x19B70, offset: 0x19B70, size: 0x8, addend: 0x0, symName: __ZNSt3__114__split_bufferI6CoordsRNS_9allocatorIS1_EEE17__destruct_at_endB8ue170006EPS1_NS_17integral_constantIbLb0EEE, symObjAddr: 0x3C3C, symBinAddr: 0x100008190, symSize: 0x80 }
  - { offsetInCU: 0x19BB1, offset: 0x19BB1, size: 0x8, addend: 0x0, symName: __ZNKSt3__114__split_bufferI6CoordsRNS_9allocatorIS1_EEE9__end_capB8ue170006Ev, symObjAddr: 0x3CBC, symBinAddr: 0x100008210, symSize: 0x28 }
  - { offsetInCU: 0x19BD7, offset: 0x19BD7, size: 0x8, addend: 0x0, symName: __ZNKSt3__117__compressed_pairIP6CoordsRNS_9allocatorIS1_EEE5firstB8ue170006Ev, symObjAddr: 0x3CE4, symBinAddr: 0x100008238, symSize: 0x24 }
  - { offsetInCU: 0x19BFD, offset: 0x19BFD, size: 0x8, addend: 0x0, symName: __ZNSt3__16vectorI6CoordsNS_9allocatorIS1_EEEC2ERKS4_, symObjAddr: 0x3D08, symBinAddr: 0x10000825C, symSize: 0x94 }
  - { offsetInCU: 0x19C38, offset: 0x19C38, size: 0x8, addend: 0x0, symName: __ZNSt3__116allocator_traitsINS_9allocatorI6CoordsEEE37select_on_container_copy_constructionB8ue170006IS3_vvEES3_RKS3_, symObjAddr: 0x3D9C, symBinAddr: 0x1000082F0, symSize: 0x10 }
  - { offsetInCU: 0x19C6D, offset: 0x19C6D, size: 0x8, addend: 0x0, symName: __ZNSt3__117__compressed_pairIP6CoordsNS_9allocatorIS1_EEEC1B8ue170006IDnS4_EEOT_OT0_, symObjAddr: 0x3DAC, symBinAddr: 0x100008300, symSize: 0x3C }
  - { offsetInCU: 0x19CC5, offset: 0x19CC5, size: 0x8, addend: 0x0, symName: __ZNSt3__16vectorI6CoordsNS_9allocatorIS1_EEE16__init_with_sizeB8ue170006IPS1_S6_EEvT_T0_m, symObjAddr: 0x3DE8, symBinAddr: 0x10000833C, symSize: 0xB8 }
  - { offsetInCU: 0x19D39, offset: 0x19D39, size: 0x8, addend: 0x0, symName: __ZNSt3__117__compressed_pairIP6CoordsNS_9allocatorIS1_EEEC2B8ue170006IDnS4_EEOT_OT0_, symObjAddr: 0x3EA0, symBinAddr: 0x1000083F4, symSize: 0x44 }
  - { offsetInCU: 0x19D91, offset: 0x19D91, size: 0x8, addend: 0x0, symName: __ZNSt3__122__compressed_pair_elemINS_9allocatorI6CoordsEELi1ELb1EEC2B8ue170006IS3_vEEOT_, symObjAddr: 0x3EE4, symBinAddr: 0x100008438, symSize: 0x18 }
  - { offsetInCU: 0x19DD3, offset: 0x19DD3, size: 0x8, addend: 0x0, symName: __ZNSt3__16vectorI6CoordsNS_9allocatorIS1_EEE11__vallocateB8ue170006Em, symObjAddr: 0x3F3C, symBinAddr: 0x100008490, symSize: 0xAC }
  - { offsetInCU: 0x19E17, offset: 0x19E17, size: 0x8, addend: 0x0, symName: __ZNSt3__16vectorI6CoordsNS_9allocatorIS1_EEE18__construct_at_endIPS1_S6_EEvT_T0_m, symObjAddr: 0x3FE8, symBinAddr: 0x10000853C, symSize: 0x8C }
  - { offsetInCU: 0x19E8D, offset: 0x19E8D, size: 0x8, addend: 0x0, symName: __ZNSt3__128__exception_guard_exceptionsINS_6vectorI6CoordsNS_9allocatorIS2_EEE16__destroy_vectorEE10__completeB8ue170006Ev, symObjAddr: 0x4074, symBinAddr: 0x1000085C8, symSize: 0x1C }
  - { offsetInCU: 0x19EB3, offset: 0x19EB3, size: 0x8, addend: 0x0, symName: __ZNSt3__128__exception_guard_exceptionsINS_6vectorI6CoordsNS_9allocatorIS2_EEE16__destroy_vectorEED1B8ue170006Ev, symObjAddr: 0x4090, symBinAddr: 0x1000085E4, symSize: 0x2C }
  - { offsetInCU: 0x19EDD, offset: 0x19EDD, size: 0x8, addend: 0x0, symName: __ZNSt3__128__exception_guard_exceptionsINS_6vectorI6CoordsNS_9allocatorIS2_EEE16__destroy_vectorEEC1B8ue170006ES6_, symObjAddr: 0x40BC, symBinAddr: 0x100008610, symSize: 0x34 }
  - { offsetInCU: 0x19F15, offset: 0x19F15, size: 0x8, addend: 0x0, symName: __ZNSt3__128__exception_guard_exceptionsINS_6vectorI6CoordsNS_9allocatorIS2_EEE16__destroy_vectorEEC2B8ue170006ES6_, symObjAddr: 0x40F0, symBinAddr: 0x100008644, symSize: 0x24 }
  - { offsetInCU: 0x19F6A, offset: 0x19F6A, size: 0x8, addend: 0x0, symName: __ZNSt3__119__unwrap_range_implIP6CoordsS2_E8__unwrapB8ue170006ES2_S2_, symObjAddr: 0x4268, symBinAddr: 0x1000087BC, symSize: 0x58 }
  - { offsetInCU: 0x19FA1, offset: 0x19FA1, size: 0x8, addend: 0x0, symName: __ZNSt3__14pairIP6CoordsS2_EC1B8ue170006IS2_S2_LPv0EEEOT_OT0_, symObjAddr: 0x42C0, symBinAddr: 0x100008814, symSize: 0x3C }
  - { offsetInCU: 0x19FFF, offset: 0x19FFF, size: 0x8, addend: 0x0, symName: __ZNSt3__14pairIP6CoordsS2_EC2B8ue170006IS2_S2_LPv0EEEOT_OT0_, symObjAddr: 0x42FC, symBinAddr: 0x100008850, symSize: 0x34 }
  - { offsetInCU: 0x1A068, offset: 0x1A068, size: 0x8, addend: 0x0, symName: __ZNKSt3__114__copy_trivialclB8ue170006I6CoordsS2_Li0EEENS_4pairIPT_PT0_EES5_S5_S7_, symObjAddr: 0x44AC, symBinAddr: 0x100008A00, symSize: 0x48 }
  - { offsetInCU: 0x1A0D0, offset: 0x1A0D0, size: 0x8, addend: 0x0, symName: __ZNSt3__14pairIP6CoordsS2_EC1B8ue170006IRS2_S2_LPv0EEEOT_OT0_, symObjAddr: 0x4674, symBinAddr: 0x100008BC8, symSize: 0x3C }
  - { offsetInCU: 0x1A12E, offset: 0x1A12E, size: 0x8, addend: 0x0, symName: __ZNSt3__14pairIP6CoordsS2_EC2B8ue170006IRS2_S2_LPv0EEEOT_OT0_, symObjAddr: 0x46B0, symBinAddr: 0x100008C04, symSize: 0x34 }
  - { offsetInCU: 0x1A18C, offset: 0x1A18C, size: 0x8, addend: 0x0, symName: __ZNSt3__119__unwrap_range_implIP6CoordsS2_E8__rewrapB8ue170006ES2_S2_, symObjAddr: 0x46E4, symBinAddr: 0x100008C38, symSize: 0x2C }
  - { offsetInCU: 0x1A1BD, offset: 0x1A1BD, size: 0x8, addend: 0x0, symName: __ZNSt3__118__unwrap_iter_implIP6CoordsLb1EE8__unwrapB8ue170006ES2_, symObjAddr: 0x4710, symBinAddr: 0x100008C64, symSize: 0x24 }
  - { offsetInCU: 0x1A1E0, offset: 0x1A1E0, size: 0x8, addend: 0x0, symName: __ZNSt3__118__unwrap_iter_implIP6CoordsLb1EE8__rewrapB8ue170006ES2_S2_, symObjAddr: 0x4734, symBinAddr: 0x100008C88, symSize: 0x50 }
  - { offsetInCU: 0x1A211, offset: 0x1A211, size: 0x8, addend: 0x0, symName: __ZNSt3__128__exception_guard_exceptionsINS_6vectorI6CoordsNS_9allocatorIS2_EEE16__destroy_vectorEED2B8ue170006Ev, symObjAddr: 0x4784, symBinAddr: 0x100008CD8, symSize: 0x48 }
  - { offsetInCU: 0x1A23B, offset: 0x1A23B, size: 0x8, addend: 0x0, symName: __ZNSt3__16vectorI6CoordsNS_9allocatorIS1_EEE17__destruct_at_endB8ue170006EPS1_, symObjAddr: 0x47CC, symBinAddr: 0x100008D20, symSize: 0x4C }
  - { offsetInCU: 0x1A27F, offset: 0x1A27F, size: 0x8, addend: 0x0, symName: __ZNKSt3__16vectorI6CoordsNS_9allocatorIS1_EEE17__annotate_shrinkB8ue170006Em, symObjAddr: 0x4818, symBinAddr: 0x100008D6C, symSize: 0xB4 }
  - { offsetInCU: 0x1A2B4, offset: 0x1A2B4, size: 0x8, addend: 0x0, symName: __ZNSt3__16vectorI6CoordsNS_9allocatorIS1_EEE13__move_assignERS4_NS_17integral_constantIbLb1EEE, symObjAddr: 0x4920, symBinAddr: 0x100008E74, symSize: 0x94 }
  - { offsetInCU: 0x1A2F7, offset: 0x1A2F7, size: 0x8, addend: 0x0, symName: __ZNSt3__16vectorI6CoordsNS_9allocatorIS1_EEE13__vdeallocateEv, symObjAddr: 0x49B4, symBinAddr: 0x100008F08, symSize: 0x94 }
  - { offsetInCU: 0x1A31F, offset: 0x1A31F, size: 0x8, addend: 0x0, symName: __ZNSt3__16vectorI6CoordsNS_9allocatorIS1_EEE19__move_assign_allocB8ue170006ERS4_, symObjAddr: 0x4A48, symBinAddr: 0x100008F9C, symSize: 0x2C }
  - { offsetInCU: 0x1A354, offset: 0x1A354, size: 0x8, addend: 0x0, symName: __ZNSt3__16vectorI6CoordsNS_9allocatorIS1_EEE5clearB8ue170006Ev, symObjAddr: 0x4A74, symBinAddr: 0x100008FC8, symSize: 0x44 }
  - { offsetInCU: 0x1A389, offset: 0x1A389, size: 0x8, addend: 0x0, symName: __ZNSt3__16vectorI6CoordsNS_9allocatorIS1_EEE19__move_assign_allocB8ue170006ERS4_NS_17integral_constantIbLb1EEE, symObjAddr: 0x4AB8, symBinAddr: 0x10000900C, symSize: 0x38 }
  - { offsetInCU: 0x1A3CA, offset: 0x1A3CA, size: 0x8, addend: 0x0, symName: __ZN9AlgorithmD2Ev, symObjAddr: 0x4AF0, symBinAddr: 0x100009044, symSize: 0x54 }
  - { offsetInCU: 0x1A3F6, offset: 0x1A3F6, size: 0x8, addend: 0x0, symName: __ZNSt3__113unordered_mapI6CoordsfNS_4hashIS1_EENS_8equal_toIS1_EENS_9allocatorINS_4pairIKS1_fEEEEEC2B8ue170006Ev, symObjAddr: 0x4B44, symBinAddr: 0x100009098, symSize: 0x2C }
  - { offsetInCU: 0x1A420, offset: 0x1A420, size: 0x8, addend: 0x0, symName: __ZNSt3__112__hash_tableINS_17__hash_value_typeI6CoordsfEENS_22__unordered_map_hasherIS2_S3_NS_4hashIS2_EENS_8equal_toIS2_EELb1EEENS_21__unordered_map_equalIS2_S3_S8_S6_Lb1EEENS_9allocatorIS3_EEEC1Ev, symObjAddr: 0x4B70, symBinAddr: 0x1000090C4, symSize: 0x2C }
  - { offsetInCU: 0x1A44C, offset: 0x1A44C, size: 0x8, addend: 0x0, symName: __ZNSt3__112__hash_tableINS_17__hash_value_typeI6CoordsfEENS_22__unordered_map_hasherIS2_S3_NS_4hashIS2_EENS_8equal_toIS2_EELb1EEENS_21__unordered_map_equalIS2_S3_S8_S6_Lb1EEENS_9allocatorIS3_EEEC2Ev, symObjAddr: 0x4B9C, symBinAddr: 0x1000090F0, symSize: 0x7C }
  - { offsetInCU: 0x1A478, offset: 0x1A478, size: 0x8, addend: 0x0, symName: __ZNSt3__110unique_ptrIA_PNS_16__hash_node_baseIPNS_11__hash_nodeINS_17__hash_value_typeI6CoordsfEEPvEEEENS_25__bucket_list_deallocatorINS_9allocatorISA_EEEEEC1B8ue170006ILb1EvEEv, symObjAddr: 0x4C18, symBinAddr: 0x10000916C, symSize: 0x2C }
  - { offsetInCU: 0x1A4AD, offset: 0x1A4AD, size: 0x8, addend: 0x0, symName: __ZNSt3__117__compressed_pairINS_16__hash_node_baseIPNS_11__hash_nodeINS_17__hash_value_typeI6CoordsfEEPvEEEENS_9allocatorIS7_EEEC1B8ue170006ILb1EvEEv, symObjAddr: 0x4C44, symBinAddr: 0x100009198, symSize: 0x2C }
  - { offsetInCU: 0x1A4E8, offset: 0x1A4E8, size: 0x8, addend: 0x0, symName: __ZNSt3__117__compressed_pairImNS_22__unordered_map_hasherI6CoordsNS_17__hash_value_typeIS2_fEENS_4hashIS2_EENS_8equal_toIS2_EELb1EEEEC1B8ue170006IiNS_18__default_init_tagEEEOT_OT0_, symObjAddr: 0x4C70, symBinAddr: 0x1000091C4, symSize: 0x3C }
  - { offsetInCU: 0x1A546, offset: 0x1A546, size: 0x8, addend: 0x0, symName: __ZNSt3__117__compressed_pairIfNS_21__unordered_map_equalI6CoordsNS_17__hash_value_typeIS2_fEENS_8equal_toIS2_EENS_4hashIS2_EELb1EEEEC1B8ue170006IfNS_18__default_init_tagEEEOT_OT0_, symObjAddr: 0x4CAC, symBinAddr: 0x100009200, symSize: 0x3C }
  - { offsetInCU: 0x1A59E, offset: 0x1A59E, size: 0x8, addend: 0x0, symName: __ZNSt3__110unique_ptrIA_PNS_16__hash_node_baseIPNS_11__hash_nodeINS_17__hash_value_typeI6CoordsfEEPvEEEENS_25__bucket_list_deallocatorINS_9allocatorISA_EEEEEC2B8ue170006ILb1EvEEv, symObjAddr: 0x4CE8, symBinAddr: 0x10000923C, symSize: 0x3C }
  - { offsetInCU: 0x1A5D9, offset: 0x1A5D9, size: 0x8, addend: 0x0, symName: __ZNSt3__117__compressed_pairIPPNS_16__hash_node_baseIPNS_11__hash_nodeINS_17__hash_value_typeI6CoordsfEEPvEEEENS_25__bucket_list_deallocatorINS_9allocatorISA_EEEEEC1B8ue170006INS_16__value_init_tagESI_EEOT_OT0_, symObjAddr: 0x4D24, symBinAddr: 0x100009278, symSize: 0x3C }
  - { offsetInCU: 0x1A631, offset: 0x1A631, size: 0x8, addend: 0x0, symName: __ZNSt3__117__compressed_pairIPPNS_16__hash_node_baseIPNS_11__hash_nodeINS_17__hash_value_typeI6CoordsfEEPvEEEENS_25__bucket_list_deallocatorINS_9allocatorISA_EEEEEC2B8ue170006INS_16__value_init_tagESI_EEOT_OT0_, symObjAddr: 0x4D60, symBinAddr: 0x1000092B4, symSize: 0x40 }
  - { offsetInCU: 0x1A689, offset: 0x1A689, size: 0x8, addend: 0x0, symName: __ZNSt3__122__compressed_pair_elemIPPNS_16__hash_node_baseIPNS_11__hash_nodeINS_17__hash_value_typeI6CoordsfEEPvEEEELi0ELb0EEC2B8ue170006ENS_16__value_init_tagE, symObjAddr: 0x4DA0, symBinAddr: 0x1000092F4, symSize: 0x18 }
  - { offsetInCU: 0x1A6BE, offset: 0x1A6BE, size: 0x8, addend: 0x0, symName: __ZNSt3__122__compressed_pair_elemINS_25__bucket_list_deallocatorINS_9allocatorIPNS_16__hash_node_baseIPNS_11__hash_nodeINS_17__hash_value_typeI6CoordsfEEPvEEEEEEEELi1ELb0EEC2B8ue170006ENS_16__value_init_tagE, symObjAddr: 0x4DB8, symBinAddr: 0x10000930C, symSize: 0x2C }
  - { offsetInCU: 0x1A6F3, offset: 0x1A6F3, size: 0x8, addend: 0x0, symName: __ZNSt3__125__bucket_list_deallocatorINS_9allocatorIPNS_16__hash_node_baseIPNS_11__hash_nodeINS_17__hash_value_typeI6CoordsfEEPvEEEEEEEC1B8ue170006Ev, symObjAddr: 0x4DE4, symBinAddr: 0x100009338, symSize: 0x2C }
  - { offsetInCU: 0x1A71D, offset: 0x1A71D, size: 0x8, addend: 0x0, symName: __ZNSt3__125__bucket_list_deallocatorINS_9allocatorIPNS_16__hash_node_baseIPNS_11__hash_nodeINS_17__hash_value_typeI6CoordsfEEPvEEEEEEEC2B8ue170006Ev, symObjAddr: 0x4E10, symBinAddr: 0x100009364, symSize: 0x40 }
  - { offsetInCU: 0x1A747, offset: 0x1A747, size: 0x8, addend: 0x0, symName: __ZNSt3__117__compressed_pairImNS_9allocatorIPNS_16__hash_node_baseIPNS_11__hash_nodeINS_17__hash_value_typeI6CoordsfEEPvEEEEEEEC1B8ue170006IiNS_18__default_init_tagEEEOT_OT0_, symObjAddr: 0x4E50, symBinAddr: 0x1000093A4, symSize: 0x3C }
  - { offsetInCU: 0x1A79F, offset: 0x1A79F, size: 0x8, addend: 0x0, symName: __ZNSt3__117__compressed_pairImNS_9allocatorIPNS_16__hash_node_baseIPNS_11__hash_nodeINS_17__hash_value_typeI6CoordsfEEPvEEEEEEEC2B8ue170006IiNS_18__default_init_tagEEEOT_OT0_, symObjAddr: 0x4E8C, symBinAddr: 0x1000093E0, symSize: 0x40 }
  - { offsetInCU: 0x1A7F7, offset: 0x1A7F7, size: 0x8, addend: 0x0, symName: __ZNSt3__122__compressed_pair_elemImLi0ELb0EEC2B8ue170006IivEEOT_, symObjAddr: 0x4ECC, symBinAddr: 0x100009420, symSize: 0x24 }
  - { offsetInCU: 0x1A839, offset: 0x1A839, size: 0x8, addend: 0x0, symName: __ZNSt3__122__compressed_pair_elemINS_9allocatorIPNS_16__hash_node_baseIPNS_11__hash_nodeINS_17__hash_value_typeI6CoordsfEEPvEEEEEELi1ELb1EEC2B8ue170006ENS_18__default_init_tagE, symObjAddr: 0x4EF0, symBinAddr: 0x100009444, symSize: 0x2C }
  - { offsetInCU: 0x1A86E, offset: 0x1A86E, size: 0x8, addend: 0x0, symName: __ZNSt3__19allocatorIPNS_16__hash_node_baseIPNS_11__hash_nodeINS_17__hash_value_typeI6CoordsfEEPvEEEEEC2B8ue170006Ev, symObjAddr: 0x4F1C, symBinAddr: 0x100009470, symSize: 0x2C }
  - { offsetInCU: 0x1A898, offset: 0x1A898, size: 0x8, addend: 0x0, symName: __ZNSt3__116__non_trivial_ifILb1ENS_9allocatorIPNS_16__hash_node_baseIPNS_11__hash_nodeINS_17__hash_value_typeI6CoordsfEEPvEEEEEEEC2B8ue170006Ev, symObjAddr: 0x4F48, symBinAddr: 0x10000949C, symSize: 0x14 }
  - { offsetInCU: 0x1A8C2, offset: 0x1A8C2, size: 0x8, addend: 0x0, symName: __ZNSt3__117__compressed_pairINS_16__hash_node_baseIPNS_11__hash_nodeINS_17__hash_value_typeI6CoordsfEEPvEEEENS_9allocatorIS7_EEEC2B8ue170006ILb1EvEEv, symObjAddr: 0x4F5C, symBinAddr: 0x1000094B0, symSize: 0x34 }
  - { offsetInCU: 0x1A8F7, offset: 0x1A8F7, size: 0x8, addend: 0x0, symName: __ZNSt3__122__compressed_pair_elemINS_16__hash_node_baseIPNS_11__hash_nodeINS_17__hash_value_typeI6CoordsfEEPvEEEELi0ELb0EEC2B8ue170006ENS_16__value_init_tagE, symObjAddr: 0x4F90, symBinAddr: 0x1000094E4, symSize: 0x2C }
  - { offsetInCU: 0x1A92C, offset: 0x1A92C, size: 0x8, addend: 0x0, symName: __ZNSt3__122__compressed_pair_elemINS_9allocatorINS_11__hash_nodeINS_17__hash_value_typeI6CoordsfEEPvEEEELi1ELb1EEC2B8ue170006ENS_16__value_init_tagE, symObjAddr: 0x4FBC, symBinAddr: 0x100009510, symSize: 0x2C }
  - { offsetInCU: 0x1A961, offset: 0x1A961, size: 0x8, addend: 0x0, symName: __ZNSt3__116__hash_node_baseIPNS_11__hash_nodeINS_17__hash_value_typeI6CoordsfEEPvEEEC1B8ue170006Ev, symObjAddr: 0x4FE8, symBinAddr: 0x10000953C, symSize: 0x2C }
  - { offsetInCU: 0x1A98B, offset: 0x1A98B, size: 0x8, addend: 0x0, symName: __ZNSt3__116__hash_node_baseIPNS_11__hash_nodeINS_17__hash_value_typeI6CoordsfEEPvEEEC2B8ue170006Ev, symObjAddr: 0x5014, symBinAddr: 0x100009568, symSize: 0x18 }
  - { offsetInCU: 0x1A9B5, offset: 0x1A9B5, size: 0x8, addend: 0x0, symName: __ZNSt3__19allocatorINS_11__hash_nodeINS_17__hash_value_typeI6CoordsfEEPvEEEC2B8ue170006Ev, symObjAddr: 0x502C, symBinAddr: 0x100009580, symSize: 0x2C }
  - { offsetInCU: 0x1A9DF, offset: 0x1A9DF, size: 0x8, addend: 0x0, symName: __ZNSt3__116__non_trivial_ifILb1ENS_9allocatorINS_11__hash_nodeINS_17__hash_value_typeI6CoordsfEEPvEEEEEC2B8ue170006Ev, symObjAddr: 0x5058, symBinAddr: 0x1000095AC, symSize: 0x14 }
  - { offsetInCU: 0x1AA09, offset: 0x1AA09, size: 0x8, addend: 0x0, symName: __ZNSt3__117__compressed_pairImNS_22__unordered_map_hasherI6CoordsNS_17__hash_value_typeIS2_fEENS_4hashIS2_EENS_8equal_toIS2_EELb1EEEEC2B8ue170006IiNS_18__default_init_tagEEEOT_OT0_, symObjAddr: 0x506C, symBinAddr: 0x1000095C0, symSize: 0x40 }
  - { offsetInCU: 0x1AA61, offset: 0x1AA61, size: 0x8, addend: 0x0, symName: __ZNSt3__122__compressed_pair_elemINS_22__unordered_map_hasherI6CoordsNS_17__hash_value_typeIS2_fEENS_4hashIS2_EENS_8equal_toIS2_EELb1EEELi1ELb1EEC2B8ue170006ENS_18__default_init_tagE, symObjAddr: 0x50AC, symBinAddr: 0x100009600, symSize: 0x2C }
  - { offsetInCU: 0x1AA96, offset: 0x1AA96, size: 0x8, addend: 0x0, symName: __ZNSt3__122__unordered_map_hasherI6CoordsNS_17__hash_value_typeIS1_fEENS_4hashIS1_EENS_8equal_toIS1_EELb1EEC2B8ue170006Ev, symObjAddr: 0x50D8, symBinAddr: 0x10000962C, symSize: 0x14 }
  - { offsetInCU: 0x1AAC0, offset: 0x1AAC0, size: 0x8, addend: 0x0, symName: __ZNSt3__117__compressed_pairIfNS_21__unordered_map_equalI6CoordsNS_17__hash_value_typeIS2_fEENS_8equal_toIS2_EENS_4hashIS2_EELb1EEEEC2B8ue170006IfNS_18__default_init_tagEEEOT_OT0_, symObjAddr: 0x50EC, symBinAddr: 0x100009640, symSize: 0x40 }
  - { offsetInCU: 0x1AB18, offset: 0x1AB18, size: 0x8, addend: 0x0, symName: __ZNSt3__122__compressed_pair_elemIfLi0ELb0EEC2B8ue170006IfvEEOT_, symObjAddr: 0x512C, symBinAddr: 0x100009680, symSize: 0x24 }
  - { offsetInCU: 0x1AB5A, offset: 0x1AB5A, size: 0x8, addend: 0x0, symName: __ZNSt3__122__compressed_pair_elemINS_21__unordered_map_equalI6CoordsNS_17__hash_value_typeIS2_fEENS_8equal_toIS2_EENS_4hashIS2_EELb1EEELi1ELb1EEC2B8ue170006ENS_18__default_init_tagE, symObjAddr: 0x5150, symBinAddr: 0x1000096A4, symSize: 0x2C }
  - { offsetInCU: 0x1AB8F, offset: 0x1AB8F, size: 0x8, addend: 0x0, symName: __ZNSt3__121__unordered_map_equalI6CoordsNS_17__hash_value_typeIS1_fEENS_8equal_toIS1_EENS_4hashIS1_EELb1EEC2B8ue170006Ev, symObjAddr: 0x517C, symBinAddr: 0x1000096D0, symSize: 0x14 }
  - { offsetInCU: 0x1ABB9, offset: 0x1ABB9, size: 0x8, addend: 0x0, symName: __ZNSt3__113unordered_mapI6CoordsfNS_4hashIS1_EENS_8equal_toIS1_EENS_9allocatorINS_4pairIKS1_fEEEEED2B8ue170006Ev, symObjAddr: 0x5190, symBinAddr: 0x1000096E4, symSize: 0x2C }
  - { offsetInCU: 0x1ABE3, offset: 0x1ABE3, size: 0x8, addend: 0x0, symName: __ZNSt3__112__hash_tableINS_17__hash_value_typeI6CoordsfEENS_22__unordered_map_hasherIS2_S3_NS_4hashIS2_EENS_8equal_toIS2_EELb1EEENS_21__unordered_map_equalIS2_S3_S8_S6_Lb1EEENS_9allocatorIS3_EEED1Ev, symObjAddr: 0x51BC, symBinAddr: 0x100009710, symSize: 0x2C }
  - { offsetInCU: 0x1AC0F, offset: 0x1AC0F, size: 0x8, addend: 0x0, symName: __ZNSt3__112__hash_tableINS_17__hash_value_typeI6CoordsfEENS_22__unordered_map_hasherIS2_S3_NS_4hashIS2_EENS_8equal_toIS2_EELb1EEENS_21__unordered_map_equalIS2_S3_S8_S6_Lb1EEENS_9allocatorIS3_EEED2Ev, symObjAddr: 0x51E8, symBinAddr: 0x10000973C, symSize: 0x48 }
  - { offsetInCU: 0x1AC3B, offset: 0x1AC3B, size: 0x8, addend: 0x0, symName: __ZNSt3__112__hash_tableINS_17__hash_value_typeI6CoordsfEENS_22__unordered_map_hasherIS2_S3_NS_4hashIS2_EENS_8equal_toIS2_EELb1EEENS_21__unordered_map_equalIS2_S3_S8_S6_Lb1EEENS_9allocatorIS3_EEE17__deallocate_nodeEPNS_16__hash_node_baseIPNS_11__hash_nodeIS3_PvEEEE, symObjAddr: 0x5230, symBinAddr: 0x100009784, symSize: 0xA8 }
  - { offsetInCU: 0x1ACA5, offset: 0x1ACA5, size: 0x8, addend: 0x0, symName: __ZNSt3__117__compressed_pairINS_16__hash_node_baseIPNS_11__hash_nodeINS_17__hash_value_typeI6CoordsfEEPvEEEENS_9allocatorIS7_EEE5firstB8ue170006Ev, symObjAddr: 0x52D8, symBinAddr: 0x10000982C, symSize: 0x24 }
  - { offsetInCU: 0x1ACCB, offset: 0x1ACCB, size: 0x8, addend: 0x0, symName: __ZNSt3__110unique_ptrIA_PNS_16__hash_node_baseIPNS_11__hash_nodeINS_17__hash_value_typeI6CoordsfEEPvEEEENS_25__bucket_list_deallocatorINS_9allocatorISA_EEEEED1B8ue170006Ev, symObjAddr: 0x52FC, symBinAddr: 0x100009850, symSize: 0x2C }
  - { offsetInCU: 0x1ACF5, offset: 0x1ACF5, size: 0x8, addend: 0x0, symName: __ZNSt3__112__hash_tableINS_17__hash_value_typeI6CoordsfEENS_22__unordered_map_hasherIS2_S3_NS_4hashIS2_EENS_8equal_toIS2_EELb1EEENS_21__unordered_map_equalIS2_S3_S8_S6_Lb1EEENS_9allocatorIS3_EEE12__node_allocB8ue170006Ev, symObjAddr: 0x5328, symBinAddr: 0x10000987C, symSize: 0x28 }
  - { offsetInCU: 0x1AD1B, offset: 0x1AD1B, size: 0x8, addend: 0x0, symName: __ZNSt3__116__hash_node_baseIPNS_11__hash_nodeINS_17__hash_value_typeI6CoordsfEEPvEEE8__upcastB8ue170006Ev, symObjAddr: 0x5350, symBinAddr: 0x1000098A4, symSize: 0x24 }
  - { offsetInCU: 0x1AD41, offset: 0x1AD41, size: 0x8, addend: 0x0, symName: __ZNSt3__116allocator_traitsINS_9allocatorINS_11__hash_nodeINS_17__hash_value_typeI6CoordsfEEPvEEEEE7destroyB8ue170006INS_4pairIKS4_fEEvvEEvRS8_PT_, symObjAddr: 0x5374, symBinAddr: 0x1000098C8, symSize: 0x28 }
  - { offsetInCU: 0x1AD7C, offset: 0x1AD7C, size: 0x8, addend: 0x0, symName: __ZNSt3__122__hash_key_value_typesINS_17__hash_value_typeI6CoordsfEEE9__get_ptrB8ue170006ERS3_, symObjAddr: 0x539C, symBinAddr: 0x1000098F0, symSize: 0x24 }
  - { offsetInCU: 0x1AD9F, offset: 0x1AD9F, size: 0x8, addend: 0x0, symName: __ZNSt3__116allocator_traitsINS_9allocatorINS_11__hash_nodeINS_17__hash_value_typeI6CoordsfEEPvEEEEE10deallocateB8ue170006ERS8_PS7_m, symObjAddr: 0x53C0, symBinAddr: 0x100009914, symSize: 0x34 }
  - { offsetInCU: 0x1ADE1, offset: 0x1ADE1, size: 0x8, addend: 0x0, symName: __ZNSt3__117__compressed_pairINS_16__hash_node_baseIPNS_11__hash_nodeINS_17__hash_value_typeI6CoordsfEEPvEEEENS_9allocatorIS7_EEE6secondB8ue170006Ev, symObjAddr: 0x53F4, symBinAddr: 0x100009948, symSize: 0x24 }
  - { offsetInCU: 0x1AE07, offset: 0x1AE07, size: 0x8, addend: 0x0, symName: __ZNSt3__122__compressed_pair_elemINS_9allocatorINS_11__hash_nodeINS_17__hash_value_typeI6CoordsfEEPvEEEELi1ELb1EE5__getB8ue170006Ev, symObjAddr: 0x5418, symBinAddr: 0x10000996C, symSize: 0x14 }
  - { offsetInCU: 0x1AE2D, offset: 0x1AE2D, size: 0x8, addend: 0x0, symName: __ZNSt3__114pointer_traitsIPNS_16__hash_node_baseIPNS_11__hash_nodeINS_17__hash_value_typeI6CoordsfEEPvEEEEE10pointer_toB8ue170006ERS9_, symObjAddr: 0x542C, symBinAddr: 0x100009980, symSize: 0x14 }
  - { offsetInCU: 0x1AE50, offset: 0x1AE50, size: 0x8, addend: 0x0, symName: __ZNSt3__117__hash_value_typeI6CoordsfE11__get_valueB8ue170006Ev, symObjAddr: 0x5474, symBinAddr: 0x1000099C8, symSize: 0x24 }
  - { offsetInCU: 0x1AE76, offset: 0x1AE76, size: 0x8, addend: 0x0, symName: __ZNSt3__19allocatorINS_11__hash_nodeINS_17__hash_value_typeI6CoordsfEEPvEEE10deallocateB8ue170006EPS6_m, symObjAddr: 0x54D0, symBinAddr: 0x100009A24, symSize: 0x40 }
  - { offsetInCU: 0x1AEB8, offset: 0x1AEB8, size: 0x8, addend: 0x0, symName: __ZNSt3__122__compressed_pair_elemINS_16__hash_node_baseIPNS_11__hash_nodeINS_17__hash_value_typeI6CoordsfEEPvEEEELi0ELb0EE5__getB8ue170006Ev, symObjAddr: 0x5510, symBinAddr: 0x100009A64, symSize: 0x14 }
  - { offsetInCU: 0x1AEDE, offset: 0x1AEDE, size: 0x8, addend: 0x0, symName: __ZNSt3__110unique_ptrIA_PNS_16__hash_node_baseIPNS_11__hash_nodeINS_17__hash_value_typeI6CoordsfEEPvEEEENS_25__bucket_list_deallocatorINS_9allocatorISA_EEEEED2B8ue170006Ev, symObjAddr: 0x5524, symBinAddr: 0x100009A78, symSize: 0x30 }
  - { offsetInCU: 0x1AF08, offset: 0x1AF08, size: 0x8, addend: 0x0, symName: __ZNSt3__110unique_ptrIA_PNS_16__hash_node_baseIPNS_11__hash_nodeINS_17__hash_value_typeI6CoordsfEEPvEEEENS_25__bucket_list_deallocatorINS_9allocatorISA_EEEEE5resetB8ue170006EDn, symObjAddr: 0x5554, symBinAddr: 0x100009AA8, symSize: 0x6C }
  - { offsetInCU: 0x1AF49, offset: 0x1AF49, size: 0x8, addend: 0x0, symName: __ZNSt3__117__compressed_pairIPPNS_16__hash_node_baseIPNS_11__hash_nodeINS_17__hash_value_typeI6CoordsfEEPvEEEENS_25__bucket_list_deallocatorINS_9allocatorISA_EEEEE5firstB8ue170006Ev, symObjAddr: 0x55C0, symBinAddr: 0x100009B14, symSize: 0x24 }
  - { offsetInCU: 0x1AF6F, offset: 0x1AF6F, size: 0x8, addend: 0x0, symName: __ZNSt3__117__compressed_pairIPPNS_16__hash_node_baseIPNS_11__hash_nodeINS_17__hash_value_typeI6CoordsfEEPvEEEENS_25__bucket_list_deallocatorINS_9allocatorISA_EEEEE6secondB8ue170006Ev, symObjAddr: 0x55E4, symBinAddr: 0x100009B38, symSize: 0x28 }
  - { offsetInCU: 0x1AF95, offset: 0x1AF95, size: 0x8, addend: 0x0, symName: __ZNSt3__125__bucket_list_deallocatorINS_9allocatorIPNS_16__hash_node_baseIPNS_11__hash_nodeINS_17__hash_value_typeI6CoordsfEEPvEEEEEEEclB8ue170006EPSB_, symObjAddr: 0x560C, symBinAddr: 0x100009B60, symSize: 0x58 }
  - { offsetInCU: 0x1AFCA, offset: 0x1AFCA, size: 0x8, addend: 0x0, symName: __ZNSt3__122__compressed_pair_elemIPPNS_16__hash_node_baseIPNS_11__hash_nodeINS_17__hash_value_typeI6CoordsfEEPvEEEELi0ELb0EE5__getB8ue170006Ev, symObjAddr: 0x5664, symBinAddr: 0x100009BB8, symSize: 0x14 }
  - { offsetInCU: 0x1AFF0, offset: 0x1AFF0, size: 0x8, addend: 0x0, symName: __ZNSt3__122__compressed_pair_elemINS_25__bucket_list_deallocatorINS_9allocatorIPNS_16__hash_node_baseIPNS_11__hash_nodeINS_17__hash_value_typeI6CoordsfEEPvEEEEEEEELi1ELb0EE5__getB8ue170006Ev, symObjAddr: 0x5678, symBinAddr: 0x100009BCC, symSize: 0x14 }
  - { offsetInCU: 0x1B016, offset: 0x1B016, size: 0x8, addend: 0x0, symName: __ZNSt3__116allocator_traitsINS_9allocatorIPNS_16__hash_node_baseIPNS_11__hash_nodeINS_17__hash_value_typeI6CoordsfEEPvEEEEEEE10deallocateB8ue170006ERSC_PSB_m, symObjAddr: 0x568C, symBinAddr: 0x100009BE0, symSize: 0x34 }
  - { offsetInCU: 0x1B058, offset: 0x1B058, size: 0x8, addend: 0x0, symName: __ZNSt3__125__bucket_list_deallocatorINS_9allocatorIPNS_16__hash_node_baseIPNS_11__hash_nodeINS_17__hash_value_typeI6CoordsfEEPvEEEEEEE7__allocB8ue170006Ev, symObjAddr: 0x56C0, symBinAddr: 0x100009C14, symSize: 0x24 }
  - { offsetInCU: 0x1B07E, offset: 0x1B07E, size: 0x8, addend: 0x0, symName: __ZNSt3__125__bucket_list_deallocatorINS_9allocatorIPNS_16__hash_node_baseIPNS_11__hash_nodeINS_17__hash_value_typeI6CoordsfEEPvEEEEEEE4sizeB8ue170006Ev, symObjAddr: 0x56E4, symBinAddr: 0x100009C38, symSize: 0x24 }
  - { offsetInCU: 0x1B0A4, offset: 0x1B0A4, size: 0x8, addend: 0x0, symName: __ZNSt3__19allocatorIPNS_16__hash_node_baseIPNS_11__hash_nodeINS_17__hash_value_typeI6CoordsfEEPvEEEEE10deallocateB8ue170006EPSA_m, symObjAddr: 0x5708, symBinAddr: 0x100009C5C, symSize: 0x40 }
  - { offsetInCU: 0x1B0E6, offset: 0x1B0E6, size: 0x8, addend: 0x0, symName: __ZNSt3__117__compressed_pairImNS_9allocatorIPNS_16__hash_node_baseIPNS_11__hash_nodeINS_17__hash_value_typeI6CoordsfEEPvEEEEEEE6secondB8ue170006Ev, symObjAddr: 0x5748, symBinAddr: 0x100009C9C, symSize: 0x24 }
  - { offsetInCU: 0x1B10C, offset: 0x1B10C, size: 0x8, addend: 0x0, symName: __ZNSt3__122__compressed_pair_elemINS_9allocatorIPNS_16__hash_node_baseIPNS_11__hash_nodeINS_17__hash_value_typeI6CoordsfEEPvEEEEEELi1ELb1EE5__getB8ue170006Ev, symObjAddr: 0x576C, symBinAddr: 0x100009CC0, symSize: 0x14 }
  - { offsetInCU: 0x1B132, offset: 0x1B132, size: 0x8, addend: 0x0, symName: __ZNSt3__117__compressed_pairImNS_9allocatorIPNS_16__hash_node_baseIPNS_11__hash_nodeINS_17__hash_value_typeI6CoordsfEEPvEEEEEEE5firstB8ue170006Ev, symObjAddr: 0x5780, symBinAddr: 0x100009CD4, symSize: 0x24 }
  - { offsetInCU: 0x1B158, offset: 0x1B158, size: 0x8, addend: 0x0, symName: __ZNSt3__122__compressed_pair_elemImLi0ELb0EE5__getB8ue170006Ev, symObjAddr: 0x57A4, symBinAddr: 0x100009CF8, symSize: 0x14 }
  - { offsetInCU: 0x1B196, offset: 0x1B196, size: 0x8, addend: 0x0, symName: __ZNSt3__112__hash_tableINS_17__hash_value_typeI6CoordsfEENS_22__unordered_map_hasherIS2_S3_NS_4hashIS2_EENS_8equal_toIS2_EELb1EEENS_21__unordered_map_equalIS2_S3_S8_S6_Lb1EEENS_9allocatorIS3_EEE25__emplace_unique_key_argsIS2_JRKNS_21piecewise_construct_tENS_5tupleIJOS2_EEENSJ_IJEEEEEENS_4pairINS_15__hash_iteratorIPNS_11__hash_nodeIS3_PvEEEEbEERKT_DpOT0_, symObjAddr: 0x57B8, symBinAddr: 0x100009D0C, symSize: 0x4E8 }
  - { offsetInCU: 0x1B2A0, offset: 0x1B2A0, size: 0x8, addend: 0x0, symName: __ZNKSt3__115__hash_iteratorIPNS_11__hash_nodeINS_17__hash_value_typeI6CoordsfEEPvEEEptB8ue170006Ev, symObjAddr: 0x5CD0, symBinAddr: 0x10000A224, symSize: 0x30 }
  - { offsetInCU: 0x1B2C6, offset: 0x1B2C6, size: 0x8, addend: 0x0, symName: __ZNSt3__112__hash_tableINS_17__hash_value_typeI6CoordsfEENS_22__unordered_map_hasherIS2_S3_NS_4hashIS2_EENS_8equal_toIS2_EELb1EEENS_21__unordered_map_equalIS2_S3_S8_S6_Lb1EEENS_9allocatorIS3_EEE13hash_functionB8ue170006Ev, symObjAddr: 0x5D00, symBinAddr: 0x10000A254, symSize: 0x28 }
  - { offsetInCU: 0x1B2EC, offset: 0x1B2EC, size: 0x8, addend: 0x0, symName: __ZNKSt3__122__unordered_map_hasherI6CoordsNS_17__hash_value_typeIS1_fEENS_4hashIS1_EENS_8equal_toIS1_EELb1EEclB8ue170006ERKS1_, symObjAddr: 0x5D28, symBinAddr: 0x10000A27C, symSize: 0x2C }
  - { offsetInCU: 0x1B321, offset: 0x1B321, size: 0x8, addend: 0x0, symName: __ZNKSt3__112__hash_tableINS_17__hash_value_typeI6CoordsfEENS_22__unordered_map_hasherIS2_S3_NS_4hashIS2_EENS_8equal_toIS2_EELb1EEENS_21__unordered_map_equalIS2_S3_S8_S6_Lb1EEENS_9allocatorIS3_EEE12bucket_countB8ue170006Ev, symObjAddr: 0x5D54, symBinAddr: 0x10000A2A8, symSize: 0x28 }
  - { offsetInCU: 0x1B347, offset: 0x1B347, size: 0x8, addend: 0x0, symName: __ZNKSt3__110unique_ptrIA_PNS_16__hash_node_baseIPNS_11__hash_nodeINS_17__hash_value_typeI6CoordsfEEPvEEEENS_25__bucket_list_deallocatorINS_9allocatorISA_EEEEEixB8ue170006Em, symObjAddr: 0x5E14, symBinAddr: 0x10000A368, symSize: 0x34 }
  - { offsetInCU: 0x1B37C, offset: 0x1B37C, size: 0x8, addend: 0x0, symName: __ZNKSt3__116__hash_node_baseIPNS_11__hash_nodeINS_17__hash_value_typeI6CoordsfEEPvEEE6__hashB8ue170006Ev, symObjAddr: 0x5E48, symBinAddr: 0x10000A39C, symSize: 0x18 }
  - { offsetInCU: 0x1B3A2, offset: 0x1B3A2, size: 0x8, addend: 0x0, symName: __ZNSt3__112__hash_tableINS_17__hash_value_typeI6CoordsfEENS_22__unordered_map_hasherIS2_S3_NS_4hashIS2_EENS_8equal_toIS2_EELb1EEENS_21__unordered_map_equalIS2_S3_S8_S6_Lb1EEENS_9allocatorIS3_EEE6key_eqB8ue170006Ev, symObjAddr: 0x5E60, symBinAddr: 0x10000A3B4, symSize: 0x28 }
  - { offsetInCU: 0x1B3C8, offset: 0x1B3C8, size: 0x8, addend: 0x0, symName: __ZNKSt3__121__unordered_map_equalI6CoordsNS_17__hash_value_typeIS1_fEENS_8equal_toIS1_EENS_4hashIS1_EELb1EEclB8ue170006ERKS3_RKS1_, symObjAddr: 0x5E88, symBinAddr: 0x10000A3DC, symSize: 0x48 }
  - { offsetInCU: 0x1B40C, offset: 0x1B40C, size: 0x8, addend: 0x0, symName: __ZNSt3__112__hash_tableINS_17__hash_value_typeI6CoordsfEENS_22__unordered_map_hasherIS2_S3_NS_4hashIS2_EENS_8equal_toIS2_EELb1EEENS_21__unordered_map_equalIS2_S3_S8_S6_Lb1EEENS_9allocatorIS3_EEE21__construct_node_hashIRKNS_21piecewise_construct_tEJNS_5tupleIJOS2_EEENSJ_IJEEEEEENS_10unique_ptrINS_11__hash_nodeIS3_PvEENS_22__hash_node_destructorINSC_ISQ_EEEEEEmOT_DpOT0_, symObjAddr: 0x5ED0, symBinAddr: 0x10000A424, symSize: 0x150 }
  - { offsetInCU: 0x1B4A8, offset: 0x1B4A8, size: 0x8, addend: 0x0, symName: __ZNSt3__112__hash_tableINS_17__hash_value_typeI6CoordsfEENS_22__unordered_map_hasherIS2_S3_NS_4hashIS2_EENS_8equal_toIS2_EELb1EEENS_21__unordered_map_equalIS2_S3_S8_S6_Lb1EEENS_9allocatorIS3_EEE4sizeB8ue170006Ev, symObjAddr: 0x6020, symBinAddr: 0x10000A574, symSize: 0x28 }
  - { offsetInCU: 0x1B4CE, offset: 0x1B4CE, size: 0x8, addend: 0x0, symName: __ZNSt3__112__hash_tableINS_17__hash_value_typeI6CoordsfEENS_22__unordered_map_hasherIS2_S3_NS_4hashIS2_EENS_8equal_toIS2_EELb1EEENS_21__unordered_map_equalIS2_S3_S8_S6_Lb1EEENS_9allocatorIS3_EEE15max_load_factorB8ue170006Ev, symObjAddr: 0x6048, symBinAddr: 0x10000A59C, symSize: 0x28 }
  - { offsetInCU: 0x1B4F4, offset: 0x1B4F4, size: 0x8, addend: 0x0, symName: __ZNSt3__112__hash_tableINS_17__hash_value_typeI6CoordsfEENS_22__unordered_map_hasherIS2_S3_NS_4hashIS2_EENS_8equal_toIS2_EELb1EEENS_21__unordered_map_equalIS2_S3_S8_S6_Lb1EEENS_9allocatorIS3_EEE15__rehash_uniqueB8ue170006Em, symObjAddr: 0x6070, symBinAddr: 0x10000A5C4, symSize: 0x2C }
  - { offsetInCU: 0x1B528, offset: 0x1B528, size: 0x8, addend: 0x0, symName: __Z4ceilB8ue170006f, symObjAddr: 0x60EC, symBinAddr: 0x10000A640, symSize: 0x18 }
  - { offsetInCU: 0x1B557, offset: 0x1B557, size: 0x8, addend: 0x0, symName: __ZNSt3__116__hash_node_baseIPNS_11__hash_nodeINS_17__hash_value_typeI6CoordsfEEPvEEE5__ptrB8ue170006Ev, symObjAddr: 0x6104, symBinAddr: 0x10000A658, symSize: 0x24 }
  - { offsetInCU: 0x1B57D, offset: 0x1B57D, size: 0x8, addend: 0x0, symName: __ZNKSt3__110unique_ptrINS_11__hash_nodeINS_17__hash_value_typeI6CoordsfEEPvEENS_22__hash_node_destructorINS_9allocatorIS6_EEEEEptB8ue170006Ev, symObjAddr: 0x6128, symBinAddr: 0x10000A67C, symSize: 0x28 }
  - { offsetInCU: 0x1B5A3, offset: 0x1B5A3, size: 0x8, addend: 0x0, symName: __ZNKSt3__110unique_ptrINS_11__hash_nodeINS_17__hash_value_typeI6CoordsfEEPvEENS_22__hash_node_destructorINS_9allocatorIS6_EEEEE3getB8ue170006Ev, symObjAddr: 0x6150, symBinAddr: 0x10000A6A4, symSize: 0x28 }
  - { offsetInCU: 0x1B5C9, offset: 0x1B5C9, size: 0x8, addend: 0x0, symName: __ZNSt3__110unique_ptrINS_11__hash_nodeINS_17__hash_value_typeI6CoordsfEEPvEENS_22__hash_node_destructorINS_9allocatorIS6_EEEEE7releaseB8ue170006Ev, symObjAddr: 0x6178, symBinAddr: 0x10000A6CC, symSize: 0x44 }
  - { offsetInCU: 0x1B5FE, offset: 0x1B5FE, size: 0x8, addend: 0x0, symName: __ZNSt3__110unique_ptrINS_11__hash_nodeINS_17__hash_value_typeI6CoordsfEEPvEENS_22__hash_node_destructorINS_9allocatorIS6_EEEEED1B8ue170006Ev, symObjAddr: 0x61BC, symBinAddr: 0x10000A710, symSize: 0x2C }
  - { offsetInCU: 0x1B628, offset: 0x1B628, size: 0x8, addend: 0x0, symName: __ZNSt3__115__hash_iteratorIPNS_11__hash_nodeINS_17__hash_value_typeI6CoordsfEEPvEEEC1B8ue170006EPNS_16__hash_node_baseIS7_EE, symObjAddr: 0x61E8, symBinAddr: 0x10000A73C, symSize: 0x34 }
  - { offsetInCU: 0x1B66D, offset: 0x1B66D, size: 0x8, addend: 0x0, symName: __ZNSt3__14pairINS_15__hash_iteratorIPNS_11__hash_nodeINS_17__hash_value_typeI6CoordsfEEPvEEEEbEC1B8ue170006IS9_RbLS6_0EEEOT_OT0_, symObjAddr: 0x621C, symBinAddr: 0x10000A770, symSize: 0x3C }
  - { offsetInCU: 0x1B6CB, offset: 0x1B6CB, size: 0x8, addend: 0x0, symName: __ZNSt3__117__compressed_pairImNS_22__unordered_map_hasherI6CoordsNS_17__hash_value_typeIS2_fEENS_4hashIS2_EENS_8equal_toIS2_EELb1EEEE6secondB8ue170006Ev, symObjAddr: 0x6258, symBinAddr: 0x10000A7AC, symSize: 0x24 }
  - { offsetInCU: 0x1B6F1, offset: 0x1B6F1, size: 0x8, addend: 0x0, symName: __ZNSt3__122__compressed_pair_elemINS_22__unordered_map_hasherI6CoordsNS_17__hash_value_typeIS2_fEENS_4hashIS2_EENS_8equal_toIS2_EELb1EEELi1ELb1EE5__getB8ue170006Ev, symObjAddr: 0x627C, symBinAddr: 0x10000A7D0, symSize: 0x14 }
  - { offsetInCU: 0x1B717, offset: 0x1B717, size: 0x8, addend: 0x0, symName: __ZNKSt3__110unique_ptrIA_PNS_16__hash_node_baseIPNS_11__hash_nodeINS_17__hash_value_typeI6CoordsfEEPvEEEENS_25__bucket_list_deallocatorINS_9allocatorISA_EEEEE11get_deleterB8ue170006Ev, symObjAddr: 0x6290, symBinAddr: 0x10000A7E4, symSize: 0x24 }
  - { offsetInCU: 0x1B73D, offset: 0x1B73D, size: 0x8, addend: 0x0, symName: __ZNKSt3__125__bucket_list_deallocatorINS_9allocatorIPNS_16__hash_node_baseIPNS_11__hash_nodeINS_17__hash_value_typeI6CoordsfEEPvEEEEEEE4sizeB8ue170006Ev, symObjAddr: 0x62B4, symBinAddr: 0x10000A808, symSize: 0x28 }
  - { offsetInCU: 0x1B763, offset: 0x1B763, size: 0x8, addend: 0x0, symName: __ZNKSt3__117__compressed_pairIPPNS_16__hash_node_baseIPNS_11__hash_nodeINS_17__hash_value_typeI6CoordsfEEPvEEEENS_25__bucket_list_deallocatorINS_9allocatorISA_EEEEE6secondB8ue170006Ev, symObjAddr: 0x62DC, symBinAddr: 0x10000A830, symSize: 0x28 }
  - { offsetInCU: 0x1B789, offset: 0x1B789, size: 0x8, addend: 0x0, symName: __ZNKSt3__122__compressed_pair_elemINS_25__bucket_list_deallocatorINS_9allocatorIPNS_16__hash_node_baseIPNS_11__hash_nodeINS_17__hash_value_typeI6CoordsfEEPvEEEEEEEELi1ELb0EE5__getB8ue170006Ev, symObjAddr: 0x6304, symBinAddr: 0x10000A858, symSize: 0x14 }
  - { offsetInCU: 0x1B7AF, offset: 0x1B7AF, size: 0x8, addend: 0x0, symName: __ZNKSt3__117__compressed_pairImNS_9allocatorIPNS_16__hash_node_baseIPNS_11__hash_nodeINS_17__hash_value_typeI6CoordsfEEPvEEEEEEE5firstB8ue170006Ev, symObjAddr: 0x6318, symBinAddr: 0x10000A86C, symSize: 0x24 }
  - { offsetInCU: 0x1B7D5, offset: 0x1B7D5, size: 0x8, addend: 0x0, symName: __ZNKSt3__122__compressed_pair_elemImLi0ELb0EE5__getB8ue170006Ev, symObjAddr: 0x633C, symBinAddr: 0x10000A890, symSize: 0x14 }
  - { offsetInCU: 0x1B7FB, offset: 0x1B7FB, size: 0x8, addend: 0x0, symName: __ZNKSt3__117__compressed_pairIPPNS_16__hash_node_baseIPNS_11__hash_nodeINS_17__hash_value_typeI6CoordsfEEPvEEEENS_25__bucket_list_deallocatorINS_9allocatorISA_EEEEE5firstB8ue170006Ev, symObjAddr: 0x6350, symBinAddr: 0x10000A8A4, symSize: 0x24 }
  - { offsetInCU: 0x1B821, offset: 0x1B821, size: 0x8, addend: 0x0, symName: __ZNKSt3__122__compressed_pair_elemIPPNS_16__hash_node_baseIPNS_11__hash_nodeINS_17__hash_value_typeI6CoordsfEEPvEEEELi0ELb0EE5__getB8ue170006Ev, symObjAddr: 0x6374, symBinAddr: 0x10000A8C8, symSize: 0x14 }
  - { offsetInCU: 0x1B847, offset: 0x1B847, size: 0x8, addend: 0x0, symName: __ZNSt3__117__compressed_pairIfNS_21__unordered_map_equalI6CoordsNS_17__hash_value_typeIS2_fEENS_8equal_toIS2_EENS_4hashIS2_EELb1EEEE6secondB8ue170006Ev, symObjAddr: 0x6388, symBinAddr: 0x10000A8DC, symSize: 0x24 }
  - { offsetInCU: 0x1B86D, offset: 0x1B86D, size: 0x8, addend: 0x0, symName: __ZNSt3__122__compressed_pair_elemINS_21__unordered_map_equalI6CoordsNS_17__hash_value_typeIS2_fEENS_8equal_toIS2_EENS_4hashIS2_EELb1EEELi1ELb1EE5__getB8ue170006Ev, symObjAddr: 0x63AC, symBinAddr: 0x10000A900, symSize: 0x14 }
  - { offsetInCU: 0x1B893, offset: 0x1B893, size: 0x8, addend: 0x0, symName: __ZNKSt3__18equal_toI6CoordsEclB8ue170006ERKS1_S4_, symObjAddr: 0x63C0, symBinAddr: 0x10000A914, symSize: 0x34 }
  - { offsetInCU: 0x1B8D7, offset: 0x1B8D7, size: 0x8, addend: 0x0, symName: __ZNKSt3__117__hash_value_typeI6CoordsfE11__get_valueB8ue170006Ev, symObjAddr: 0x63F4, symBinAddr: 0x10000A948, symSize: 0x24 }
  - { offsetInCU: 0x1B8FD, offset: 0x1B8FD, size: 0x8, addend: 0x0, symName: __ZNSt3__116allocator_traitsINS_9allocatorINS_11__hash_nodeINS_17__hash_value_typeI6CoordsfEEPvEEEEE8allocateB8ue170006ERS8_m, symObjAddr: 0x6450, symBinAddr: 0x10000A9A4, symSize: 0x2C }
  - { offsetInCU: 0x1B930, offset: 0x1B930, size: 0x8, addend: 0x0, symName: __ZNSt3__122__hash_node_destructorINS_9allocatorINS_11__hash_nodeINS_17__hash_value_typeI6CoordsfEEPvEEEEEC1B8ue170006ERS8_b, symObjAddr: 0x647C, symBinAddr: 0x10000A9D0, symSize: 0x48 }
  - { offsetInCU: 0x1B97E, offset: 0x1B97E, size: 0x8, addend: 0x0, symName: __ZNSt3__110unique_ptrINS_11__hash_nodeINS_17__hash_value_typeI6CoordsfEEPvEENS_22__hash_node_destructorINS_9allocatorIS6_EEEEEC1B8ue170006ILb1EvEEPS6_NS_16__dependent_typeINS_27__unique_ptr_deleter_sfinaeISA_EEXT_EE20__good_rval_ref_typeE, symObjAddr: 0x64C4, symBinAddr: 0x10000AA18, symSize: 0x3C }
  - { offsetInCU: 0x1B9CF, offset: 0x1B9CF, size: 0x8, addend: 0x0, symName: __ZNSt3__116allocator_traitsINS_9allocatorINS_11__hash_nodeINS_17__hash_value_typeI6CoordsfEEPvEEEEE9constructB8ue170006INS_4pairIKS4_fEEJRKNS_21piecewise_construct_tENS_5tupleIJOS4_EEENSH_IJEEEEvvEEvRS8_PT_DpOT0_, symObjAddr: 0x6500, symBinAddr: 0x10000AA54, symSize: 0x40 }
  - { offsetInCU: 0x1BA4C, offset: 0x1BA4C, size: 0x8, addend: 0x0, symName: __ZNSt3__110unique_ptrINS_11__hash_nodeINS_17__hash_value_typeI6CoordsfEEPvEENS_22__hash_node_destructorINS_9allocatorIS6_EEEEE11get_deleterB8ue170006Ev, symObjAddr: 0x6540, symBinAddr: 0x10000AA94, symSize: 0x24 }
  - { offsetInCU: 0x1BA72, offset: 0x1BA72, size: 0x8, addend: 0x0, symName: __ZNSt3__19allocatorINS_11__hash_nodeINS_17__hash_value_typeI6CoordsfEEPvEEE8allocateB8ue170006Em, symObjAddr: 0x6564, symBinAddr: 0x10000AAB8, symSize: 0x58 }
  - { offsetInCU: 0x1BAB1, offset: 0x1BAB1, size: 0x8, addend: 0x0, symName: __ZNSt3__116allocator_traitsINS_9allocatorINS_11__hash_nodeINS_17__hash_value_typeI6CoordsfEEPvEEEEE8max_sizeB8ue170006IS8_vvEEmRKS8_, symObjAddr: 0x65BC, symBinAddr: 0x10000AB10, symSize: 0x28 }
  - { offsetInCU: 0x1BADD, offset: 0x1BADD, size: 0x8, addend: 0x0, symName: __ZNSt3__122__hash_node_destructorINS_9allocatorINS_11__hash_nodeINS_17__hash_value_typeI6CoordsfEEPvEEEEEC2B8ue170006ERS8_b, symObjAddr: 0x65E4, symBinAddr: 0x10000AB38, symSize: 0x38 }
  - { offsetInCU: 0x1BB25, offset: 0x1BB25, size: 0x8, addend: 0x0, symName: __ZNSt3__110unique_ptrINS_11__hash_nodeINS_17__hash_value_typeI6CoordsfEEPvEENS_22__hash_node_destructorINS_9allocatorIS6_EEEEEC2B8ue170006ILb1EvEEPS6_NS_16__dependent_typeINS_27__unique_ptr_deleter_sfinaeISA_EEXT_EE20__good_rval_ref_typeE, symObjAddr: 0x661C, symBinAddr: 0x10000AB70, symSize: 0x48 }
  - { offsetInCU: 0x1BB76, offset: 0x1BB76, size: 0x8, addend: 0x0, symName: __ZNSt3__117__compressed_pairIPNS_11__hash_nodeINS_17__hash_value_typeI6CoordsfEEPvEENS_22__hash_node_destructorINS_9allocatorIS6_EEEEEC1B8ue170006IRS7_SB_EEOT_OT0_, symObjAddr: 0x6664, symBinAddr: 0x10000ABB8, symSize: 0x3C }
  - { offsetInCU: 0x1BBCE, offset: 0x1BBCE, size: 0x8, addend: 0x0, symName: __ZNSt3__117__compressed_pairIPNS_11__hash_nodeINS_17__hash_value_typeI6CoordsfEEPvEENS_22__hash_node_destructorINS_9allocatorIS6_EEEEEC2B8ue170006IRS7_SB_EEOT_OT0_, symObjAddr: 0x66A0, symBinAddr: 0x10000ABF4, symSize: 0x48 }
  - { offsetInCU: 0x1BC26, offset: 0x1BC26, size: 0x8, addend: 0x0, symName: __ZNSt3__122__compressed_pair_elemIPNS_11__hash_nodeINS_17__hash_value_typeI6CoordsfEEPvEELi0ELb0EEC2B8ue170006IRS7_vEEOT_, symObjAddr: 0x66E8, symBinAddr: 0x10000AC3C, symSize: 0x24 }
  - { offsetInCU: 0x1BC68, offset: 0x1BC68, size: 0x8, addend: 0x0, symName: __ZNSt3__122__compressed_pair_elemINS_22__hash_node_destructorINS_9allocatorINS_11__hash_nodeINS_17__hash_value_typeI6CoordsfEEPvEEEEEELi1ELb0EEC2B8ue170006ISA_vEEOT_, symObjAddr: 0x670C, symBinAddr: 0x10000AC60, symSize: 0x24 }
  - { offsetInCU: 0x1BCAA, offset: 0x1BCAA, size: 0x8, addend: 0x0, symName: __ZNSt3__14pairIK6CoordsfEC1B8ue170006IJOS1_EJEEENS_21piecewise_construct_tENS_5tupleIJDpT_EEENS7_IJDpT0_EEE, symObjAddr: 0x6780, symBinAddr: 0x10000ACD4, symSize: 0x44 }
  - { offsetInCU: 0x1BD11, offset: 0x1BD11, size: 0x8, addend: 0x0, symName: __ZNSt3__14pairIK6CoordsfEC1B8ue170006IJOS1_EJEJLm0EEJEEENS_21piecewise_construct_tERNS_5tupleIJDpT_EEERNS7_IJDpT0_EEENS_15__tuple_indicesIJXspT1_EEEENSG_IJXspT2_EEEE, symObjAddr: 0x67C4, symBinAddr: 0x10000AD18, symSize: 0x3C }
  - { offsetInCU: 0x1BDA1, offset: 0x1BDA1, size: 0x8, addend: 0x0, symName: __ZNSt3__14pairIK6CoordsfEC2B8ue170006IJOS1_EJEJLm0EEJEEENS_21piecewise_construct_tERNS_5tupleIJDpT_EEERNS7_IJDpT0_EEENS_15__tuple_indicesIJXspT1_EEEENSG_IJXspT2_EEEE, symObjAddr: 0x6800, symBinAddr: 0x10000AD54, symSize: 0x4C }
  - { offsetInCU: 0x1BE31, offset: 0x1BE31, size: 0x8, addend: 0x0, symName: __ZNSt3__112__tuple_leafILm0EO6CoordsLb0EE3getB8ue170006Ev, symObjAddr: 0x6870, symBinAddr: 0x10000ADC4, symSize: 0x18 }
  - { offsetInCU: 0x1BE57, offset: 0x1BE57, size: 0x8, addend: 0x0, symName: __ZNSt3__117__compressed_pairIPNS_11__hash_nodeINS_17__hash_value_typeI6CoordsfEEPvEENS_22__hash_node_destructorINS_9allocatorIS6_EEEEE6secondB8ue170006Ev, symObjAddr: 0x6888, symBinAddr: 0x10000ADDC, symSize: 0x28 }
  - { offsetInCU: 0x1BE7D, offset: 0x1BE7D, size: 0x8, addend: 0x0, symName: __ZNSt3__122__compressed_pair_elemINS_22__hash_node_destructorINS_9allocatorINS_11__hash_nodeINS_17__hash_value_typeI6CoordsfEEPvEEEEEELi1ELb0EE5__getB8ue170006Ev, symObjAddr: 0x68B0, symBinAddr: 0x10000AE04, symSize: 0x14 }
  - { offsetInCU: 0x1BEA3, offset: 0x1BEA3, size: 0x8, addend: 0x0, symName: __ZNSt3__117__compressed_pairImNS_22__unordered_map_hasherI6CoordsNS_17__hash_value_typeIS2_fEENS_4hashIS2_EENS_8equal_toIS2_EELb1EEEE5firstB8ue170006Ev, symObjAddr: 0x68C4, symBinAddr: 0x10000AE18, symSize: 0x24 }
  - { offsetInCU: 0x1BEC9, offset: 0x1BEC9, size: 0x8, addend: 0x0, symName: __ZNSt3__117__compressed_pairIfNS_21__unordered_map_equalI6CoordsNS_17__hash_value_typeIS2_fEENS_8equal_toIS2_EENS_4hashIS2_EELb1EEEE5firstB8ue170006Ev, symObjAddr: 0x68E8, symBinAddr: 0x10000AE3C, symSize: 0x24 }
  - { offsetInCU: 0x1BEEF, offset: 0x1BEEF, size: 0x8, addend: 0x0, symName: __ZNSt3__122__compressed_pair_elemIfLi0ELb0EE5__getB8ue170006Ev, symObjAddr: 0x690C, symBinAddr: 0x10000AE60, symSize: 0x14 }
  - { offsetInCU: 0x1BF15, offset: 0x1BF15, size: 0x8, addend: 0x0, symName: __ZNSt3__112__hash_tableINS_17__hash_value_typeI6CoordsfEENS_22__unordered_map_hasherIS2_S3_NS_4hashIS2_EENS_8equal_toIS2_EELb1EEENS_21__unordered_map_equalIS2_S3_S8_S6_Lb1EEENS_9allocatorIS3_EEE8__rehashILb1EEEvm, symObjAddr: 0x6920, symBinAddr: 0x10000AE74, symSize: 0x1A8 }
  - { offsetInCU: 0x1BF65, offset: 0x1BF65, size: 0x8, addend: 0x0, symName: __ZNSt3__112__hash_tableINS_17__hash_value_typeI6CoordsfEENS_22__unordered_map_hasherIS2_S3_NS_4hashIS2_EENS_8equal_toIS2_EELb1EEENS_21__unordered_map_equalIS2_S3_S8_S6_Lb1EEENS_9allocatorIS3_EEE11__do_rehashILb1EEEvm, symObjAddr: 0x6AC8, symBinAddr: 0x10000B01C, symSize: 0x288 }
  - { offsetInCU: 0x1C048, offset: 0x1C048, size: 0x8, addend: 0x0, symName: __ZNSt3__110unique_ptrIA_PNS_16__hash_node_baseIPNS_11__hash_nodeINS_17__hash_value_typeI6CoordsfEEPvEEEENS_25__bucket_list_deallocatorINS_9allocatorISA_EEEEE11get_deleterB8ue170006Ev, symObjAddr: 0x6DBC, symBinAddr: 0x10000B310, symSize: 0x24 }
  - { offsetInCU: 0x1C06E, offset: 0x1C06E, size: 0x8, addend: 0x0, symName: __ZNSt3__110unique_ptrIA_PNS_16__hash_node_baseIPNS_11__hash_nodeINS_17__hash_value_typeI6CoordsfEEPvEEEENS_25__bucket_list_deallocatorINS_9allocatorISA_EEEEE5resetB8ue170006IPSA_EENS_9enable_ifIXsr28_CheckArrayPointerConversionIT_EE5valueEvE4typeESK_, symObjAddr: 0x6DE0, symBinAddr: 0x10000B334, symSize: 0x78 }
  - { offsetInCU: 0x1C0BB, offset: 0x1C0BB, size: 0x8, addend: 0x0, symName: __ZNSt3__116allocator_traitsINS_9allocatorIPNS_16__hash_node_baseIPNS_11__hash_nodeINS_17__hash_value_typeI6CoordsfEEPvEEEEEEE8allocateB8ue170006ERSC_m, symObjAddr: 0x6E58, symBinAddr: 0x10000B3AC, symSize: 0x2C }
  - { offsetInCU: 0x1C0EE, offset: 0x1C0EE, size: 0x8, addend: 0x0, symName: __ZNSt3__19allocatorIPNS_16__hash_node_baseIPNS_11__hash_nodeINS_17__hash_value_typeI6CoordsfEEPvEEEEE8allocateB8ue170006Em, symObjAddr: 0x6E84, symBinAddr: 0x10000B3D8, symSize: 0x58 }
  - { offsetInCU: 0x1C12D, offset: 0x1C12D, size: 0x8, addend: 0x0, symName: __ZNSt3__116allocator_traitsINS_9allocatorIPNS_16__hash_node_baseIPNS_11__hash_nodeINS_17__hash_value_typeI6CoordsfEEPvEEEEEEE8max_sizeB8ue170006ISC_vvEEmRKSC_, symObjAddr: 0x6EDC, symBinAddr: 0x10000B430, symSize: 0x28 }
  - { offsetInCU: 0x1C159, offset: 0x1C159, size: 0x8, addend: 0x0, symName: __ZNKSt3__117__compressed_pairIPNS_11__hash_nodeINS_17__hash_value_typeI6CoordsfEEPvEENS_22__hash_node_destructorINS_9allocatorIS6_EEEEE5firstB8ue170006Ev, symObjAddr: 0x6F20, symBinAddr: 0x10000B474, symSize: 0x24 }
  - { offsetInCU: 0x1C17F, offset: 0x1C17F, size: 0x8, addend: 0x0, symName: __ZNKSt3__122__compressed_pair_elemIPNS_11__hash_nodeINS_17__hash_value_typeI6CoordsfEEPvEELi0ELb0EE5__getB8ue170006Ev, symObjAddr: 0x6F44, symBinAddr: 0x10000B498, symSize: 0x14 }
  - { offsetInCU: 0x1C1A5, offset: 0x1C1A5, size: 0x8, addend: 0x0, symName: __ZNSt3__117__compressed_pairIPNS_11__hash_nodeINS_17__hash_value_typeI6CoordsfEEPvEENS_22__hash_node_destructorINS_9allocatorIS6_EEEEE5firstB8ue170006Ev, symObjAddr: 0x6F58, symBinAddr: 0x10000B4AC, symSize: 0x24 }
  - { offsetInCU: 0x1C1CB, offset: 0x1C1CB, size: 0x8, addend: 0x0, symName: __ZNSt3__122__compressed_pair_elemIPNS_11__hash_nodeINS_17__hash_value_typeI6CoordsfEEPvEELi0ELb0EE5__getB8ue170006Ev, symObjAddr: 0x6F7C, symBinAddr: 0x10000B4D0, symSize: 0x14 }
  - { offsetInCU: 0x1C1F1, offset: 0x1C1F1, size: 0x8, addend: 0x0, symName: __ZNSt3__110unique_ptrINS_11__hash_nodeINS_17__hash_value_typeI6CoordsfEEPvEENS_22__hash_node_destructorINS_9allocatorIS6_EEEEED2B8ue170006Ev, symObjAddr: 0x6F90, symBinAddr: 0x10000B4E4, symSize: 0x30 }
  - { offsetInCU: 0x1C21B, offset: 0x1C21B, size: 0x8, addend: 0x0, symName: __ZNSt3__110unique_ptrINS_11__hash_nodeINS_17__hash_value_typeI6CoordsfEEPvEENS_22__hash_node_destructorINS_9allocatorIS6_EEEEE5resetB8ue170006EPS6_, symObjAddr: 0x6FC0, symBinAddr: 0x10000B514, symSize: 0x78 }
  - { offsetInCU: 0x1C25F, offset: 0x1C25F, size: 0x8, addend: 0x0, symName: __ZNSt3__122__hash_node_destructorINS_9allocatorINS_11__hash_nodeINS_17__hash_value_typeI6CoordsfEEPvEEEEEclB8ue170006EPS7_, symObjAddr: 0x7038, symBinAddr: 0x10000B58C, symSize: 0x98 }
  - { offsetInCU: 0x1C294, offset: 0x1C294, size: 0x8, addend: 0x0, symName: __ZNSt3__115__hash_iteratorIPNS_11__hash_nodeINS_17__hash_value_typeI6CoordsfEEPvEEEC2B8ue170006EPNS_16__hash_node_baseIS7_EE, symObjAddr: 0x70D0, symBinAddr: 0x10000B624, symSize: 0x20 }
  - { offsetInCU: 0x1C2CD, offset: 0x1C2CD, size: 0x8, addend: 0x0, symName: __ZNSt3__14pairINS_15__hash_iteratorIPNS_11__hash_nodeINS_17__hash_value_typeI6CoordsfEEPvEEEEbEC2B8ue170006IS9_RbLS6_0EEEOT_OT0_, symObjAddr: 0x70F0, symBinAddr: 0x10000B644, symSize: 0x38 }
  - { offsetInCU: 0x1C32B, offset: 0x1C32B, size: 0x8, addend: 0x0, symName: __ZNSt3__15tupleIJO6CoordsEEC1B8ue170006IJS1_ELi0EEEDpOT_, symObjAddr: 0x7128, symBinAddr: 0x10000B67C, symSize: 0x34 }
  - { offsetInCU: 0x1C375, offset: 0x1C375, size: 0x8, addend: 0x0, symName: __ZNSt3__15tupleIJO6CoordsEEC2B8ue170006IJS1_ELi0EEEDpOT_, symObjAddr: 0x715C, symBinAddr: 0x10000B6B0, symSize: 0x34 }
  - { offsetInCU: 0x1C3BF, offset: 0x1C3BF, size: 0x8, addend: 0x0, symName: __ZNSt3__112__tuple_implINS_15__tuple_indicesIJLm0EEEEJO6CoordsEEC1B8ue170006IJLm0EEJS4_EJEJEJS3_EEENS1_IJXspT_EEEENS_13__tuple_typesIJDpT0_EEENS1_IJXspT1_EEEENS8_IJDpT2_EEEDpOT3_, symObjAddr: 0x7190, symBinAddr: 0x10000B6E4, symSize: 0x34 }
  - { offsetInCU: 0x1C454, offset: 0x1C454, size: 0x8, addend: 0x0, symName: __ZNSt3__112__tuple_implINS_15__tuple_indicesIJLm0EEEEJO6CoordsEEC2B8ue170006IJLm0EEJS4_EJEJEJS3_EEENS1_IJXspT_EEEENS_13__tuple_typesIJDpT0_EEENS1_IJXspT1_EEEENS8_IJDpT2_EEEDpOT3_, symObjAddr: 0x71C4, symBinAddr: 0x10000B718, symSize: 0x34 }
  - { offsetInCU: 0x1C4E9, offset: 0x1C4E9, size: 0x8, addend: 0x0, symName: __ZNSt3__112__tuple_leafILm0EO6CoordsLb0EEC2B8ue170006IS1_vEEOT_, symObjAddr: 0x71F8, symBinAddr: 0x10000B74C, symSize: 0x20 }
  - { offsetInCU: 0x1C52C, offset: 0x1C52C, size: 0x8, addend: 0x0, symName: __ZNSt3__114pointer_traitsIPNS_17__hash_value_typeI6CoordsfEEE10pointer_toB8ue170006ERS3_, symObjAddr: 0x7218, symBinAddr: 0x10000B76C, symSize: 0x14 }
  - { offsetInCU: 0x1C54F, offset: 0x1C54F, size: 0x8, addend: 0x0, symName: __ZNSt3__112__hash_tableINS_17__hash_value_typeI6CoordsfEENS_22__unordered_map_hasherIS2_S3_NS_4hashIS2_EENS_8equal_toIS2_EELb1EEENS_21__unordered_map_equalIS2_S3_S8_S6_Lb1EEENS_9allocatorIS3_EEE25__emplace_unique_key_argsIS2_JRKNS_21piecewise_construct_tENS_5tupleIJRKS2_EEENSJ_IJEEEEEENS_4pairINS_15__hash_iteratorIPNS_11__hash_nodeIS3_PvEEEEbEERKT_DpOT0_, symObjAddr: 0x722C, symBinAddr: 0x10000B780, symSize: 0x4B0 }
  - { offsetInCU: 0x1C659, offset: 0x1C659, size: 0x8, addend: 0x0, symName: __ZNSt3__112__hash_tableINS_17__hash_value_typeI6CoordsfEENS_22__unordered_map_hasherIS2_S3_NS_4hashIS2_EENS_8equal_toIS2_EELb1EEENS_21__unordered_map_equalIS2_S3_S8_S6_Lb1EEENS_9allocatorIS3_EEE21__construct_node_hashIRKNS_21piecewise_construct_tEJNS_5tupleIJRKS2_EEENSJ_IJEEEEEENS_10unique_ptrINS_11__hash_nodeIS3_PvEENS_22__hash_node_destructorINSC_ISR_EEEEEEmOT_DpOT0_, symObjAddr: 0x7708, symBinAddr: 0x10000BC5C, symSize: 0x150 }
  - { offsetInCU: 0x1C6F5, offset: 0x1C6F5, size: 0x8, addend: 0x0, symName: __ZNSt3__116allocator_traitsINS_9allocatorINS_11__hash_nodeINS_17__hash_value_typeI6CoordsfEEPvEEEEE9constructB8ue170006INS_4pairIKS4_fEEJRKNS_21piecewise_construct_tENS_5tupleIJRSC_EEENSH_IJEEEEvvEEvRS8_PT_DpOT0_, symObjAddr: 0x7858, symBinAddr: 0x10000BDAC, symSize: 0x40 }
  - { offsetInCU: 0x1C772, offset: 0x1C772, size: 0x8, addend: 0x0, symName: __ZNSt3__14pairIK6CoordsfEC1B8ue170006IJRS2_EJEEENS_21piecewise_construct_tENS_5tupleIJDpT_EEENS7_IJDpT0_EEE, symObjAddr: 0x78E8, symBinAddr: 0x10000BE3C, symSize: 0x44 }
  - { offsetInCU: 0x1C7D9, offset: 0x1C7D9, size: 0x8, addend: 0x0, symName: __ZNSt3__14pairIK6CoordsfEC1B8ue170006IJRS2_EJEJLm0EEJEEENS_21piecewise_construct_tERNS_5tupleIJDpT_EEERNS7_IJDpT0_EEENS_15__tuple_indicesIJXspT1_EEEENSG_IJXspT2_EEEE, symObjAddr: 0x792C, symBinAddr: 0x10000BE80, symSize: 0x3C }
  - { offsetInCU: 0x1C869, offset: 0x1C869, size: 0x8, addend: 0x0, symName: __ZNSt3__14pairIK6CoordsfEC2B8ue170006IJRS2_EJEJLm0EEJEEENS_21piecewise_construct_tERNS_5tupleIJDpT_EEERNS7_IJDpT0_EEENS_15__tuple_indicesIJXspT1_EEEENSG_IJXspT2_EEEE, symObjAddr: 0x7968, symBinAddr: 0x10000BEBC, symSize: 0x4C }
  - { offsetInCU: 0x1C8F9, offset: 0x1C8F9, size: 0x8, addend: 0x0, symName: __ZNSt3__112__tuple_leafILm0ERK6CoordsLb0EE3getB8ue170006Ev, symObjAddr: 0x79D8, symBinAddr: 0x10000BF2C, symSize: 0x18 }
  - { offsetInCU: 0x1C91F, offset: 0x1C91F, size: 0x8, addend: 0x0, symName: __ZNSt3__15tupleIJRK6CoordsEEC1B8ue170006INS_4_AndELi0EEES3_, symObjAddr: 0x79F0, symBinAddr: 0x10000BF44, symSize: 0x34 }
  - { offsetInCU: 0x1C967, offset: 0x1C967, size: 0x8, addend: 0x0, symName: __ZNSt3__15tupleIJRK6CoordsEEC2B8ue170006INS_4_AndELi0EEES3_, symObjAddr: 0x7A24, symBinAddr: 0x10000BF78, symSize: 0x34 }
  - { offsetInCU: 0x1C9AF, offset: 0x1C9AF, size: 0x8, addend: 0x0, symName: __ZNSt3__112__tuple_implINS_15__tuple_indicesIJLm0EEEEJRK6CoordsEEC1B8ue170006IJLm0EEJS5_EJEJEJS5_EEENS1_IJXspT_EEEENS_13__tuple_typesIJDpT0_EEENS1_IJXspT1_EEEENS9_IJDpT2_EEEDpOT3_, symObjAddr: 0x7A58, symBinAddr: 0x10000BFAC, symSize: 0x34 }
  - { offsetInCU: 0x1CA44, offset: 0x1CA44, size: 0x8, addend: 0x0, symName: __ZNSt3__112__tuple_implINS_15__tuple_indicesIJLm0EEEEJRK6CoordsEEC2B8ue170006IJLm0EEJS5_EJEJEJS5_EEENS1_IJXspT_EEEENS_13__tuple_typesIJDpT0_EEENS1_IJXspT1_EEEENS9_IJDpT2_EEEDpOT3_, symObjAddr: 0x7A8C, symBinAddr: 0x10000BFE0, symSize: 0x34 }
  - { offsetInCU: 0x1CAD9, offset: 0x1CAD9, size: 0x8, addend: 0x0, symName: __ZNSt3__112__tuple_leafILm0ERK6CoordsLb0EEC2B8ue170006IS3_vEEOT_, symObjAddr: 0x7AC0, symBinAddr: 0x10000C014, symSize: 0x20 }
  - { offsetInCU: 0x1CB1C, offset: 0x1CB1C, size: 0x8, addend: 0x0, symName: __ZNSt3__112__hash_tableINS_17__hash_value_typeI6CoordsfEENS_22__unordered_map_hasherIS2_S3_NS_4hashIS2_EENS_8equal_toIS2_EELb1EEENS_21__unordered_map_equalIS2_S3_S8_S6_Lb1EEENS_9allocatorIS3_EEE4findIS2_EENS_15__hash_iteratorIPNS_11__hash_nodeIS3_PvEEEERKT_, symObjAddr: 0x7AE0, symBinAddr: 0x10000C034, symSize: 0x1B0 }
  - { offsetInCU: 0x1CBA6, offset: 0x1CBA6, size: 0x8, addend: 0x0, symName: __ZNSt3__119__hash_map_iteratorINS_15__hash_iteratorIPNS_11__hash_nodeINS_17__hash_value_typeI6CoordsfEEPvEEEEEC1B8ue170006ES9_, symObjAddr: 0x7C90, symBinAddr: 0x10000C1E4, symSize: 0x34 }
  - { offsetInCU: 0x1CBDF, offset: 0x1CBDF, size: 0x8, addend: 0x0, symName: __ZNSt3__112__hash_tableINS_17__hash_value_typeI6CoordsfEENS_22__unordered_map_hasherIS2_S3_NS_4hashIS2_EENS_8equal_toIS2_EELb1EEENS_21__unordered_map_equalIS2_S3_S8_S6_Lb1EEENS_9allocatorIS3_EEE3endEv, symObjAddr: 0x7CC4, symBinAddr: 0x10000C218, symSize: 0x2C }
  - { offsetInCU: 0x1CC07, offset: 0x1CC07, size: 0x8, addend: 0x0, symName: __ZNSt3__119__hash_map_iteratorINS_15__hash_iteratorIPNS_11__hash_nodeINS_17__hash_value_typeI6CoordsfEEPvEEEEEC2B8ue170006ES9_, symObjAddr: 0x7CF0, symBinAddr: 0x10000C244, symSize: 0x20 }
  - { offsetInCU: 0x1CC40, offset: 0x1CC40, size: 0x8, addend: 0x0, symName: __ZNSt3__111char_traitsIcE6lengthB8ue170006EPKc, symObjAddr: 0x7F2C, symBinAddr: 0x10000C480, symSize: 0x34 }
  - { offsetInCU: 0x1CC86, offset: 0x1CC86, size: 0x8, addend: 0x0, symName: __ZNKSt3__113basic_ostreamIcNS_11char_traitsIcEEE6sentrycvbB8ue170006Ev, symObjAddr: 0x7F60, symBinAddr: 0x10000C4B4, symSize: 0x1C }
  - { offsetInCU: 0x1CCAC, offset: 0x1CCAC, size: 0x8, addend: 0x0, symName: __ZNSt3__119ostreambuf_iteratorIcNS_11char_traitsIcEEEC1B8ue170006ERNS_13basic_ostreamIcS2_EE, symObjAddr: 0x81BC, symBinAddr: 0x10000C710, symSize: 0x34 }
  - { offsetInCU: 0x1CCE4, offset: 0x1CCE4, size: 0x8, addend: 0x0, symName: __ZNKSt3__18ios_base5flagsB8ue170006Ev, symObjAddr: 0x81F0, symBinAddr: 0x10000C744, symSize: 0x18 }
  - { offsetInCU: 0x1CD0C, offset: 0x1CD0C, size: 0x8, addend: 0x0, symName: __ZNKSt3__19basic_iosIcNS_11char_traitsIcEEE4fillB8ue170006Ev, symObjAddr: 0x8208, symBinAddr: 0x10000C75C, symSize: 0x64 }
  - { offsetInCU: 0x1CD34, offset: 0x1CD34, size: 0x8, addend: 0x0, symName: __ZNKSt3__119ostreambuf_iteratorIcNS_11char_traitsIcEEE6failedB8ue170006Ev, symObjAddr: 0x826C, symBinAddr: 0x10000C7C0, symSize: 0x24 }
  - { offsetInCU: 0x1CD5A, offset: 0x1CD5A, size: 0x8, addend: 0x0, symName: __ZNSt3__19basic_iosIcNS_11char_traitsIcEEE8setstateB8ue170006Ej, symObjAddr: 0x8290, symBinAddr: 0x10000C7E4, symSize: 0x2C }
  - { offsetInCU: 0x1CD8F, offset: 0x1CD8F, size: 0x8, addend: 0x0, symName: __ZNKSt3__18ios_base5widthB8ue170006Ev, symObjAddr: 0x82BC, symBinAddr: 0x10000C810, symSize: 0x18 }
  - { offsetInCU: 0x1CDB7, offset: 0x1CDB7, size: 0x8, addend: 0x0, symName: __ZNSt3__115basic_streambufIcNS_11char_traitsIcEEE5sputnB8ue170006EPKcl, symObjAddr: 0x82D4, symBinAddr: 0x10000C828, symSize: 0x3C }
  - { offsetInCU: 0x1CDF9, offset: 0x1CDF9, size: 0x8, addend: 0x0, symName: __ZNSt3__112basic_stringIcNS_11char_traitsIcEENS_9allocatorIcEEEC1B8ue170006Emc, symObjAddr: 0x8310, symBinAddr: 0x10000C864, symSize: 0x3C }
  - { offsetInCU: 0x1CE41, offset: 0x1CE41, size: 0x8, addend: 0x0, symName: __ZNSt3__112basic_stringIcNS_11char_traitsIcEENS_9allocatorIcEEE4dataB8ue170006Ev, symObjAddr: 0x834C, symBinAddr: 0x10000C8A0, symSize: 0x28 }
  - { offsetInCU: 0x1CE67, offset: 0x1CE67, size: 0x8, addend: 0x0, symName: __ZNSt3__18ios_base5widthB8ue170006El, symObjAddr: 0x8374, symBinAddr: 0x10000C8C8, symSize: 0x2C }
  - { offsetInCU: 0x1CEAD, offset: 0x1CEAD, size: 0x8, addend: 0x0, symName: __ZNSt3__112basic_stringIcNS_11char_traitsIcEENS_9allocatorIcEEEC2B8ue170006Emc, symObjAddr: 0x83A0, symBinAddr: 0x10000C8F4, symSize: 0x4C }
  - { offsetInCU: 0x1CEF5, offset: 0x1CEF5, size: 0x8, addend: 0x0, symName: __ZNSt3__117__compressed_pairINS_12basic_stringIcNS_11char_traitsIcEENS_9allocatorIcEEE5__repES5_EC1B8ue170006INS_18__default_init_tagESA_EEOT_OT0_, symObjAddr: 0x83EC, symBinAddr: 0x10000C940, symSize: 0x3C }
  - { offsetInCU: 0x1CF4D, offset: 0x1CF4D, size: 0x8, addend: 0x0, symName: __ZNSt3__117__compressed_pairINS_12basic_stringIcNS_11char_traitsIcEENS_9allocatorIcEEE5__repES5_EC2B8ue170006INS_18__default_init_tagESA_EEOT_OT0_, symObjAddr: 0x8428, symBinAddr: 0x10000C97C, symSize: 0x3C }
  - { offsetInCU: 0x1CFA5, offset: 0x1CFA5, size: 0x8, addend: 0x0, symName: __ZNSt3__122__compressed_pair_elemINS_12basic_stringIcNS_11char_traitsIcEENS_9allocatorIcEEE5__repELi0ELb0EEC2B8ue170006ENS_18__default_init_tagE, symObjAddr: 0x8464, symBinAddr: 0x10000C9B8, symSize: 0x14 }
  - { offsetInCU: 0x1CFDA, offset: 0x1CFDA, size: 0x8, addend: 0x0, symName: __ZNSt3__122__compressed_pair_elemINS_9allocatorIcEELi1ELb1EEC2B8ue170006ENS_18__default_init_tagE, symObjAddr: 0x8478, symBinAddr: 0x10000C9CC, symSize: 0x2C }
  - { offsetInCU: 0x1D00F, offset: 0x1D00F, size: 0x8, addend: 0x0, symName: __ZNSt3__19allocatorIcEC2B8ue170006Ev, symObjAddr: 0x84A4, symBinAddr: 0x10000C9F8, symSize: 0x2C }
  - { offsetInCU: 0x1D039, offset: 0x1D039, size: 0x8, addend: 0x0, symName: __ZNSt3__116__non_trivial_ifILb1ENS_9allocatorIcEEEC2B8ue170006Ev, symObjAddr: 0x84D0, symBinAddr: 0x10000CA24, symSize: 0x14 }
  - { offsetInCU: 0x1D063, offset: 0x1D063, size: 0x8, addend: 0x0, symName: __ZNSt3__112basic_stringIcNS_11char_traitsIcEENS_9allocatorIcEEE13__get_pointerB8ue170006Ev, symObjAddr: 0x84F8, symBinAddr: 0x10000CA4C, symSize: 0x54 }
  - { offsetInCU: 0x1D089, offset: 0x1D089, size: 0x8, addend: 0x0, symName: __ZNKSt3__112basic_stringIcNS_11char_traitsIcEENS_9allocatorIcEEE9__is_longB8ue170006Ev, symObjAddr: 0x854C, symBinAddr: 0x10000CAA0, symSize: 0x38 }
  - { offsetInCU: 0x1D0AF, offset: 0x1D0AF, size: 0x8, addend: 0x0, symName: __ZNSt3__112basic_stringIcNS_11char_traitsIcEENS_9allocatorIcEEE18__get_long_pointerB8ue170006Ev, symObjAddr: 0x8584, symBinAddr: 0x10000CAD8, symSize: 0x28 }
  - { offsetInCU: 0x1D0D5, offset: 0x1D0D5, size: 0x8, addend: 0x0, symName: __ZNSt3__112basic_stringIcNS_11char_traitsIcEENS_9allocatorIcEEE19__get_short_pointerB8ue170006Ev, symObjAddr: 0x85AC, symBinAddr: 0x10000CB00, symSize: 0x28 }
  - { offsetInCU: 0x1D0FB, offset: 0x1D0FB, size: 0x8, addend: 0x0, symName: __ZNKSt3__117__compressed_pairINS_12basic_stringIcNS_11char_traitsIcEENS_9allocatorIcEEE5__repES5_E5firstB8ue170006Ev, symObjAddr: 0x85D4, symBinAddr: 0x10000CB28, symSize: 0x24 }
  - { offsetInCU: 0x1D121, offset: 0x1D121, size: 0x8, addend: 0x0, symName: __ZNKSt3__122__compressed_pair_elemINS_12basic_stringIcNS_11char_traitsIcEENS_9allocatorIcEEE5__repELi0ELb0EE5__getB8ue170006Ev, symObjAddr: 0x85F8, symBinAddr: 0x10000CB4C, symSize: 0x14 }
  - { offsetInCU: 0x1D147, offset: 0x1D147, size: 0x8, addend: 0x0, symName: __ZNSt3__117__compressed_pairINS_12basic_stringIcNS_11char_traitsIcEENS_9allocatorIcEEE5__repES5_E5firstB8ue170006Ev, symObjAddr: 0x860C, symBinAddr: 0x10000CB60, symSize: 0x24 }
  - { offsetInCU: 0x1D16D, offset: 0x1D16D, size: 0x8, addend: 0x0, symName: __ZNSt3__122__compressed_pair_elemINS_12basic_stringIcNS_11char_traitsIcEENS_9allocatorIcEEE5__repELi0ELb0EE5__getB8ue170006Ev, symObjAddr: 0x8630, symBinAddr: 0x10000CB84, symSize: 0x14 }
  - { offsetInCU: 0x1D193, offset: 0x1D193, size: 0x8, addend: 0x0, symName: __ZNSt3__114pointer_traitsIPcE10pointer_toB8ue170006ERc, symObjAddr: 0x8644, symBinAddr: 0x10000CB98, symSize: 0x14 }
  - { offsetInCU: 0x1D1B6, offset: 0x1D1B6, size: 0x8, addend: 0x0, symName: __ZNSt3__119ostreambuf_iteratorIcNS_11char_traitsIcEEEC2B8ue170006ERNS_13basic_ostreamIcS2_EE, symObjAddr: 0x8658, symBinAddr: 0x10000CBAC, symSize: 0x54 }
  - { offsetInCU: 0x1D1EE, offset: 0x1D1EE, size: 0x8, addend: 0x0, symName: __ZNKSt3__19basic_iosIcNS_11char_traitsIcEEE5rdbufB8ue170006Ev, symObjAddr: 0x86AC, symBinAddr: 0x10000CC00, symSize: 0x24 }
  - { offsetInCU: 0x1D216, offset: 0x1D216, size: 0x8, addend: 0x0, symName: __ZNKSt3__18ios_base5rdbufB8ue170006Ev, symObjAddr: 0x86D0, symBinAddr: 0x10000CC24, symSize: 0x18 }
  - { offsetInCU: 0x1D23C, offset: 0x1D23C, size: 0x8, addend: 0x0, symName: __ZNSt3__111char_traitsIcE11eq_int_typeB8ue170006Eii, symObjAddr: 0x86E8, symBinAddr: 0x10000CC3C, symSize: 0x28 }
  - { offsetInCU: 0x1D26F, offset: 0x1D26F, size: 0x8, addend: 0x0, symName: __ZNSt3__111char_traitsIcE3eofB8ue170006Ev, symObjAddr: 0x8710, symBinAddr: 0x10000CC64, symSize: 0x8 }
  - { offsetInCU: 0x1D283, offset: 0x1D283, size: 0x8, addend: 0x0, symName: __ZNKSt3__19basic_iosIcNS_11char_traitsIcEEE5widenB8ue170006Ec, symObjAddr: 0x8718, symBinAddr: 0x10000CC6C, symSize: 0x84 }
  - { offsetInCU: 0x1D2F3, offset: 0x1D2F3, size: 0x8, addend: 0x0, symName: __ZNKSt3__15ctypeIcE5widenB8ue170006Ec, symObjAddr: 0x87C8, symBinAddr: 0x10000CD1C, symSize: 0x38 }
  - { offsetInCU: 0x1D328, offset: 0x1D328, size: 0x8, addend: 0x0, symName: __ZNSt3__18ios_base8setstateB8ue170006Ej, symObjAddr: 0x8800, symBinAddr: 0x10000CD54, symSize: 0x34 }
  - { offsetInCU: 0x1D35F, offset: 0x1D35F, size: 0x8, addend: 0x0, symName: __ZNSt3__112__hash_tableINS_17__hash_value_typeI6CoordsS2_EENS_22__unordered_map_hasherIS2_S3_NS_4hashIS2_EENS_8equal_toIS2_EELb1EEENS_21__unordered_map_equalIS2_S3_S8_S6_Lb1EEENS_9allocatorIS3_EEE4findIS2_EENS_15__hash_iteratorIPNS_11__hash_nodeIS3_PvEEEERKT_, symObjAddr: 0x8858, symBinAddr: 0x10000CDAC, symSize: 0x1B0 }
  - { offsetInCU: 0x1D3E9, offset: 0x1D3E9, size: 0x8, addend: 0x0, symName: __ZNSt3__119__hash_map_iteratorINS_15__hash_iteratorIPNS_11__hash_nodeINS_17__hash_value_typeI6CoordsS4_EEPvEEEEEC1B8ue170006ES9_, symObjAddr: 0x8A08, symBinAddr: 0x10000CF5C, symSize: 0x34 }
  - { offsetInCU: 0x1D422, offset: 0x1D422, size: 0x8, addend: 0x0, symName: __ZNSt3__112__hash_tableINS_17__hash_value_typeI6CoordsS2_EENS_22__unordered_map_hasherIS2_S3_NS_4hashIS2_EENS_8equal_toIS2_EELb1EEENS_21__unordered_map_equalIS2_S3_S8_S6_Lb1EEENS_9allocatorIS3_EEE13hash_functionB8ue170006Ev, symObjAddr: 0x8A3C, symBinAddr: 0x10000CF90, symSize: 0x28 }
  - { offsetInCU: 0x1D448, offset: 0x1D448, size: 0x8, addend: 0x0, symName: __ZNKSt3__122__unordered_map_hasherI6CoordsNS_17__hash_value_typeIS1_S1_EENS_4hashIS1_EENS_8equal_toIS1_EELb1EEclB8ue170006ERKS1_, symObjAddr: 0x8A64, symBinAddr: 0x10000CFB8, symSize: 0x2C }
  - { offsetInCU: 0x1D47D, offset: 0x1D47D, size: 0x8, addend: 0x0, symName: __ZNKSt3__112__hash_tableINS_17__hash_value_typeI6CoordsS2_EENS_22__unordered_map_hasherIS2_S3_NS_4hashIS2_EENS_8equal_toIS2_EELb1EEENS_21__unordered_map_equalIS2_S3_S8_S6_Lb1EEENS_9allocatorIS3_EEE12bucket_countB8ue170006Ev, symObjAddr: 0x8A90, symBinAddr: 0x10000CFE4, symSize: 0x28 }
  - { offsetInCU: 0x1D4A3, offset: 0x1D4A3, size: 0x8, addend: 0x0, symName: __ZNKSt3__110unique_ptrIA_PNS_16__hash_node_baseIPNS_11__hash_nodeINS_17__hash_value_typeI6CoordsS4_EEPvEEEENS_25__bucket_list_deallocatorINS_9allocatorISA_EEEEEixB8ue170006Em, symObjAddr: 0x8AB8, symBinAddr: 0x10000D00C, symSize: 0x34 }
  - { offsetInCU: 0x1D4D8, offset: 0x1D4D8, size: 0x8, addend: 0x0, symName: __ZNKSt3__116__hash_node_baseIPNS_11__hash_nodeINS_17__hash_value_typeI6CoordsS3_EEPvEEE6__hashB8ue170006Ev, symObjAddr: 0x8AEC, symBinAddr: 0x10000D040, symSize: 0x18 }
  - { offsetInCU: 0x1D4FE, offset: 0x1D4FE, size: 0x8, addend: 0x0, symName: __ZNSt3__112__hash_tableINS_17__hash_value_typeI6CoordsS2_EENS_22__unordered_map_hasherIS2_S3_NS_4hashIS2_EENS_8equal_toIS2_EELb1EEENS_21__unordered_map_equalIS2_S3_S8_S6_Lb1EEENS_9allocatorIS3_EEE6key_eqB8ue170006Ev, symObjAddr: 0x8B04, symBinAddr: 0x10000D058, symSize: 0x28 }
  - { offsetInCU: 0x1D524, offset: 0x1D524, size: 0x8, addend: 0x0, symName: __ZNKSt3__121__unordered_map_equalI6CoordsNS_17__hash_value_typeIS1_S1_EENS_8equal_toIS1_EENS_4hashIS1_EELb1EEclB8ue170006ERKS3_RKS1_, symObjAddr: 0x8B2C, symBinAddr: 0x10000D080, symSize: 0x48 }
  - { offsetInCU: 0x1D568, offset: 0x1D568, size: 0x8, addend: 0x0, symName: __ZNSt3__116__hash_node_baseIPNS_11__hash_nodeINS_17__hash_value_typeI6CoordsS3_EEPvEEE8__upcastB8ue170006Ev, symObjAddr: 0x8B74, symBinAddr: 0x10000D0C8, symSize: 0x24 }
  - { offsetInCU: 0x1D58E, offset: 0x1D58E, size: 0x8, addend: 0x0, symName: __ZNSt3__115__hash_iteratorIPNS_11__hash_nodeINS_17__hash_value_typeI6CoordsS3_EEPvEEEC1B8ue170006EPNS_16__hash_node_baseIS7_EE, symObjAddr: 0x8B98, symBinAddr: 0x10000D0EC, symSize: 0x34 }
  - { offsetInCU: 0x1D5C7, offset: 0x1D5C7, size: 0x8, addend: 0x0, symName: __ZNSt3__112__hash_tableINS_17__hash_value_typeI6CoordsS2_EENS_22__unordered_map_hasherIS2_S3_NS_4hashIS2_EENS_8equal_toIS2_EELb1EEENS_21__unordered_map_equalIS2_S3_S8_S6_Lb1EEENS_9allocatorIS3_EEE3endEv, symObjAddr: 0x8BCC, symBinAddr: 0x10000D120, symSize: 0x2C }
  - { offsetInCU: 0x1D5EF, offset: 0x1D5EF, size: 0x8, addend: 0x0, symName: __ZNSt3__117__compressed_pairImNS_22__unordered_map_hasherI6CoordsNS_17__hash_value_typeIS2_S2_EENS_4hashIS2_EENS_8equal_toIS2_EELb1EEEE6secondB8ue170006Ev, symObjAddr: 0x8BF8, symBinAddr: 0x10000D14C, symSize: 0x24 }
  - { offsetInCU: 0x1D615, offset: 0x1D615, size: 0x8, addend: 0x0, symName: __ZNSt3__122__compressed_pair_elemINS_22__unordered_map_hasherI6CoordsNS_17__hash_value_typeIS2_S2_EENS_4hashIS2_EENS_8equal_toIS2_EELb1EEELi1ELb1EE5__getB8ue170006Ev, symObjAddr: 0x8C1C, symBinAddr: 0x10000D170, symSize: 0x14 }
  - { offsetInCU: 0x1D63B, offset: 0x1D63B, size: 0x8, addend: 0x0, symName: __ZNKSt3__110unique_ptrIA_PNS_16__hash_node_baseIPNS_11__hash_nodeINS_17__hash_value_typeI6CoordsS4_EEPvEEEENS_25__bucket_list_deallocatorINS_9allocatorISA_EEEEE11get_deleterB8ue170006Ev, symObjAddr: 0x8C30, symBinAddr: 0x10000D184, symSize: 0x24 }
  - { offsetInCU: 0x1D661, offset: 0x1D661, size: 0x8, addend: 0x0, symName: __ZNKSt3__125__bucket_list_deallocatorINS_9allocatorIPNS_16__hash_node_baseIPNS_11__hash_nodeINS_17__hash_value_typeI6CoordsS5_EEPvEEEEEEE4sizeB8ue170006Ev, symObjAddr: 0x8C54, symBinAddr: 0x10000D1A8, symSize: 0x28 }
  - { offsetInCU: 0x1D687, offset: 0x1D687, size: 0x8, addend: 0x0, symName: __ZNKSt3__117__compressed_pairIPPNS_16__hash_node_baseIPNS_11__hash_nodeINS_17__hash_value_typeI6CoordsS4_EEPvEEEENS_25__bucket_list_deallocatorINS_9allocatorISA_EEEEE6secondB8ue170006Ev, symObjAddr: 0x8C7C, symBinAddr: 0x10000D1D0, symSize: 0x28 }
  - { offsetInCU: 0x1D6AD, offset: 0x1D6AD, size: 0x8, addend: 0x0, symName: __ZNKSt3__122__compressed_pair_elemINS_25__bucket_list_deallocatorINS_9allocatorIPNS_16__hash_node_baseIPNS_11__hash_nodeINS_17__hash_value_typeI6CoordsS6_EEPvEEEEEEEELi1ELb0EE5__getB8ue170006Ev, symObjAddr: 0x8CA4, symBinAddr: 0x10000D1F8, symSize: 0x14 }
  - { offsetInCU: 0x1D6D3, offset: 0x1D6D3, size: 0x8, addend: 0x0, symName: __ZNKSt3__117__compressed_pairImNS_9allocatorIPNS_16__hash_node_baseIPNS_11__hash_nodeINS_17__hash_value_typeI6CoordsS5_EEPvEEEEEEE5firstB8ue170006Ev, symObjAddr: 0x8CB8, symBinAddr: 0x10000D20C, symSize: 0x24 }
  - { offsetInCU: 0x1D6F9, offset: 0x1D6F9, size: 0x8, addend: 0x0, symName: __ZNKSt3__117__compressed_pairIPPNS_16__hash_node_baseIPNS_11__hash_nodeINS_17__hash_value_typeI6CoordsS4_EEPvEEEENS_25__bucket_list_deallocatorINS_9allocatorISA_EEEEE5firstB8ue170006Ev, symObjAddr: 0x8CDC, symBinAddr: 0x10000D230, symSize: 0x24 }
  - { offsetInCU: 0x1D71F, offset: 0x1D71F, size: 0x8, addend: 0x0, symName: __ZNKSt3__122__compressed_pair_elemIPPNS_16__hash_node_baseIPNS_11__hash_nodeINS_17__hash_value_typeI6CoordsS4_EEPvEEEELi0ELb0EE5__getB8ue170006Ev, symObjAddr: 0x8D00, symBinAddr: 0x10000D254, symSize: 0x14 }
  - { offsetInCU: 0x1D745, offset: 0x1D745, size: 0x8, addend: 0x0, symName: __ZNSt3__117__compressed_pairIfNS_21__unordered_map_equalI6CoordsNS_17__hash_value_typeIS2_S2_EENS_8equal_toIS2_EENS_4hashIS2_EELb1EEEE6secondB8ue170006Ev, symObjAddr: 0x8D14, symBinAddr: 0x10000D268, symSize: 0x24 }
  - { offsetInCU: 0x1D76B, offset: 0x1D76B, size: 0x8, addend: 0x0, symName: __ZNSt3__122__compressed_pair_elemINS_21__unordered_map_equalI6CoordsNS_17__hash_value_typeIS2_S2_EENS_8equal_toIS2_EENS_4hashIS2_EELb1EEELi1ELb1EE5__getB8ue170006Ev, symObjAddr: 0x8D38, symBinAddr: 0x10000D28C, symSize: 0x14 }
  - { offsetInCU: 0x1D791, offset: 0x1D791, size: 0x8, addend: 0x0, symName: __ZNKSt3__117__hash_value_typeI6CoordsS1_E11__get_valueB8ue170006Ev, symObjAddr: 0x8D4C, symBinAddr: 0x10000D2A0, symSize: 0x24 }
  - { offsetInCU: 0x1D7B7, offset: 0x1D7B7, size: 0x8, addend: 0x0, symName: __ZNSt3__114pointer_traitsIPNS_16__hash_node_baseIPNS_11__hash_nodeINS_17__hash_value_typeI6CoordsS4_EEPvEEEEE10pointer_toB8ue170006ERS9_, symObjAddr: 0x8DA8, symBinAddr: 0x10000D2FC, symSize: 0x14 }
  - { offsetInCU: 0x1D7DA, offset: 0x1D7DA, size: 0x8, addend: 0x0, symName: __ZNSt3__115__hash_iteratorIPNS_11__hash_nodeINS_17__hash_value_typeI6CoordsS3_EEPvEEEC2B8ue170006EPNS_16__hash_node_baseIS7_EE, symObjAddr: 0x8DBC, symBinAddr: 0x10000D310, symSize: 0x20 }
  - { offsetInCU: 0x1D813, offset: 0x1D813, size: 0x8, addend: 0x0, symName: __ZNSt3__119__hash_map_iteratorINS_15__hash_iteratorIPNS_11__hash_nodeINS_17__hash_value_typeI6CoordsS4_EEPvEEEEEC2B8ue170006ES9_, symObjAddr: 0x8DDC, symBinAddr: 0x10000D330, symSize: 0x20 }
  - { offsetInCU: 0x1D84C, offset: 0x1D84C, size: 0x8, addend: 0x0, symName: __ZNSt3__112__hash_tableINS_17__hash_value_typeI6CoordsS2_EENS_22__unordered_map_hasherIS2_S3_NS_4hashIS2_EENS_8equal_toIS2_EELb1EEENS_21__unordered_map_equalIS2_S3_S8_S6_Lb1EEENS_9allocatorIS3_EEE25__emplace_unique_key_argsIS2_JRKNS_21piecewise_construct_tENS_5tupleIJRKS2_EEENSJ_IJEEEEEENS_4pairINS_15__hash_iteratorIPNS_11__hash_nodeIS3_PvEEEEbEERKT_DpOT0_, symObjAddr: 0x8E2C, symBinAddr: 0x10000D380, symSize: 0x4B0 }
  - { offsetInCU: 0x1D956, offset: 0x1D956, size: 0x8, addend: 0x0, symName: __ZNKSt3__115__hash_iteratorIPNS_11__hash_nodeINS_17__hash_value_typeI6CoordsS3_EEPvEEEptB8ue170006Ev, symObjAddr: 0x92DC, symBinAddr: 0x10000D830, symSize: 0x30 }
  - { offsetInCU: 0x1D97C, offset: 0x1D97C, size: 0x8, addend: 0x0, symName: __ZNSt3__117__hash_value_typeI6CoordsS1_E11__get_valueB8ue170006Ev, symObjAddr: 0x930C, symBinAddr: 0x10000D860, symSize: 0x24 }
  - { offsetInCU: 0x1D9A2, offset: 0x1D9A2, size: 0x8, addend: 0x0, symName: __ZNSt3__112__hash_tableINS_17__hash_value_typeI6CoordsS2_EENS_22__unordered_map_hasherIS2_S3_NS_4hashIS2_EENS_8equal_toIS2_EELb1EEENS_21__unordered_map_equalIS2_S3_S8_S6_Lb1EEENS_9allocatorIS3_EEE21__construct_node_hashIRKNS_21piecewise_construct_tEJNS_5tupleIJRKS2_EEENSJ_IJEEEEEENS_10unique_ptrINS_11__hash_nodeIS3_PvEENS_22__hash_node_destructorINSC_ISR_EEEEEEmOT_DpOT0_, symObjAddr: 0x9330, symBinAddr: 0x10000D884, symSize: 0x150 }
  - { offsetInCU: 0x1DA3E, offset: 0x1DA3E, size: 0x8, addend: 0x0, symName: __ZNSt3__112__hash_tableINS_17__hash_value_typeI6CoordsS2_EENS_22__unordered_map_hasherIS2_S3_NS_4hashIS2_EENS_8equal_toIS2_EELb1EEENS_21__unordered_map_equalIS2_S3_S8_S6_Lb1EEENS_9allocatorIS3_EEE4sizeB8ue170006Ev, symObjAddr: 0x9480, symBinAddr: 0x10000D9D4, symSize: 0x28 }
  - { offsetInCU: 0x1DA64, offset: 0x1DA64, size: 0x8, addend: 0x0, symName: __ZNSt3__112__hash_tableINS_17__hash_value_typeI6CoordsS2_EENS_22__unordered_map_hasherIS2_S3_NS_4hashIS2_EENS_8equal_toIS2_EELb1EEENS_21__unordered_map_equalIS2_S3_S8_S6_Lb1EEENS_9allocatorIS3_EEE15max_load_factorB8ue170006Ev, symObjAddr: 0x94A8, symBinAddr: 0x10000D9FC, symSize: 0x28 }
  - { offsetInCU: 0x1DA8A, offset: 0x1DA8A, size: 0x8, addend: 0x0, symName: __ZNSt3__112__hash_tableINS_17__hash_value_typeI6CoordsS2_EENS_22__unordered_map_hasherIS2_S3_NS_4hashIS2_EENS_8equal_toIS2_EELb1EEENS_21__unordered_map_equalIS2_S3_S8_S6_Lb1EEENS_9allocatorIS3_EEE15__rehash_uniqueB8ue170006Em, symObjAddr: 0x94D0, symBinAddr: 0x10000DA24, symSize: 0x2C }
  - { offsetInCU: 0x1DABF, offset: 0x1DABF, size: 0x8, addend: 0x0, symName: __ZNSt3__117__compressed_pairINS_16__hash_node_baseIPNS_11__hash_nodeINS_17__hash_value_typeI6CoordsS4_EEPvEEEENS_9allocatorIS7_EEE5firstB8ue170006Ev, symObjAddr: 0x94FC, symBinAddr: 0x10000DA50, symSize: 0x24 }
  - { offsetInCU: 0x1DAE5, offset: 0x1DAE5, size: 0x8, addend: 0x0, symName: __ZNSt3__116__hash_node_baseIPNS_11__hash_nodeINS_17__hash_value_typeI6CoordsS3_EEPvEEE5__ptrB8ue170006Ev, symObjAddr: 0x9520, symBinAddr: 0x10000DA74, symSize: 0x24 }
  - { offsetInCU: 0x1DB0B, offset: 0x1DB0B, size: 0x8, addend: 0x0, symName: __ZNKSt3__110unique_ptrINS_11__hash_nodeINS_17__hash_value_typeI6CoordsS3_EEPvEENS_22__hash_node_destructorINS_9allocatorIS6_EEEEEptB8ue170006Ev, symObjAddr: 0x9544, symBinAddr: 0x10000DA98, symSize: 0x28 }
  - { offsetInCU: 0x1DB31, offset: 0x1DB31, size: 0x8, addend: 0x0, symName: __ZNKSt3__110unique_ptrINS_11__hash_nodeINS_17__hash_value_typeI6CoordsS3_EEPvEENS_22__hash_node_destructorINS_9allocatorIS6_EEEEE3getB8ue170006Ev, symObjAddr: 0x956C, symBinAddr: 0x10000DAC0, symSize: 0x28 }
  - { offsetInCU: 0x1DB57, offset: 0x1DB57, size: 0x8, addend: 0x0, symName: __ZNSt3__110unique_ptrINS_11__hash_nodeINS_17__hash_value_typeI6CoordsS3_EEPvEENS_22__hash_node_destructorINS_9allocatorIS6_EEEEE7releaseB8ue170006Ev, symObjAddr: 0x9594, symBinAddr: 0x10000DAE8, symSize: 0x44 }
  - { offsetInCU: 0x1DB8C, offset: 0x1DB8C, size: 0x8, addend: 0x0, symName: __ZNSt3__110unique_ptrINS_11__hash_nodeINS_17__hash_value_typeI6CoordsS3_EEPvEENS_22__hash_node_destructorINS_9allocatorIS6_EEEEED1B8ue170006Ev, symObjAddr: 0x95D8, symBinAddr: 0x10000DB2C, symSize: 0x2C }
  - { offsetInCU: 0x1DBBC, offset: 0x1DBBC, size: 0x8, addend: 0x0, symName: __ZNSt3__14pairINS_15__hash_iteratorIPNS_11__hash_nodeINS_17__hash_value_typeI6CoordsS4_EEPvEEEEbEC1B8ue170006IS9_RbLS6_0EEEOT_OT0_, symObjAddr: 0x9604, symBinAddr: 0x10000DB58, symSize: 0x3C }
  - { offsetInCU: 0x1DC1A, offset: 0x1DC1A, size: 0x8, addend: 0x0, symName: __ZNSt3__112__hash_tableINS_17__hash_value_typeI6CoordsS2_EENS_22__unordered_map_hasherIS2_S3_NS_4hashIS2_EENS_8equal_toIS2_EELb1EEENS_21__unordered_map_equalIS2_S3_S8_S6_Lb1EEENS_9allocatorIS3_EEE12__node_allocB8ue170006Ev, symObjAddr: 0x9640, symBinAddr: 0x10000DB94, symSize: 0x28 }
  - { offsetInCU: 0x1DC40, offset: 0x1DC40, size: 0x8, addend: 0x0, symName: __ZNSt3__116allocator_traitsINS_9allocatorINS_11__hash_nodeINS_17__hash_value_typeI6CoordsS4_EEPvEEEEE8allocateB8ue170006ERS8_m, symObjAddr: 0x9668, symBinAddr: 0x10000DBBC, symSize: 0x2C }
  - { offsetInCU: 0x1DC73, offset: 0x1DC73, size: 0x8, addend: 0x0, symName: __ZNSt3__122__hash_node_destructorINS_9allocatorINS_11__hash_nodeINS_17__hash_value_typeI6CoordsS4_EEPvEEEEEC1B8ue170006ERS8_b, symObjAddr: 0x9694, symBinAddr: 0x10000DBE8, symSize: 0x48 }
  - { offsetInCU: 0x1DCC1, offset: 0x1DCC1, size: 0x8, addend: 0x0, symName: __ZNSt3__110unique_ptrINS_11__hash_nodeINS_17__hash_value_typeI6CoordsS3_EEPvEENS_22__hash_node_destructorINS_9allocatorIS6_EEEEEC1B8ue170006ILb1EvEEPS6_NS_16__dependent_typeINS_27__unique_ptr_deleter_sfinaeISA_EEXT_EE20__good_rval_ref_typeE, symObjAddr: 0x96DC, symBinAddr: 0x10000DC30, symSize: 0x3C }
  - { offsetInCU: 0x1DD12, offset: 0x1DD12, size: 0x8, addend: 0x0, symName: __ZNSt3__116allocator_traitsINS_9allocatorINS_11__hash_nodeINS_17__hash_value_typeI6CoordsS4_EEPvEEEEE9constructB8ue170006INS_4pairIKS4_S4_EEJRKNS_21piecewise_construct_tENS_5tupleIJRSC_EEENSH_IJEEEEvvEEvRS8_PT_DpOT0_, symObjAddr: 0x9718, symBinAddr: 0x10000DC6C, symSize: 0x40 }
  - { offsetInCU: 0x1DD8F, offset: 0x1DD8F, size: 0x8, addend: 0x0, symName: __ZNSt3__122__hash_key_value_typesINS_17__hash_value_typeI6CoordsS2_EEE9__get_ptrB8ue170006ERS3_, symObjAddr: 0x9758, symBinAddr: 0x10000DCAC, symSize: 0x24 }
  - { offsetInCU: 0x1DDB2, offset: 0x1DDB2, size: 0x8, addend: 0x0, symName: __ZNSt3__110unique_ptrINS_11__hash_nodeINS_17__hash_value_typeI6CoordsS3_EEPvEENS_22__hash_node_destructorINS_9allocatorIS6_EEEEE11get_deleterB8ue170006Ev, symObjAddr: 0x977C, symBinAddr: 0x10000DCD0, symSize: 0x24 }
  - { offsetInCU: 0x1DDD8, offset: 0x1DDD8, size: 0x8, addend: 0x0, symName: __ZNSt3__117__compressed_pairINS_16__hash_node_baseIPNS_11__hash_nodeINS_17__hash_value_typeI6CoordsS4_EEPvEEEENS_9allocatorIS7_EEE6secondB8ue170006Ev, symObjAddr: 0x97A0, symBinAddr: 0x10000DCF4, symSize: 0x24 }
  - { offsetInCU: 0x1DDFE, offset: 0x1DDFE, size: 0x8, addend: 0x0, symName: __ZNSt3__122__compressed_pair_elemINS_9allocatorINS_11__hash_nodeINS_17__hash_value_typeI6CoordsS4_EEPvEEEELi1ELb1EE5__getB8ue170006Ev, symObjAddr: 0x97C4, symBinAddr: 0x10000DD18, symSize: 0x14 }
  - { offsetInCU: 0x1DE24, offset: 0x1DE24, size: 0x8, addend: 0x0, symName: __ZNSt3__19allocatorINS_11__hash_nodeINS_17__hash_value_typeI6CoordsS3_EEPvEEE8allocateB8ue170006Em, symObjAddr: 0x97D8, symBinAddr: 0x10000DD2C, symSize: 0x58 }
  - { offsetInCU: 0x1DE63, offset: 0x1DE63, size: 0x8, addend: 0x0, symName: __ZNSt3__116allocator_traitsINS_9allocatorINS_11__hash_nodeINS_17__hash_value_typeI6CoordsS4_EEPvEEEEE8max_sizeB8ue170006IS8_vvEEmRKS8_, symObjAddr: 0x9830, symBinAddr: 0x10000DD84, symSize: 0x28 }
  - { offsetInCU: 0x1DE8F, offset: 0x1DE8F, size: 0x8, addend: 0x0, symName: __ZNSt3__122__hash_node_destructorINS_9allocatorINS_11__hash_nodeINS_17__hash_value_typeI6CoordsS4_EEPvEEEEEC2B8ue170006ERS8_b, symObjAddr: 0x9858, symBinAddr: 0x10000DDAC, symSize: 0x38 }
  - { offsetInCU: 0x1DED7, offset: 0x1DED7, size: 0x8, addend: 0x0, symName: __ZNSt3__110unique_ptrINS_11__hash_nodeINS_17__hash_value_typeI6CoordsS3_EEPvEENS_22__hash_node_destructorINS_9allocatorIS6_EEEEEC2B8ue170006ILb1EvEEPS6_NS_16__dependent_typeINS_27__unique_ptr_deleter_sfinaeISA_EEXT_EE20__good_rval_ref_typeE, symObjAddr: 0x9890, symBinAddr: 0x10000DDE4, symSize: 0x48 }
  - { offsetInCU: 0x1DF28, offset: 0x1DF28, size: 0x8, addend: 0x0, symName: __ZNSt3__117__compressed_pairIPNS_11__hash_nodeINS_17__hash_value_typeI6CoordsS3_EEPvEENS_22__hash_node_destructorINS_9allocatorIS6_EEEEEC1B8ue170006IRS7_SB_EEOT_OT0_, symObjAddr: 0x98D8, symBinAddr: 0x10000DE2C, symSize: 0x3C }
  - { offsetInCU: 0x1DF80, offset: 0x1DF80, size: 0x8, addend: 0x0, symName: __ZNSt3__117__compressed_pairIPNS_11__hash_nodeINS_17__hash_value_typeI6CoordsS3_EEPvEENS_22__hash_node_destructorINS_9allocatorIS6_EEEEEC2B8ue170006IRS7_SB_EEOT_OT0_, symObjAddr: 0x9914, symBinAddr: 0x10000DE68, symSize: 0x48 }
  - { offsetInCU: 0x1DFD8, offset: 0x1DFD8, size: 0x8, addend: 0x0, symName: __ZNSt3__122__compressed_pair_elemIPNS_11__hash_nodeINS_17__hash_value_typeI6CoordsS3_EEPvEELi0ELb0EEC2B8ue170006IRS7_vEEOT_, symObjAddr: 0x995C, symBinAddr: 0x10000DEB0, symSize: 0x24 }
  - { offsetInCU: 0x1E01A, offset: 0x1E01A, size: 0x8, addend: 0x0, symName: __ZNSt3__122__compressed_pair_elemINS_22__hash_node_destructorINS_9allocatorINS_11__hash_nodeINS_17__hash_value_typeI6CoordsS5_EEPvEEEEEELi1ELb0EEC2B8ue170006ISA_vEEOT_, symObjAddr: 0x9980, symBinAddr: 0x10000DED4, symSize: 0x24 }
  - { offsetInCU: 0x1E05C, offset: 0x1E05C, size: 0x8, addend: 0x0, symName: __ZNSt3__14pairIK6CoordsS1_EC1B8ue170006IJRS2_EJEEENS_21piecewise_construct_tENS_5tupleIJDpT_EEENS7_IJDpT0_EEE, symObjAddr: 0x99F4, symBinAddr: 0x10000DF48, symSize: 0x3C }
  - { offsetInCU: 0x1E0C3, offset: 0x1E0C3, size: 0x8, addend: 0x0, symName: __ZNSt3__14pairIK6CoordsS1_EC1B8ue170006IJRS2_EJEJLm0EEJEEENS_21piecewise_construct_tERNS_5tupleIJDpT_EEERNS7_IJDpT0_EEENS_15__tuple_indicesIJXspT1_EEEENSG_IJXspT2_EEEE, symObjAddr: 0x9A30, symBinAddr: 0x10000DF84, symSize: 0x3C }
  - { offsetInCU: 0x1E153, offset: 0x1E153, size: 0x8, addend: 0x0, symName: __ZNSt3__14pairIK6CoordsS1_EC2B8ue170006IJRS2_EJEJLm0EEJEEENS_21piecewise_construct_tERNS_5tupleIJDpT_EEERNS7_IJDpT0_EEENS_15__tuple_indicesIJXspT1_EEEENSG_IJXspT2_EEEE, symObjAddr: 0x9A6C, symBinAddr: 0x10000DFC0, symSize: 0x54 }
  - { offsetInCU: 0x1E1E3, offset: 0x1E1E3, size: 0x8, addend: 0x0, symName: __ZNSt3__117__compressed_pairIPNS_11__hash_nodeINS_17__hash_value_typeI6CoordsS3_EEPvEENS_22__hash_node_destructorINS_9allocatorIS6_EEEEE6secondB8ue170006Ev, symObjAddr: 0x9AC0, symBinAddr: 0x10000E014, symSize: 0x28 }
  - { offsetInCU: 0x1E209, offset: 0x1E209, size: 0x8, addend: 0x0, symName: __ZNSt3__122__compressed_pair_elemINS_22__hash_node_destructorINS_9allocatorINS_11__hash_nodeINS_17__hash_value_typeI6CoordsS5_EEPvEEEEEELi1ELb0EE5__getB8ue170006Ev, symObjAddr: 0x9AE8, symBinAddr: 0x10000E03C, symSize: 0x14 }
  - { offsetInCU: 0x1E22F, offset: 0x1E22F, size: 0x8, addend: 0x0, symName: __ZNSt3__117__compressed_pairImNS_22__unordered_map_hasherI6CoordsNS_17__hash_value_typeIS2_S2_EENS_4hashIS2_EENS_8equal_toIS2_EELb1EEEE5firstB8ue170006Ev, symObjAddr: 0x9AFC, symBinAddr: 0x10000E050, symSize: 0x24 }
  - { offsetInCU: 0x1E255, offset: 0x1E255, size: 0x8, addend: 0x0, symName: __ZNSt3__117__compressed_pairIfNS_21__unordered_map_equalI6CoordsNS_17__hash_value_typeIS2_S2_EENS_8equal_toIS2_EENS_4hashIS2_EELb1EEEE5firstB8ue170006Ev, symObjAddr: 0x9B20, symBinAddr: 0x10000E074, symSize: 0x24 }
  - { offsetInCU: 0x1E27B, offset: 0x1E27B, size: 0x8, addend: 0x0, symName: __ZNSt3__112__hash_tableINS_17__hash_value_typeI6CoordsS2_EENS_22__unordered_map_hasherIS2_S3_NS_4hashIS2_EENS_8equal_toIS2_EELb1EEENS_21__unordered_map_equalIS2_S3_S8_S6_Lb1EEENS_9allocatorIS3_EEE8__rehashILb1EEEvm, symObjAddr: 0x9B44, symBinAddr: 0x10000E098, symSize: 0x1A8 }
  - { offsetInCU: 0x1E2CB, offset: 0x1E2CB, size: 0x8, addend: 0x0, symName: __ZNSt3__112__hash_tableINS_17__hash_value_typeI6CoordsS2_EENS_22__unordered_map_hasherIS2_S3_NS_4hashIS2_EENS_8equal_toIS2_EELb1EEENS_21__unordered_map_equalIS2_S3_S8_S6_Lb1EEENS_9allocatorIS3_EEE11__do_rehashILb1EEEvm, symObjAddr: 0x9CEC, symBinAddr: 0x10000E240, symSize: 0x288 }
  - { offsetInCU: 0x1E3AE, offset: 0x1E3AE, size: 0x8, addend: 0x0, symName: __ZNSt3__110unique_ptrIA_PNS_16__hash_node_baseIPNS_11__hash_nodeINS_17__hash_value_typeI6CoordsS4_EEPvEEEENS_25__bucket_list_deallocatorINS_9allocatorISA_EEEEE11get_deleterB8ue170006Ev, symObjAddr: 0x9F74, symBinAddr: 0x10000E4C8, symSize: 0x24 }
  - { offsetInCU: 0x1E3D4, offset: 0x1E3D4, size: 0x8, addend: 0x0, symName: __ZNSt3__125__bucket_list_deallocatorINS_9allocatorIPNS_16__hash_node_baseIPNS_11__hash_nodeINS_17__hash_value_typeI6CoordsS5_EEPvEEEEEEE7__allocB8ue170006Ev, symObjAddr: 0x9F98, symBinAddr: 0x10000E4EC, symSize: 0x24 }
  - { offsetInCU: 0x1E3FA, offset: 0x1E3FA, size: 0x8, addend: 0x0, symName: __ZNSt3__110unique_ptrIA_PNS_16__hash_node_baseIPNS_11__hash_nodeINS_17__hash_value_typeI6CoordsS4_EEPvEEEENS_25__bucket_list_deallocatorINS_9allocatorISA_EEEEE5resetB8ue170006IPSA_EENS_9enable_ifIXsr28_CheckArrayPointerConversionIT_EE5valueEvE4typeESK_, symObjAddr: 0x9FBC, symBinAddr: 0x10000E510, symSize: 0x78 }
  - { offsetInCU: 0x1E447, offset: 0x1E447, size: 0x8, addend: 0x0, symName: __ZNSt3__116allocator_traitsINS_9allocatorIPNS_16__hash_node_baseIPNS_11__hash_nodeINS_17__hash_value_typeI6CoordsS5_EEPvEEEEEEE8allocateB8ue170006ERSC_m, symObjAddr: 0xA034, symBinAddr: 0x10000E588, symSize: 0x2C }
  - { offsetInCU: 0x1E47A, offset: 0x1E47A, size: 0x8, addend: 0x0, symName: __ZNSt3__125__bucket_list_deallocatorINS_9allocatorIPNS_16__hash_node_baseIPNS_11__hash_nodeINS_17__hash_value_typeI6CoordsS5_EEPvEEEEEEE4sizeB8ue170006Ev, symObjAddr: 0xA060, symBinAddr: 0x10000E5B4, symSize: 0x24 }
  - { offsetInCU: 0x1E4A0, offset: 0x1E4A0, size: 0x8, addend: 0x0, symName: __ZNSt3__117__compressed_pairIPPNS_16__hash_node_baseIPNS_11__hash_nodeINS_17__hash_value_typeI6CoordsS4_EEPvEEEENS_25__bucket_list_deallocatorINS_9allocatorISA_EEEEE6secondB8ue170006Ev, symObjAddr: 0xA084, symBinAddr: 0x10000E5D8, symSize: 0x28 }
  - { offsetInCU: 0x1E4C6, offset: 0x1E4C6, size: 0x8, addend: 0x0, symName: __ZNSt3__122__compressed_pair_elemINS_25__bucket_list_deallocatorINS_9allocatorIPNS_16__hash_node_baseIPNS_11__hash_nodeINS_17__hash_value_typeI6CoordsS6_EEPvEEEEEEEELi1ELb0EE5__getB8ue170006Ev, symObjAddr: 0xA0AC, symBinAddr: 0x10000E600, symSize: 0x14 }
  - { offsetInCU: 0x1E4EC, offset: 0x1E4EC, size: 0x8, addend: 0x0, symName: __ZNSt3__117__compressed_pairImNS_9allocatorIPNS_16__hash_node_baseIPNS_11__hash_nodeINS_17__hash_value_typeI6CoordsS5_EEPvEEEEEEE6secondB8ue170006Ev, symObjAddr: 0xA0C0, symBinAddr: 0x10000E614, symSize: 0x24 }
  - { offsetInCU: 0x1E512, offset: 0x1E512, size: 0x8, addend: 0x0, symName: __ZNSt3__122__compressed_pair_elemINS_9allocatorIPNS_16__hash_node_baseIPNS_11__hash_nodeINS_17__hash_value_typeI6CoordsS5_EEPvEEEEEELi1ELb1EE5__getB8ue170006Ev, symObjAddr: 0xA0E4, symBinAddr: 0x10000E638, symSize: 0x14 }
  - { offsetInCU: 0x1E538, offset: 0x1E538, size: 0x8, addend: 0x0, symName: __ZNSt3__117__compressed_pairIPPNS_16__hash_node_baseIPNS_11__hash_nodeINS_17__hash_value_typeI6CoordsS4_EEPvEEEENS_25__bucket_list_deallocatorINS_9allocatorISA_EEEEE5firstB8ue170006Ev, symObjAddr: 0xA0F8, symBinAddr: 0x10000E64C, symSize: 0x24 }
  - { offsetInCU: 0x1E55E, offset: 0x1E55E, size: 0x8, addend: 0x0, symName: __ZNSt3__125__bucket_list_deallocatorINS_9allocatorIPNS_16__hash_node_baseIPNS_11__hash_nodeINS_17__hash_value_typeI6CoordsS5_EEPvEEEEEEEclB8ue170006EPSB_, symObjAddr: 0xA11C, symBinAddr: 0x10000E670, symSize: 0x58 }
  - { offsetInCU: 0x1E593, offset: 0x1E593, size: 0x8, addend: 0x0, symName: __ZNSt3__122__compressed_pair_elemIPPNS_16__hash_node_baseIPNS_11__hash_nodeINS_17__hash_value_typeI6CoordsS4_EEPvEEEELi0ELb0EE5__getB8ue170006Ev, symObjAddr: 0xA174, symBinAddr: 0x10000E6C8, symSize: 0x14 }
  - { offsetInCU: 0x1E5B9, offset: 0x1E5B9, size: 0x8, addend: 0x0, symName: __ZNSt3__116allocator_traitsINS_9allocatorIPNS_16__hash_node_baseIPNS_11__hash_nodeINS_17__hash_value_typeI6CoordsS5_EEPvEEEEEEE10deallocateB8ue170006ERSC_PSB_m, symObjAddr: 0xA188, symBinAddr: 0x10000E6DC, symSize: 0x34 }
  - { offsetInCU: 0x1E5FB, offset: 0x1E5FB, size: 0x8, addend: 0x0, symName: __ZNSt3__19allocatorIPNS_16__hash_node_baseIPNS_11__hash_nodeINS_17__hash_value_typeI6CoordsS4_EEPvEEEEE10deallocateB8ue170006EPSA_m, symObjAddr: 0xA1BC, symBinAddr: 0x10000E710, symSize: 0x40 }
  - { offsetInCU: 0x1E63D, offset: 0x1E63D, size: 0x8, addend: 0x0, symName: __ZNSt3__19allocatorIPNS_16__hash_node_baseIPNS_11__hash_nodeINS_17__hash_value_typeI6CoordsS4_EEPvEEEEE8allocateB8ue170006Em, symObjAddr: 0xA1FC, symBinAddr: 0x10000E750, symSize: 0x58 }
  - { offsetInCU: 0x1E67C, offset: 0x1E67C, size: 0x8, addend: 0x0, symName: __ZNSt3__116allocator_traitsINS_9allocatorIPNS_16__hash_node_baseIPNS_11__hash_nodeINS_17__hash_value_typeI6CoordsS5_EEPvEEEEEEE8max_sizeB8ue170006ISC_vvEEmRKSC_, symObjAddr: 0xA254, symBinAddr: 0x10000E7A8, symSize: 0x28 }
  - { offsetInCU: 0x1E6A8, offset: 0x1E6A8, size: 0x8, addend: 0x0, symName: __ZNSt3__117__compressed_pairImNS_9allocatorIPNS_16__hash_node_baseIPNS_11__hash_nodeINS_17__hash_value_typeI6CoordsS5_EEPvEEEEEEE5firstB8ue170006Ev, symObjAddr: 0xA27C, symBinAddr: 0x10000E7D0, symSize: 0x24 }
  - { offsetInCU: 0x1E6CE, offset: 0x1E6CE, size: 0x8, addend: 0x0, symName: __ZNSt3__122__compressed_pair_elemINS_16__hash_node_baseIPNS_11__hash_nodeINS_17__hash_value_typeI6CoordsS4_EEPvEEEELi0ELb0EE5__getB8ue170006Ev, symObjAddr: 0xA2A0, symBinAddr: 0x10000E7F4, symSize: 0x14 }
  - { offsetInCU: 0x1E6F4, offset: 0x1E6F4, size: 0x8, addend: 0x0, symName: __ZNKSt3__117__compressed_pairIPNS_11__hash_nodeINS_17__hash_value_typeI6CoordsS3_EEPvEENS_22__hash_node_destructorINS_9allocatorIS6_EEEEE5firstB8ue170006Ev, symObjAddr: 0xA2B4, symBinAddr: 0x10000E808, symSize: 0x24 }
  - { offsetInCU: 0x1E71A, offset: 0x1E71A, size: 0x8, addend: 0x0, symName: __ZNKSt3__122__compressed_pair_elemIPNS_11__hash_nodeINS_17__hash_value_typeI6CoordsS3_EEPvEELi0ELb0EE5__getB8ue170006Ev, symObjAddr: 0xA2D8, symBinAddr: 0x10000E82C, symSize: 0x14 }
  - { offsetInCU: 0x1E740, offset: 0x1E740, size: 0x8, addend: 0x0, symName: __ZNSt3__117__compressed_pairIPNS_11__hash_nodeINS_17__hash_value_typeI6CoordsS3_EEPvEENS_22__hash_node_destructorINS_9allocatorIS6_EEEEE5firstB8ue170006Ev, symObjAddr: 0xA2EC, symBinAddr: 0x10000E840, symSize: 0x24 }
  - { offsetInCU: 0x1E766, offset: 0x1E766, size: 0x8, addend: 0x0, symName: __ZNSt3__122__compressed_pair_elemIPNS_11__hash_nodeINS_17__hash_value_typeI6CoordsS3_EEPvEELi0ELb0EE5__getB8ue170006Ev, symObjAddr: 0xA310, symBinAddr: 0x10000E864, symSize: 0x14 }
  - { offsetInCU: 0x1E78C, offset: 0x1E78C, size: 0x8, addend: 0x0, symName: __ZNSt3__110unique_ptrINS_11__hash_nodeINS_17__hash_value_typeI6CoordsS3_EEPvEENS_22__hash_node_destructorINS_9allocatorIS6_EEEEED2B8ue170006Ev, symObjAddr: 0xA324, symBinAddr: 0x10000E878, symSize: 0x30 }
  - { offsetInCU: 0x1E7B6, offset: 0x1E7B6, size: 0x8, addend: 0x0, symName: __ZNSt3__110unique_ptrINS_11__hash_nodeINS_17__hash_value_typeI6CoordsS3_EEPvEENS_22__hash_node_destructorINS_9allocatorIS6_EEEEE5resetB8ue170006EPS6_, symObjAddr: 0xA354, symBinAddr: 0x10000E8A8, symSize: 0x78 }
  - { offsetInCU: 0x1E7FA, offset: 0x1E7FA, size: 0x8, addend: 0x0, symName: __ZNSt3__122__hash_node_destructorINS_9allocatorINS_11__hash_nodeINS_17__hash_value_typeI6CoordsS4_EEPvEEEEEclB8ue170006EPS7_, symObjAddr: 0xA3CC, symBinAddr: 0x10000E920, symSize: 0x98 }
  - { offsetInCU: 0x1E82F, offset: 0x1E82F, size: 0x8, addend: 0x0, symName: __ZNSt3__116allocator_traitsINS_9allocatorINS_11__hash_nodeINS_17__hash_value_typeI6CoordsS4_EEPvEEEEE7destroyB8ue170006INS_4pairIKS4_S4_EEvvEEvRS8_PT_, symObjAddr: 0xA464, symBinAddr: 0x10000E9B8, symSize: 0x28 }
  - { offsetInCU: 0x1E86A, offset: 0x1E86A, size: 0x8, addend: 0x0, symName: __ZNSt3__116allocator_traitsINS_9allocatorINS_11__hash_nodeINS_17__hash_value_typeI6CoordsS4_EEPvEEEEE10deallocateB8ue170006ERS8_PS7_m, symObjAddr: 0xA48C, symBinAddr: 0x10000E9E0, symSize: 0x34 }
  - { offsetInCU: 0x1E8AC, offset: 0x1E8AC, size: 0x8, addend: 0x0, symName: __ZNSt3__19allocatorINS_11__hash_nodeINS_17__hash_value_typeI6CoordsS3_EEPvEEE10deallocateB8ue170006EPS6_m, symObjAddr: 0xA4F4, symBinAddr: 0x10000EA48, symSize: 0x40 }
  - { offsetInCU: 0x1E8EE, offset: 0x1E8EE, size: 0x8, addend: 0x0, symName: __ZNSt3__14pairINS_15__hash_iteratorIPNS_11__hash_nodeINS_17__hash_value_typeI6CoordsS4_EEPvEEEEbEC2B8ue170006IS9_RbLS6_0EEEOT_OT0_, symObjAddr: 0xA534, symBinAddr: 0x10000EA88, symSize: 0x38 }
  - { offsetInCU: 0x1E94C, offset: 0x1E94C, size: 0x8, addend: 0x0, symName: __ZNSt3__114pointer_traitsIPNS_17__hash_value_typeI6CoordsS2_EEE10pointer_toB8ue170006ERS3_, symObjAddr: 0xA56C, symBinAddr: 0x10000EAC0, symSize: 0x14 }
  - { offsetInCU: 0x1E96F, offset: 0x1E96F, size: 0x8, addend: 0x0, symName: __ZNSt3__15dequeI6CoordsNS_9allocatorIS1_EEE7__allocB8ue170006Ev, symObjAddr: 0xA5B8, symBinAddr: 0x10000EB0C, symSize: 0x28 }
  - { offsetInCU: 0x1E995, offset: 0x1E995, size: 0x8, addend: 0x0, symName: __ZNKSt3__15dequeI6CoordsNS_9allocatorIS1_EEE12__back_spareB8ue170006Ev, symObjAddr: 0xA5E0, symBinAddr: 0x10000EB34, symSize: 0x54 }
  - { offsetInCU: 0x1E9BB, offset: 0x1E9BB, size: 0x8, addend: 0x0, symName: __ZNSt3__15dequeI6CoordsNS_9allocatorIS1_EEE19__add_back_capacityEv, symObjAddr: 0xA634, symBinAddr: 0x10000EB88, symSize: 0x34C }
  - { offsetInCU: 0x1EA70, offset: 0x1EA70, size: 0x8, addend: 0x0, symName: __ZNKSt3__15dequeI6CoordsNS_9allocatorIS1_EEE24__annotate_increase_backB8ue170006Em, symObjAddr: 0xA980, symBinAddr: 0x10000EED4, symSize: 0x7C }
  - { offsetInCU: 0x1EAA5, offset: 0x1EAA5, size: 0x8, addend: 0x0, symName: __ZNSt3__15dequeI6CoordsNS_9allocatorIS1_EEE3endB8ue170006Ev, symObjAddr: 0xA9FC, symBinAddr: 0x10000EF50, symSize: 0xCC }
  - { offsetInCU: 0x1EAE9, offset: 0x1EAE9, size: 0x8, addend: 0x0, symName: __ZNKSt3__116__deque_iteratorI6CoordsPS1_RS1_PS2_lLl512EEdeB8ue170006Ev, symObjAddr: 0xAAC8, symBinAddr: 0x10000F01C, symSize: 0x18 }
  - { offsetInCU: 0x1EB0F, offset: 0x1EB0F, size: 0x8, addend: 0x0, symName: __ZNSt3__15dequeI6CoordsNS_9allocatorIS1_EEE6__sizeB8ue170006Ev, symObjAddr: 0xAAE0, symBinAddr: 0x10000F034, symSize: 0x28 }
  - { offsetInCU: 0x1EB35, offset: 0x1EB35, size: 0x8, addend: 0x0, symName: __ZNSt3__117__compressed_pairImNS_9allocatorI6CoordsEEE6secondB8ue170006Ev, symObjAddr: 0xAB08, symBinAddr: 0x10000F05C, symSize: 0x24 }
  - { offsetInCU: 0x1EB5B, offset: 0x1EB5B, size: 0x8, addend: 0x0, symName: __ZNKSt3__15dequeI6CoordsNS_9allocatorIS1_EEE10__capacityB8ue170006Ev, symObjAddr: 0xAB2C, symBinAddr: 0x10000F080, symSize: 0x60 }
  - { offsetInCU: 0x1EB81, offset: 0x1EB81, size: 0x8, addend: 0x0, symName: __ZNKSt3__114__split_bufferIP6CoordsNS_9allocatorIS2_EEE4sizeB8ue170006Ev, symObjAddr: 0xAB8C, symBinAddr: 0x10000F0E0, symSize: 0x28 }
  - { offsetInCU: 0x1EBA7, offset: 0x1EBA7, size: 0x8, addend: 0x0, symName: __ZNKSt3__15dequeI6CoordsNS_9allocatorIS1_EEE13__front_spareB8ue170006Ev, symObjAddr: 0xABB4, symBinAddr: 0x10000F108, symSize: 0x18 }
  - { offsetInCU: 0x1EBCD, offset: 0x1EBCD, size: 0x8, addend: 0x0, symName: __ZNSt3__114__split_bufferIP6CoordsNS_9allocatorIS2_EEE5frontB8ue170006Ev, symObjAddr: 0xABCC, symBinAddr: 0x10000F120, symSize: 0x18 }
  - { offsetInCU: 0x1EBF3, offset: 0x1EBF3, size: 0x8, addend: 0x0, symName: __ZNSt3__114__split_bufferIP6CoordsNS_9allocatorIS2_EEE9pop_frontB8ue170006Ev, symObjAddr: 0xABE4, symBinAddr: 0x10000F138, symSize: 0x2C }
  - { offsetInCU: 0x1EC19, offset: 0x1EC19, size: 0x8, addend: 0x0, symName: __ZNSt3__114__split_bufferIP6CoordsNS_9allocatorIS2_EEE9push_backB8ue170006ERKS2_, symObjAddr: 0xAC10, symBinAddr: 0x10000F164, symSize: 0x260 }
  - { offsetInCU: 0x1EC91, offset: 0x1EC91, size: 0x8, addend: 0x0, symName: __ZNKSt3__114__split_bufferIP6CoordsNS_9allocatorIS2_EEE8capacityB8ue170006Ev, symObjAddr: 0xAE70, symBinAddr: 0x10000F3C4, symSize: 0x40 }
  - { offsetInCU: 0x1ECB7, offset: 0x1ECB7, size: 0x8, addend: 0x0, symName: __ZNKSt3__114__split_bufferIP6CoordsNS_9allocatorIS2_EEE12__back_spareB8ue170006Ev, symObjAddr: 0xAEB0, symBinAddr: 0x10000F404, symSize: 0x40 }
  - { offsetInCU: 0x1ECDD, offset: 0x1ECDD, size: 0x8, addend: 0x0, symName: __ZNSt3__114__split_bufferIP6CoordsNS_9allocatorIS2_EEE9push_backEOS2_, symObjAddr: 0xAEF0, symBinAddr: 0x10000F444, symSize: 0x260 }
  - { offsetInCU: 0x1ED55, offset: 0x1ED55, size: 0x8, addend: 0x0, symName: __ZNSt3__116allocator_traitsINS_9allocatorI6CoordsEEE8allocateB8ue170006ERS3_m, symObjAddr: 0xB150, symBinAddr: 0x10000F6A4, symSize: 0x2C }
  - { offsetInCU: 0x1ED88, offset: 0x1ED88, size: 0x8, addend: 0x0, symName: __ZNSt3__114__split_bufferIP6CoordsNS_9allocatorIS2_EEE10push_frontEOS2_, symObjAddr: 0xB17C, symBinAddr: 0x10000F6D0, symSize: 0x25C }
  - { offsetInCU: 0x1EE00, offset: 0x1EE00, size: 0x8, addend: 0x0, symName: __ZNKSt3__15dequeI6CoordsNS_9allocatorIS1_EEE22__annotate_whole_blockB8ue170006EmNS4_22__asan_annotation_typeE, symObjAddr: 0xB3D8, symBinAddr: 0x10000F92C, symSize: 0xAC }
  - { offsetInCU: 0x1EE71, offset: 0x1EE71, size: 0x8, addend: 0x0, symName: __ZNSt3__114__split_bufferIP6CoordsNS_9allocatorIS2_EEE7__allocB8ue170006Ev, symObjAddr: 0xB484, symBinAddr: 0x10000F9D8, symSize: 0x28 }
  - { offsetInCU: 0x1EE97, offset: 0x1EE97, size: 0x8, addend: 0x0, symName: __ZNSt3__114__split_bufferIP6CoordsRNS_9allocatorIS2_EEEC1EmmS5_, symObjAddr: 0xB4AC, symBinAddr: 0x10000FA00, symSize: 0x44 }
  - { offsetInCU: 0x1EEF3, offset: 0x1EEF3, size: 0x8, addend: 0x0, symName: __ZNSt3__122__allocator_destructorINS_9allocatorI6CoordsEEEC1B8ue170006ERS3_m, symObjAddr: 0xB4F0, symBinAddr: 0x10000FA44, symSize: 0x3C }
  - { offsetInCU: 0x1EFB2, offset: 0x1EFB2, size: 0x8, addend: 0x0, symName: __ZNSt3__110unique_ptrIP6CoordsNS_22__allocator_destructorINS_9allocatorIS1_EEEEEC1B8ue170006ILb1EvEES2_NS_16__dependent_typeINS_27__unique_ptr_deleter_sfinaeIS6_EEXT_EE20__good_rval_ref_typeE, symObjAddr: 0xB52C, symBinAddr: 0x10000FA80, symSize: 0x3C }
  - { offsetInCU: 0x1F003, offset: 0x1F003, size: 0x8, addend: 0x0, symName: __ZNSt3__114__split_bufferIP6CoordsRNS_9allocatorIS2_EEE9push_backEOS2_, symObjAddr: 0xB568, symBinAddr: 0x10000FABC, symSize: 0x260 }
  - { offsetInCU: 0x1F07B, offset: 0x1F07B, size: 0x8, addend: 0x0, symName: __ZNKSt3__110unique_ptrIP6CoordsNS_22__allocator_destructorINS_9allocatorIS1_EEEEE3getB8ue170006Ev, symObjAddr: 0xB7C8, symBinAddr: 0x10000FD1C, symSize: 0x28 }
  - { offsetInCU: 0x1F0A1, offset: 0x1F0A1, size: 0x8, addend: 0x0, symName: __ZNSt3__110unique_ptrIP6CoordsNS_22__allocator_destructorINS_9allocatorIS1_EEEEE7releaseB8ue170006Ev, symObjAddr: 0xB7F0, symBinAddr: 0x10000FD44, symSize: 0x44 }
  - { offsetInCU: 0x1F0D6, offset: 0x1F0D6, size: 0x8, addend: 0x0, symName: __ZNSt3__114__split_bufferIP6CoordsNS_9allocatorIS2_EEE3endB8ue170006Ev, symObjAddr: 0xB834, symBinAddr: 0x10000FD88, symSize: 0x18 }
  - { offsetInCU: 0x1F0FC, offset: 0x1F0FC, size: 0x8, addend: 0x0, symName: __ZNSt3__114__split_bufferIP6CoordsNS_9allocatorIS2_EEE5beginB8ue170006Ev, symObjAddr: 0xB84C, symBinAddr: 0x10000FDA0, symSize: 0x18 }
  - { offsetInCU: 0x1F122, offset: 0x1F122, size: 0x8, addend: 0x0, symName: __ZNSt3__114__split_bufferIP6CoordsRNS_9allocatorIS2_EEE10push_frontERKS2_, symObjAddr: 0xB864, symBinAddr: 0x10000FDB8, symSize: 0x25C }
  - { offsetInCU: 0x1F19A, offset: 0x1F19A, size: 0x8, addend: 0x0, symName: __ZNSt3__114__split_bufferIP6CoordsNS_9allocatorIS2_EEE9__end_capB8ue170006Ev, symObjAddr: 0xBAFC, symBinAddr: 0x100010050, symSize: 0x28 }
  - { offsetInCU: 0x1F1C0, offset: 0x1F1C0, size: 0x8, addend: 0x0, symName: __ZNSt3__114__split_bufferIP6CoordsRNS_9allocatorIS2_EEE9__end_capB8ue170006Ev, symObjAddr: 0xBB24, symBinAddr: 0x100010078, symSize: 0x28 }
  - { offsetInCU: 0x1F1E6, offset: 0x1F1E6, size: 0x8, addend: 0x0, symName: __ZNSt3__110unique_ptrIP6CoordsNS_22__allocator_destructorINS_9allocatorIS1_EEEEED1B8ue170006Ev, symObjAddr: 0xBB4C, symBinAddr: 0x1000100A0, symSize: 0x2C }
  - { offsetInCU: 0x1F210, offset: 0x1F210, size: 0x8, addend: 0x0, symName: __ZNSt3__114__split_bufferIP6CoordsRNS_9allocatorIS2_EEED1Ev, symObjAddr: 0xBB78, symBinAddr: 0x1000100CC, symSize: 0x2C }
  - { offsetInCU: 0x1F23C, offset: 0x1F23C, size: 0x8, addend: 0x0, symName: __ZNSt3__114__split_bufferIP6CoordsNS_9allocatorIS2_EEE19__destruct_at_beginB8ue170006EPS2_, symObjAddr: 0xBBA4, symBinAddr: 0x1000100F8, symSize: 0x2C }
  - { offsetInCU: 0x1F270, offset: 0x1F270, size: 0x8, addend: 0x0, symName: __ZNSt3__114__split_bufferIP6CoordsNS_9allocatorIS2_EEE19__destruct_at_beginEPS2_NS_17integral_constantIbLb1EEE, symObjAddr: 0xBBD0, symBinAddr: 0x100010124, symSize: 0x20 }
  - { offsetInCU: 0x1F2B1, offset: 0x1F2B1, size: 0x8, addend: 0x0, symName: __ZNSt3__114__split_bufferIP6CoordsRNS_9allocatorIS2_EEE18__construct_at_endINS_13move_iteratorIPS2_EEEENS_9enable_ifIXsr31__has_forward_iterator_categoryIT_EE5valueEvE4typeESC_SC_, symObjAddr: 0xBC30, symBinAddr: 0x100010184, symSize: 0x60 }
  - { offsetInCU: 0x1F2FE, offset: 0x1F2FE, size: 0x8, addend: 0x0, symName: __ZNSt3__113move_iteratorIPP6CoordsEC1B8ue170006ES3_, symObjAddr: 0xBC90, symBinAddr: 0x1000101E4, symSize: 0x34 }
  - { offsetInCU: 0x1F336, offset: 0x1F336, size: 0x8, addend: 0x0, symName: __ZNSt3__116allocator_traitsINS_9allocatorIP6CoordsEEE9constructB8ue170006IS3_JRKS3_EvvEEvRS4_PT_DpOT0_, symObjAddr: 0xBCC4, symBinAddr: 0x100010218, symSize: 0x30 }
  - { offsetInCU: 0x1F3B3, offset: 0x1F3B3, size: 0x8, addend: 0x0, symName: __ZNKSt3__114__move_trivialclB8ue170006IP6CoordsS3_Li0EEENS_4pairIPT_PT0_EES6_S6_S8_, symObjAddr: 0xBE80, symBinAddr: 0x1000103D4, symSize: 0x48 }
  - { offsetInCU: 0x1F41B, offset: 0x1F41B, size: 0x8, addend: 0x0, symName: __ZNSt3__119__unwrap_range_implIPP6CoordsS3_E8__unwrapB8ue170006ES3_S3_, symObjAddr: 0xBF8C, symBinAddr: 0x1000104E0, symSize: 0x58 }
  - { offsetInCU: 0x1F452, offset: 0x1F452, size: 0x8, addend: 0x0, symName: __ZNSt3__14pairIPP6CoordsS3_EC1B8ue170006IS3_S3_LPv0EEEOT_OT0_, symObjAddr: 0xBFE4, symBinAddr: 0x100010538, symSize: 0x3C }
  - { offsetInCU: 0x1F4B0, offset: 0x1F4B0, size: 0x8, addend: 0x0, symName: __ZNSt3__14pairIPP6CoordsS3_EC2B8ue170006IS3_S3_LPv0EEEOT_OT0_, symObjAddr: 0xC020, symBinAddr: 0x100010574, symSize: 0x34 }
  - { offsetInCU: 0x1F50E, offset: 0x1F50E, size: 0x8, addend: 0x0, symName: __ZNSt3__14pairIPP6CoordsS3_EC1B8ue170006IRS3_S3_LPv0EEEOT_OT0_, symObjAddr: 0xC170, symBinAddr: 0x1000106C4, symSize: 0x3C }
  - { offsetInCU: 0x1F56C, offset: 0x1F56C, size: 0x8, addend: 0x0, symName: __ZNSt3__14pairIPP6CoordsS3_EC2B8ue170006IRS3_S3_LPv0EEEOT_OT0_, symObjAddr: 0xC1AC, symBinAddr: 0x100010700, symSize: 0x34 }
  - { offsetInCU: 0x1F5CA, offset: 0x1F5CA, size: 0x8, addend: 0x0, symName: __ZNSt3__118__unwrap_iter_implIPP6CoordsLb1EE8__unwrapB8ue170006ES3_, symObjAddr: 0xC1E0, symBinAddr: 0x100010734, symSize: 0x24 }
  - { offsetInCU: 0x1F5ED, offset: 0x1F5ED, size: 0x8, addend: 0x0, symName: __ZNSt3__119__unwrap_range_implIPP6CoordsS3_E8__rewrapB8ue170006ES3_S3_, symObjAddr: 0xC204, symBinAddr: 0x100010758, symSize: 0x2C }
  - { offsetInCU: 0x1F61E, offset: 0x1F61E, size: 0x8, addend: 0x0, symName: __ZNSt3__118__unwrap_iter_implIPP6CoordsLb1EE8__rewrapB8ue170006ES3_S3_, symObjAddr: 0xC230, symBinAddr: 0x100010784, symSize: 0x50 }
  - { offsetInCU: 0x1F64F, offset: 0x1F64F, size: 0x8, addend: 0x0, symName: __ZNSt3__114__split_bufferIP6CoordsRNS_9allocatorIS2_EEE28__construct_at_end_with_sizeINS_13move_iteratorIPS2_EEEEvT_m, symObjAddr: 0xC280, symBinAddr: 0x1000107D4, symSize: 0xDC }
  - { offsetInCU: 0x1F6B7, offset: 0x1F6B7, size: 0x8, addend: 0x0, symName: __ZNSt3__114__split_bufferIP6CoordsRNS_9allocatorIS2_EEE21_ConstructTransactionC1B8ue170006EPPS2_m, symObjAddr: 0xC398, symBinAddr: 0x1000108EC, symSize: 0x3C }
  - { offsetInCU: 0x1F6FD, offset: 0x1F6FD, size: 0x8, addend: 0x0, symName: __ZNSt3__116allocator_traitsINS_9allocatorIP6CoordsEEE9constructB8ue170006IS3_JS3_EvvEEvRS4_PT_DpOT0_, symObjAddr: 0xC3D4, symBinAddr: 0x100010928, symSize: 0x30 }
  - { offsetInCU: 0x1F752, offset: 0x1F752, size: 0x8, addend: 0x0, symName: __ZNSt3__114__split_bufferIP6CoordsRNS_9allocatorIS2_EEE7__allocB8ue170006Ev, symObjAddr: 0xC404, symBinAddr: 0x100010958, symSize: 0x28 }
  - { offsetInCU: 0x1F778, offset: 0x1F778, size: 0x8, addend: 0x0, symName: __ZNKSt3__113move_iteratorIPP6CoordsEdeB8ue170006Ev, symObjAddr: 0xC42C, symBinAddr: 0x100010980, symSize: 0x2C }
  - { offsetInCU: 0x1F79E, offset: 0x1F79E, size: 0x8, addend: 0x0, symName: __ZNSt3__113move_iteratorIPP6CoordsEppB8ue170006Ev, symObjAddr: 0xC458, symBinAddr: 0x1000109AC, symSize: 0x20 }
  - { offsetInCU: 0x1F7C4, offset: 0x1F7C4, size: 0x8, addend: 0x0, symName: __ZNSt3__114__split_bufferIP6CoordsRNS_9allocatorIS2_EEE21_ConstructTransactionD1B8ue170006Ev, symObjAddr: 0xC478, symBinAddr: 0x1000109CC, symSize: 0x2C }
  - { offsetInCU: 0x1F7EE, offset: 0x1F7EE, size: 0x8, addend: 0x0, symName: __ZNSt3__114__split_bufferIP6CoordsRNS_9allocatorIS2_EEE21_ConstructTransactionC2B8ue170006EPPS2_m, symObjAddr: 0xC4A4, symBinAddr: 0x1000109F8, symSize: 0x44 }
  - { offsetInCU: 0x1F834, offset: 0x1F834, size: 0x8, addend: 0x0, symName: __ZNSt3__117__compressed_pairIPP6CoordsRNS_9allocatorIS2_EEE6secondB8ue170006Ev, symObjAddr: 0xC514, symBinAddr: 0x100010A68, symSize: 0x28 }
  - { offsetInCU: 0x1F85A, offset: 0x1F85A, size: 0x8, addend: 0x0, symName: __ZNSt3__122__compressed_pair_elemIRNS_9allocatorIP6CoordsEELi1ELb0EE5__getB8ue170006Ev, symObjAddr: 0xC53C, symBinAddr: 0x100010A90, symSize: 0x18 }
  - { offsetInCU: 0x1F886, offset: 0x1F886, size: 0x8, addend: 0x0, symName: __ZNKSt3__16ranges11__iter_move4__fnclB8ue170006IRKPP6CoordsEEDTclsr3stdE4movedeclsr3stdE7forwardIT_Efp_EEEOS9_, symObjAddr: 0xC554, symBinAddr: 0x100010AA8, symSize: 0x1C }
  - { offsetInCU: 0x1F8C3, offset: 0x1F8C3, size: 0x8, addend: 0x0, symName: __ZNSt3__114__split_bufferIP6CoordsRNS_9allocatorIS2_EEE21_ConstructTransactionD2B8ue170006Ev, symObjAddr: 0xC570, symBinAddr: 0x100010AC4, symSize: 0x20 }
  - { offsetInCU: 0x1F8ED, offset: 0x1F8ED, size: 0x8, addend: 0x0, symName: __ZNKRSt3__113move_iteratorIPP6CoordsE4baseB8ue170006Ev, symObjAddr: 0xC60C, symBinAddr: 0x100010B60, symSize: 0x14 }
  - { offsetInCU: 0x1F913, offset: 0x1F913, size: 0x8, addend: 0x0, symName: __ZNSt3__113move_iteratorIPP6CoordsEC2B8ue170006ES3_, symObjAddr: 0xC620, symBinAddr: 0x100010B74, symSize: 0x20 }
  - { offsetInCU: 0x1F94B, offset: 0x1F94B, size: 0x8, addend: 0x0, symName: __ZNKSt3__114__split_bufferIP6CoordsNS_9allocatorIS2_EEE9__end_capB8ue170006Ev, symObjAddr: 0xC66C, symBinAddr: 0x100010BC0, symSize: 0x28 }
  - { offsetInCU: 0x1F971, offset: 0x1F971, size: 0x8, addend: 0x0, symName: __ZNKSt3__117__compressed_pairIPP6CoordsNS_9allocatorIS2_EEE5firstB8ue170006Ev, symObjAddr: 0xC694, symBinAddr: 0x100010BE8, symSize: 0x24 }
  - { offsetInCU: 0x1F997, offset: 0x1F997, size: 0x8, addend: 0x0, symName: __ZNKSt3__122__compressed_pair_elemIPP6CoordsLi0ELb0EE5__getB8ue170006Ev, symObjAddr: 0xC6B8, symBinAddr: 0x100010C0C, symSize: 0x14 }
  - { offsetInCU: 0x1F9C8, offset: 0x1F9C8, size: 0x8, addend: 0x0, symName: __ZNKSt3__123__move_backward_trivialclB8ue170006IP6CoordsS3_Li0EEENS_4pairIPT_PT0_EES6_S6_S8_, symObjAddr: 0xC848, symBinAddr: 0x100010D9C, symSize: 0x48 }
  - { offsetInCU: 0x1FA30, offset: 0x1FA30, size: 0x8, addend: 0x0, symName: __ZNSt3__14pairIPP6CoordsS3_EC1B8ue170006IRS3_S6_LPv0EEEOT_OT0_, symObjAddr: 0xC958, symBinAddr: 0x100010EAC, symSize: 0x3C }
  - { offsetInCU: 0x1FA8E, offset: 0x1FA8E, size: 0x8, addend: 0x0, symName: __ZNSt3__14pairIPP6CoordsS3_EC2B8ue170006IRS3_S6_LPv0EEEOT_OT0_, symObjAddr: 0xC994, symBinAddr: 0x100010EE8, symSize: 0x34 }
  - { offsetInCU: 0x1FAEC, offset: 0x1FAEC, size: 0x8, addend: 0x0, symName: __ZNKSt3__114__split_bufferIP6CoordsNS_9allocatorIS2_EEE5beginB8ue170006Ev, symObjAddr: 0xC9C8, symBinAddr: 0x100010F1C, symSize: 0x18 }
  - { offsetInCU: 0x1FB12, offset: 0x1FB12, size: 0x8, addend: 0x0, symName: __ZNKSt3__15dequeI6CoordsNS_9allocatorIS1_EEE23__annotate_poison_blockB8ue170006EPKvS6_, symObjAddr: 0xC9E0, symBinAddr: 0x100010F34, symSize: 0x44 }
  - { offsetInCU: 0x1FB56, offset: 0x1FB56, size: 0x8, addend: 0x0, symName: __ZNKSt3__15dequeI6CoordsNS_9allocatorIS1_EEE44__annotate_double_ended_contiguous_containerB8ue170006EPKvS6_S6_S6_S6_S6_, symObjAddr: 0xCA24, symBinAddr: 0x100010F78, symSize: 0x28 }
  - { offsetInCU: 0x1FBC4, offset: 0x1FBC4, size: 0x8, addend: 0x0, symName: __ZNSt3__117__compressed_pairIPP6CoordsNS_9allocatorIS2_EEE6secondB8ue170006Ev, symObjAddr: 0xCA4C, symBinAddr: 0x100010FA0, symSize: 0x24 }
  - { offsetInCU: 0x1FBEA, offset: 0x1FBEA, size: 0x8, addend: 0x0, symName: __ZNSt3__122__compressed_pair_elemINS_9allocatorIP6CoordsEELi1ELb1EE5__getB8ue170006Ev, symObjAddr: 0xCA70, symBinAddr: 0x100010FC4, symSize: 0x14 }
  - { offsetInCU: 0x1FC10, offset: 0x1FC10, size: 0x8, addend: 0x0, symName: __ZNSt3__114__split_bufferIP6CoordsRNS_9allocatorIS2_EEEC2EmmS5_, symObjAddr: 0xCA84, symBinAddr: 0x100010FD8, symSize: 0xD4 }
  - { offsetInCU: 0x1FC83, offset: 0x1FC83, size: 0x8, addend: 0x0, symName: __ZNSt3__117__compressed_pairIPP6CoordsRNS_9allocatorIS2_EEEC1B8ue170006IDnS6_EEOT_OT0_, symObjAddr: 0xCB58, symBinAddr: 0x1000110AC, symSize: 0x3C }
  - { offsetInCU: 0x1FCDB, offset: 0x1FCDB, size: 0x8, addend: 0x0, symName: __ZNSt3__117__compressed_pairIPP6CoordsRNS_9allocatorIS2_EEEC2B8ue170006IDnS6_EEOT_OT0_, symObjAddr: 0xCBD4, symBinAddr: 0x100011128, symSize: 0x48 }
  - { offsetInCU: 0x1FD33, offset: 0x1FD33, size: 0x8, addend: 0x0, symName: __ZNSt3__122__compressed_pair_elemIPP6CoordsLi0ELb0EEC2B8ue170006IDnvEEOT_, symObjAddr: 0xCC1C, symBinAddr: 0x100011170, symSize: 0x1C }
  - { offsetInCU: 0x1FD75, offset: 0x1FD75, size: 0x8, addend: 0x0, symName: __ZNSt3__122__compressed_pair_elemIRNS_9allocatorIP6CoordsEELi1ELb0EEC2B8ue170006IS5_vEEOT_, symObjAddr: 0xCC38, symBinAddr: 0x10001118C, symSize: 0x20 }
  - { offsetInCU: 0x1FDB7, offset: 0x1FDB7, size: 0x8, addend: 0x0, symName: __ZNSt3__19allocatorIP6CoordsE8allocateB8ue170006Em, symObjAddr: 0xCC58, symBinAddr: 0x1000111AC, symSize: 0x58 }
  - { offsetInCU: 0x1FDF6, offset: 0x1FDF6, size: 0x8, addend: 0x0, symName: __ZNSt3__116allocator_traitsINS_9allocatorIP6CoordsEEE8max_sizeB8ue170006IS4_vvEEmRKS4_, symObjAddr: 0xCCB0, symBinAddr: 0x100011204, symSize: 0x28 }
  - { offsetInCU: 0x1FE22, offset: 0x1FE22, size: 0x8, addend: 0x0, symName: __ZNSt3__122__allocator_destructorINS_9allocatorI6CoordsEEEC2B8ue170006ERS3_m, symObjAddr: 0xCCD8, symBinAddr: 0x10001122C, symSize: 0x2C }
  - { offsetInCU: 0x1FE68, offset: 0x1FE68, size: 0x8, addend: 0x0, symName: __ZNSt3__110unique_ptrIP6CoordsNS_22__allocator_destructorINS_9allocatorIS1_EEEEEC2B8ue170006ILb1EvEES2_NS_16__dependent_typeINS_27__unique_ptr_deleter_sfinaeIS6_EEXT_EE20__good_rval_ref_typeE, symObjAddr: 0xCD04, symBinAddr: 0x100011258, symSize: 0x48 }
  - { offsetInCU: 0x1FEB9, offset: 0x1FEB9, size: 0x8, addend: 0x0, symName: __ZNSt3__117__compressed_pairIP6CoordsNS_22__allocator_destructorINS_9allocatorIS1_EEEEEC1B8ue170006IRS2_S6_EEOT_OT0_, symObjAddr: 0xCD4C, symBinAddr: 0x1000112A0, symSize: 0x3C }
  - { offsetInCU: 0x1FF11, offset: 0x1FF11, size: 0x8, addend: 0x0, symName: __ZNSt3__117__compressed_pairIP6CoordsNS_22__allocator_destructorINS_9allocatorIS1_EEEEEC2B8ue170006IRS2_S6_EEOT_OT0_, symObjAddr: 0xCD88, symBinAddr: 0x1000112DC, symSize: 0x48 }
  - { offsetInCU: 0x1FF69, offset: 0x1FF69, size: 0x8, addend: 0x0, symName: __ZNSt3__122__compressed_pair_elemIP6CoordsLi0ELb0EEC2B8ue170006IRS2_vEEOT_, symObjAddr: 0xCDD0, symBinAddr: 0x100011324, symSize: 0x24 }
  - { offsetInCU: 0x1FFAB, offset: 0x1FFAB, size: 0x8, addend: 0x0, symName: __ZNSt3__122__compressed_pair_elemINS_22__allocator_destructorINS_9allocatorI6CoordsEEEELi1ELb0EEC2B8ue170006IS5_vEEOT_, symObjAddr: 0xCDF4, symBinAddr: 0x100011348, symSize: 0x24 }
  - { offsetInCU: 0x1FFED, offset: 0x1FFED, size: 0x8, addend: 0x0, symName: __ZNKSt3__117__compressed_pairIP6CoordsNS_22__allocator_destructorINS_9allocatorIS1_EEEEE5firstB8ue170006Ev, symObjAddr: 0xCE18, symBinAddr: 0x10001136C, symSize: 0x24 }
  - { offsetInCU: 0x20013, offset: 0x20013, size: 0x8, addend: 0x0, symName: __ZNSt3__117__compressed_pairIP6CoordsNS_22__allocator_destructorINS_9allocatorIS1_EEEEE5firstB8ue170006Ev, symObjAddr: 0xCE3C, symBinAddr: 0x100011390, symSize: 0x24 }
  - { offsetInCU: 0x20039, offset: 0x20039, size: 0x8, addend: 0x0, symName: __ZNSt3__117__compressed_pairIPP6CoordsNS_9allocatorIS2_EEE5firstB8ue170006Ev, symObjAddr: 0xCE60, symBinAddr: 0x1000113B4, symSize: 0x24 }
  - { offsetInCU: 0x2005F, offset: 0x2005F, size: 0x8, addend: 0x0, symName: __ZNSt3__122__compressed_pair_elemIPP6CoordsLi0ELb0EE5__getB8ue170006Ev, symObjAddr: 0xCE84, symBinAddr: 0x1000113D8, symSize: 0x14 }
  - { offsetInCU: 0x20085, offset: 0x20085, size: 0x8, addend: 0x0, symName: __ZNSt3__117__compressed_pairIPP6CoordsRNS_9allocatorIS2_EEE5firstB8ue170006Ev, symObjAddr: 0xCE98, symBinAddr: 0x1000113EC, symSize: 0x24 }
  - { offsetInCU: 0x200AB, offset: 0x200AB, size: 0x8, addend: 0x0, symName: __ZNSt3__110unique_ptrIP6CoordsNS_22__allocator_destructorINS_9allocatorIS1_EEEEED2B8ue170006Ev, symObjAddr: 0xCEBC, symBinAddr: 0x100011410, symSize: 0x30 }
  - { offsetInCU: 0x200D5, offset: 0x200D5, size: 0x8, addend: 0x0, symName: __ZNSt3__110unique_ptrIP6CoordsNS_22__allocator_destructorINS_9allocatorIS1_EEEEE5resetB8ue170006ES2_, symObjAddr: 0xCEEC, symBinAddr: 0x100011440, symSize: 0x78 }
  - { offsetInCU: 0x20119, offset: 0x20119, size: 0x8, addend: 0x0, symName: __ZNSt3__117__compressed_pairIP6CoordsNS_22__allocator_destructorINS_9allocatorIS1_EEEEE6secondB8ue170006Ev, symObjAddr: 0xCF64, symBinAddr: 0x1000114B8, symSize: 0x28 }
  - { offsetInCU: 0x2013F, offset: 0x2013F, size: 0x8, addend: 0x0, symName: __ZNSt3__122__allocator_destructorINS_9allocatorI6CoordsEEEclB8ue170006EPS2_, symObjAddr: 0xCF8C, symBinAddr: 0x1000114E0, symSize: 0x34 }
  - { offsetInCU: 0x20173, offset: 0x20173, size: 0x8, addend: 0x0, symName: __ZNSt3__122__compressed_pair_elemINS_22__allocator_destructorINS_9allocatorI6CoordsEEEELi1ELb0EE5__getB8ue170006Ev, symObjAddr: 0xCFC0, symBinAddr: 0x100011514, symSize: 0x14 }
  - { offsetInCU: 0x20199, offset: 0x20199, size: 0x8, addend: 0x0, symName: __ZNSt3__114__split_bufferIP6CoordsRNS_9allocatorIS2_EEED2Ev, symObjAddr: 0xCFD4, symBinAddr: 0x100011528, symSize: 0x8C }
  - { offsetInCU: 0x201C5, offset: 0x201C5, size: 0x8, addend: 0x0, symName: __ZNSt3__114__split_bufferIP6CoordsRNS_9allocatorIS2_EEE5clearB8ue170006Ev, symObjAddr: 0xD060, symBinAddr: 0x1000115B4, symSize: 0x28 }
  - { offsetInCU: 0x201EB, offset: 0x201EB, size: 0x8, addend: 0x0, symName: __ZNSt3__116allocator_traitsINS_9allocatorIP6CoordsEEE10deallocateB8ue170006ERS4_PS3_m, symObjAddr: 0xD088, symBinAddr: 0x1000115DC, symSize: 0x34 }
  - { offsetInCU: 0x2022D, offset: 0x2022D, size: 0x8, addend: 0x0, symName: __ZNKSt3__114__split_bufferIP6CoordsRNS_9allocatorIS2_EEE8capacityB8ue170006Ev, symObjAddr: 0xD0BC, symBinAddr: 0x100011610, symSize: 0x40 }
  - { offsetInCU: 0x20253, offset: 0x20253, size: 0x8, addend: 0x0, symName: __ZNSt3__114__split_bufferIP6CoordsRNS_9allocatorIS2_EEE17__destruct_at_endB8ue170006EPS2_, symObjAddr: 0xD0FC, symBinAddr: 0x100011650, symSize: 0x2C }
  - { offsetInCU: 0x20287, offset: 0x20287, size: 0x8, addend: 0x0, symName: __ZNSt3__114__split_bufferIP6CoordsRNS_9allocatorIS2_EEE17__destruct_at_endB8ue170006EPS2_NS_17integral_constantIbLb0EEE, symObjAddr: 0xD128, symBinAddr: 0x10001167C, symSize: 0x80 }
  - { offsetInCU: 0x202C8, offset: 0x202C8, size: 0x8, addend: 0x0, symName: __ZNSt3__116allocator_traitsINS_9allocatorIP6CoordsEEE7destroyB8ue170006IS3_vvEEvRS4_PT_, symObjAddr: 0xD1A8, symBinAddr: 0x1000116FC, symSize: 0x28 }
  - { offsetInCU: 0x20303, offset: 0x20303, size: 0x8, addend: 0x0, symName: __ZNSt3__19allocatorIP6CoordsE10deallocateB8ue170006EPS2_m, symObjAddr: 0xD204, symBinAddr: 0x100011758, symSize: 0x40 }
  - { offsetInCU: 0x20345, offset: 0x20345, size: 0x8, addend: 0x0, symName: __ZNKSt3__114__split_bufferIP6CoordsRNS_9allocatorIS2_EEE9__end_capB8ue170006Ev, symObjAddr: 0xD244, symBinAddr: 0x100011798, symSize: 0x28 }
  - { offsetInCU: 0x2036B, offset: 0x2036B, size: 0x8, addend: 0x0, symName: __ZNKSt3__117__compressed_pairIPP6CoordsRNS_9allocatorIS2_EEE5firstB8ue170006Ev, symObjAddr: 0xD26C, symBinAddr: 0x1000117C0, symSize: 0x24 }
  - { offsetInCU: 0x20391, offset: 0x20391, size: 0x8, addend: 0x0, symName: __ZNKSt3__15dequeI6CoordsNS_9allocatorIS1_EEE18__annotate_from_toB8ue170006EmmNS4_22__asan_annotation_typeENS4_23__asan_annotation_placeE, symObjAddr: 0xD290, symBinAddr: 0x1000117E4, symSize: 0x580 }
  - { offsetInCU: 0x2054D, offset: 0x2054D, size: 0x8, addend: 0x0, symName: __ZNKSt3__114__split_bufferIP6CoordsNS_9allocatorIS2_EEE5emptyB8ue170006Ev, symObjAddr: 0xD810, symBinAddr: 0x100011D64, symSize: 0x28 }
  - { offsetInCU: 0x20573, offset: 0x20573, size: 0x8, addend: 0x0, symName: __ZNSt3__116__deque_iteratorI6CoordsPS1_RS1_PS2_lLl512EEC1B8ue170006ES4_S2_, symObjAddr: 0xD838, symBinAddr: 0x100011D8C, symSize: 0x3C }
  - { offsetInCU: 0x205BB, offset: 0x205BB, size: 0x8, addend: 0x0, symName: __ZNSt3__116__deque_iteratorI6CoordsPS1_RS1_PS2_lLl512EEC2B8ue170006ES4_S2_, symObjAddr: 0xD874, symBinAddr: 0x100011DC8, symSize: 0x2C }
  - { offsetInCU: 0x20603, offset: 0x20603, size: 0x8, addend: 0x0, symName: __ZNSt3__117__compressed_pairImNS_9allocatorI6CoordsEEE5firstB8ue170006Ev, symObjAddr: 0xD8A0, symBinAddr: 0x100011DF4, symSize: 0x24 }
  - { offsetInCU: 0x20629, offset: 0x20629, size: 0x8, addend: 0x0, symName: __ZNSt3__15dequeI6CoordsNS_9allocatorIS1_EEEC2ESt16initializer_listIS1_E, symObjAddr: 0xD8C4, symBinAddr: 0x100011E18, symSize: 0xB8 }
  - { offsetInCU: 0x20664, offset: 0x20664, size: 0x8, addend: 0x0, symName: __ZNSt3__114__split_bufferIP6CoordsNS_9allocatorIS2_EEEC1B8ue170006Ev, symObjAddr: 0xD97C, symBinAddr: 0x100011ED0, symSize: 0x2C }
  - { offsetInCU: 0x2068E, offset: 0x2068E, size: 0x8, addend: 0x0, symName: __ZNSt3__117__compressed_pairImNS_9allocatorI6CoordsEEEC1B8ue170006IiNS_18__default_init_tagEEEOT_OT0_, symObjAddr: 0xD9A8, symBinAddr: 0x100011EFC, symSize: 0x3C }
  - { offsetInCU: 0x206E6, offset: 0x206E6, size: 0x8, addend: 0x0, symName: __ZNKSt3__15dequeI6CoordsNS_9allocatorIS1_EEE14__annotate_newB8ue170006Em, symObjAddr: 0xD9E4, symBinAddr: 0x100011F38, symSize: 0xB8 }
  - { offsetInCU: 0x20721, offset: 0x20721, size: 0x8, addend: 0x0, symName: __ZNSt3__15dequeI6CoordsNS_9allocatorIS1_EEE8__appendIPKS1_EEvT_S8_PNS_9enable_ifIXsr31__has_forward_iterator_categoryIS8_EE5valueEvE4typeE, symObjAddr: 0xDA9C, symBinAddr: 0x100011FF0, symSize: 0x54 }
  - { offsetInCU: 0x2077C, offset: 0x2077C, size: 0x8, addend: 0x0, symName: __ZNKSt16initializer_listI6CoordsE5beginB8ue170006Ev, symObjAddr: 0xDAF0, symBinAddr: 0x100012044, symSize: 0x18 }
  - { offsetInCU: 0x207A2, offset: 0x207A2, size: 0x8, addend: 0x0, symName: __ZNKSt16initializer_listI6CoordsE3endB8ue170006Ev, symObjAddr: 0xDB08, symBinAddr: 0x10001205C, symSize: 0x20 }
  - { offsetInCU: 0x207C8, offset: 0x207C8, size: 0x8, addend: 0x0, symName: __ZNSt3__114__split_bufferIP6CoordsNS_9allocatorIS2_EEED1Ev, symObjAddr: 0xDB28, symBinAddr: 0x10001207C, symSize: 0x2C }
  - { offsetInCU: 0x207F4, offset: 0x207F4, size: 0x8, addend: 0x0, symName: __ZNSt3__114__split_bufferIP6CoordsNS_9allocatorIS2_EEEC2B8ue170006Ev, symObjAddr: 0xDB54, symBinAddr: 0x1000120A8, symSize: 0x50 }
  - { offsetInCU: 0x2081E, offset: 0x2081E, size: 0x8, addend: 0x0, symName: __ZNSt3__117__compressed_pairIPP6CoordsNS_9allocatorIS2_EEEC1B8ue170006IDnNS_18__default_init_tagEEEOT_OT0_, symObjAddr: 0xDBA4, symBinAddr: 0x1000120F8, symSize: 0x3C }
  - { offsetInCU: 0x20876, offset: 0x20876, size: 0x8, addend: 0x0, symName: __ZNSt3__117__compressed_pairIPP6CoordsNS_9allocatorIS2_EEEC2B8ue170006IDnNS_18__default_init_tagEEEOT_OT0_, symObjAddr: 0xDBE0, symBinAddr: 0x100012134, symSize: 0x40 }
  - { offsetInCU: 0x208CE, offset: 0x208CE, size: 0x8, addend: 0x0, symName: __ZNSt3__122__compressed_pair_elemINS_9allocatorIP6CoordsEELi1ELb1EEC2B8ue170006ENS_18__default_init_tagE, symObjAddr: 0xDC20, symBinAddr: 0x100012174, symSize: 0x2C }
  - { offsetInCU: 0x20903, offset: 0x20903, size: 0x8, addend: 0x0, symName: __ZNSt3__19allocatorIP6CoordsEC2B8ue170006Ev, symObjAddr: 0xDC4C, symBinAddr: 0x1000121A0, symSize: 0x2C }
  - { offsetInCU: 0x2092D, offset: 0x2092D, size: 0x8, addend: 0x0, symName: __ZNSt3__116__non_trivial_ifILb1ENS_9allocatorIP6CoordsEEEC2B8ue170006Ev, symObjAddr: 0xDC78, symBinAddr: 0x1000121CC, symSize: 0x14 }
  - { offsetInCU: 0x20957, offset: 0x20957, size: 0x8, addend: 0x0, symName: __ZNSt3__117__compressed_pairImNS_9allocatorI6CoordsEEEC2B8ue170006IiNS_18__default_init_tagEEEOT_OT0_, symObjAddr: 0xDC8C, symBinAddr: 0x1000121E0, symSize: 0x40 }
  - { offsetInCU: 0x209AF, offset: 0x209AF, size: 0x8, addend: 0x0, symName: __ZNSt3__15dequeI6CoordsNS_9allocatorIS1_EEE18__append_with_sizeB8ue170006IPKS1_EEvT_m, symObjAddr: 0xDCCC, symBinAddr: 0x100012220, symSize: 0x20C }
  - { offsetInCU: 0x20A7E, offset: 0x20A7E, size: 0x8, addend: 0x0, symName: __ZNSt3__15dequeI6CoordsNS_9allocatorIS1_EEE19__add_back_capacityEm, symObjAddr: 0xDF04, symBinAddr: 0x100012458, symSize: 0x63C }
  - { offsetInCU: 0x20B7F, offset: 0x20B7F, size: 0x8, addend: 0x0, symName: __ZNKSt3__116__deque_iteratorI6CoordsPS1_RS1_PS2_lLl512EEplB8ue170006El, symObjAddr: 0xE540, symBinAddr: 0x100012A94, symSize: 0x40 }
  - { offsetInCU: 0x20BEA, offset: 0x20BEA, size: 0x8, addend: 0x0, symName: __ZNSt3__15dequeI6CoordsNS_9allocatorIS1_EEE13__deque_rangeC1B8ue170006ENS_16__deque_iteratorIS1_PS1_RS1_PS7_lLl512EEESA_, symObjAddr: 0xE580, symBinAddr: 0x100012AD4, symSize: 0x4C }
  - { offsetInCU: 0x20C32, offset: 0x20C32, size: 0x8, addend: 0x0, symName: __ZNKSt3__15dequeI6CoordsNS_9allocatorIS1_EEE13__deque_range5beginB8ue170006Ev, symObjAddr: 0xE5CC, symBinAddr: 0x100012B20, symSize: 0x24 }
  - { offsetInCU: 0x20C58, offset: 0x20C58, size: 0x8, addend: 0x0, symName: __ZNKSt3__15dequeI6CoordsNS_9allocatorIS1_EEE13__deque_range3endB8ue170006Ev, symObjAddr: 0xE5F0, symBinAddr: 0x100012B44, symSize: 0x50 }
  - { offsetInCU: 0x20C7E, offset: 0x20C7E, size: 0x8, addend: 0x0, symName: __ZNKSt3__15dequeI6CoordsNS_9allocatorIS1_EEE13__deque_rangedeB8ue170006Ev, symObjAddr: 0xE674, symBinAddr: 0x100012BC8, symSize: 0x7C }
  - { offsetInCU: 0x20CBB, offset: 0x20CBB, size: 0x8, addend: 0x0, symName: __ZNSt3__15dequeI6CoordsNS_9allocatorIS1_EEE21_ConstructTransactionC1B8ue170006EPS4_RNS4_19__deque_block_rangeE, symObjAddr: 0xE6F0, symBinAddr: 0x100012C44, symSize: 0x3C }
  - { offsetInCU: 0x20D03, offset: 0x20D03, size: 0x8, addend: 0x0, symName: __ZNSt3__15dequeI6CoordsNS_9allocatorIS1_EEE21_ConstructTransactionD1B8ue170006Ev, symObjAddr: 0xE72C, symBinAddr: 0x100012C80, symSize: 0x2C }
  - { offsetInCU: 0x20D2D, offset: 0x20D2D, size: 0x8, addend: 0x0, symName: __ZNSt3__15dequeI6CoordsNS_9allocatorIS1_EEE13__deque_rangeppB8ue170006Ev, symObjAddr: 0xE758, symBinAddr: 0x100012CAC, symSize: 0x64 }
  - { offsetInCU: 0x20D53, offset: 0x20D53, size: 0x8, addend: 0x0, symName: __ZNSt3__15dequeI6CoordsNS_9allocatorIS1_EEE18__recommend_blocksB8ue170006Em, symObjAddr: 0xE7BC, symBinAddr: 0x100012D10, symSize: 0x40 }
  - { offsetInCU: 0x20D77, offset: 0x20D77, size: 0x8, addend: 0x0, symName: __ZNSt3__114__split_bufferIP6CoordsRNS_9allocatorIS2_EEE4backB8ue170006Ev, symObjAddr: 0xE7FC, symBinAddr: 0x100012D50, symSize: 0x1C }
  - { offsetInCU: 0x20D9D, offset: 0x20D9D, size: 0x8, addend: 0x0, symName: __ZNKSt3__15dequeI6CoordsNS_9allocatorIS1_EEE17__annotate_deleteB8ue170006Ev, symObjAddr: 0xE818, symBinAddr: 0x100012D6C, symSize: 0xE8 }
  - { offsetInCU: 0x20DE0, offset: 0x20DE0, size: 0x8, addend: 0x0, symName: __ZNSt3__114__split_bufferIP6CoordsRNS_9allocatorIS2_EEE5beginB8ue170006Ev, symObjAddr: 0xE900, symBinAddr: 0x100012E54, symSize: 0x18 }
  - { offsetInCU: 0x20E06, offset: 0x20E06, size: 0x8, addend: 0x0, symName: __ZNSt3__114__split_bufferIP6CoordsRNS_9allocatorIS2_EEE3endB8ue170006Ev, symObjAddr: 0xE918, symBinAddr: 0x100012E6C, symSize: 0x18 }
  - { offsetInCU: 0x20E2C, offset: 0x20E2C, size: 0x8, addend: 0x0, symName: __ZNSt3__114__split_bufferIP6CoordsRNS_9allocatorIS2_EEE9push_backB8ue170006ERKS2_, symObjAddr: 0xE930, symBinAddr: 0x100012E84, symSize: 0x260 }
  - { offsetInCU: 0x20EA4, offset: 0x20EA4, size: 0x8, addend: 0x0, symName: __ZNSt3__116__deque_iteratorI6CoordsPS1_RS1_PS2_lLl512EEpLB8ue170006El, symObjAddr: 0xEB90, symBinAddr: 0x1000130E4, symSize: 0x110 }
  - { offsetInCU: 0x20EF6, offset: 0x20EF6, size: 0x8, addend: 0x0, symName: __ZNSt3__15dequeI6CoordsNS_9allocatorIS1_EEE13__deque_rangeC2B8ue170006ENS_16__deque_iteratorIS1_PS1_RS1_PS7_lLl512EEESA_, symObjAddr: 0xECA0, symBinAddr: 0x1000131F4, symSize: 0x34 }
  - { offsetInCU: 0x20F3E, offset: 0x20F3E, size: 0x8, addend: 0x0, symName: __ZNSt3__15dequeI6CoordsNS_9allocatorIS1_EEE19__deque_block_rangeC1B8ue170006EPS1_S6_, symObjAddr: 0xED34, symBinAddr: 0x100013288, symSize: 0x3C }
  - { offsetInCU: 0x20F86, offset: 0x20F86, size: 0x8, addend: 0x0, symName: __ZNSt3__15dequeI6CoordsNS_9allocatorIS1_EEE19__deque_block_rangeC2B8ue170006EPS1_S6_, symObjAddr: 0xED70, symBinAddr: 0x1000132C4, symSize: 0x2C }
  - { offsetInCU: 0x20FCE, offset: 0x20FCE, size: 0x8, addend: 0x0, symName: __ZNSt3__15dequeI6CoordsNS_9allocatorIS1_EEE21_ConstructTransactionC2B8ue170006EPS4_RNS4_19__deque_block_rangeE, symObjAddr: 0xED9C, symBinAddr: 0x1000132F0, symSize: 0x48 }
  - { offsetInCU: 0x21016, offset: 0x21016, size: 0x8, addend: 0x0, symName: __ZNSt3__15dequeI6CoordsNS_9allocatorIS1_EEE21_ConstructTransactionD2B8ue170006Ev, symObjAddr: 0xEDE4, symBinAddr: 0x100013338, symSize: 0x5C }
  - { offsetInCU: 0x21040, offset: 0x21040, size: 0x8, addend: 0x0, symName: __ZNSt3__114__split_bufferIP6CoordsNS_9allocatorIS2_EEED2Ev, symObjAddr: 0xEE68, symBinAddr: 0x1000133BC, symSize: 0x80 }
  - { offsetInCU: 0x2106C, offset: 0x2106C, size: 0x8, addend: 0x0, symName: __ZNSt3__114__split_bufferIP6CoordsNS_9allocatorIS2_EEE5clearB8ue170006Ev, symObjAddr: 0xEEE8, symBinAddr: 0x10001343C, symSize: 0x28 }
  - { offsetInCU: 0x21092, offset: 0x21092, size: 0x8, addend: 0x0, symName: __ZNSt3__114__split_bufferIP6CoordsNS_9allocatorIS2_EEE17__destruct_at_endB8ue170006EPS2_, symObjAddr: 0xEF10, symBinAddr: 0x100013464, symSize: 0x2C }
  - { offsetInCU: 0x210C6, offset: 0x210C6, size: 0x8, addend: 0x0, symName: __ZNSt3__114__split_bufferIP6CoordsNS_9allocatorIS2_EEE17__destruct_at_endB8ue170006EPS2_NS_17integral_constantIbLb0EEE, symObjAddr: 0xEF3C, symBinAddr: 0x100013490, symSize: 0x80 }
  - { offsetInCU: 0x21107, offset: 0x21107, size: 0x8, addend: 0x0, symName: __ZNSt3__15dequeI6CoordsNS_9allocatorIS1_EEED2B8ue170006Ev, symObjAddr: 0xEFBC, symBinAddr: 0x100013510, symSize: 0xA4 }
  - { offsetInCU: 0x2115D, offset: 0x2115D, size: 0x8, addend: 0x0, symName: __ZNSt3__15dequeI6CoordsNS_9allocatorIS1_EEE5clearEv, symObjAddr: 0xF060, symBinAddr: 0x1000135B4, symSize: 0x170 }
  - { offsetInCU: 0x211B8, offset: 0x211B8, size: 0x8, addend: 0x0, symName: __ZNSt3__15dequeI6CoordsNS_9allocatorIS1_EEE5beginB8ue170006Ev, symObjAddr: 0xF1D0, symBinAddr: 0x100013724, symSize: 0xA8 }
  - { offsetInCU: 0x211ED, offset: 0x211ED, size: 0x8, addend: 0x0, symName: __ZNSt3__116__deque_iteratorI6CoordsPS1_RS1_PS2_lLl512EEppB8ue170006Ev, symObjAddr: 0xF2AC, symBinAddr: 0x100013800, symSize: 0x70 }
  - { offsetInCU: 0x21213, offset: 0x21213, size: 0x8, addend: 0x0, symName: __ZNSt3__113unordered_mapI6CoordsS1_NS_4hashIS1_EENS_8equal_toIS1_EENS_9allocatorINS_4pairIKS1_S1_EEEEEC2B8ue170006Ev, symObjAddr: 0xF31C, symBinAddr: 0x100013870, symSize: 0x2C }
  - { offsetInCU: 0x2123D, offset: 0x2123D, size: 0x8, addend: 0x0, symName: __ZNSt3__112__hash_tableINS_17__hash_value_typeI6CoordsS2_EENS_22__unordered_map_hasherIS2_S3_NS_4hashIS2_EENS_8equal_toIS2_EELb1EEENS_21__unordered_map_equalIS2_S3_S8_S6_Lb1EEENS_9allocatorIS3_EEEC1Ev, symObjAddr: 0xF348, symBinAddr: 0x10001389C, symSize: 0x2C }
  - { offsetInCU: 0x21269, offset: 0x21269, size: 0x8, addend: 0x0, symName: __ZNSt3__112__hash_tableINS_17__hash_value_typeI6CoordsS2_EENS_22__unordered_map_hasherIS2_S3_NS_4hashIS2_EENS_8equal_toIS2_EELb1EEENS_21__unordered_map_equalIS2_S3_S8_S6_Lb1EEENS_9allocatorIS3_EEEC2Ev, symObjAddr: 0xF374, symBinAddr: 0x1000138C8, symSize: 0x7C }
  - { offsetInCU: 0x21295, offset: 0x21295, size: 0x8, addend: 0x0, symName: __ZNSt3__110unique_ptrIA_PNS_16__hash_node_baseIPNS_11__hash_nodeINS_17__hash_value_typeI6CoordsS4_EEPvEEEENS_25__bucket_list_deallocatorINS_9allocatorISA_EEEEEC1B8ue170006ILb1EvEEv, symObjAddr: 0xF3F0, symBinAddr: 0x100013944, symSize: 0x2C }
  - { offsetInCU: 0x212CA, offset: 0x212CA, size: 0x8, addend: 0x0, symName: __ZNSt3__117__compressed_pairINS_16__hash_node_baseIPNS_11__hash_nodeINS_17__hash_value_typeI6CoordsS4_EEPvEEEENS_9allocatorIS7_EEEC1B8ue170006ILb1EvEEv, symObjAddr: 0xF41C, symBinAddr: 0x100013970, symSize: 0x2C }
  - { offsetInCU: 0x212FF, offset: 0x212FF, size: 0x8, addend: 0x0, symName: __ZNSt3__117__compressed_pairImNS_22__unordered_map_hasherI6CoordsNS_17__hash_value_typeIS2_S2_EENS_4hashIS2_EENS_8equal_toIS2_EELb1EEEEC1B8ue170006IiNS_18__default_init_tagEEEOT_OT0_, symObjAddr: 0xF448, symBinAddr: 0x10001399C, symSize: 0x3C }
  - { offsetInCU: 0x21357, offset: 0x21357, size: 0x8, addend: 0x0, symName: __ZNSt3__117__compressed_pairIfNS_21__unordered_map_equalI6CoordsNS_17__hash_value_typeIS2_S2_EENS_8equal_toIS2_EENS_4hashIS2_EELb1EEEEC1B8ue170006IfNS_18__default_init_tagEEEOT_OT0_, symObjAddr: 0xF484, symBinAddr: 0x1000139D8, symSize: 0x3C }
  - { offsetInCU: 0x213AF, offset: 0x213AF, size: 0x8, addend: 0x0, symName: __ZNSt3__110unique_ptrIA_PNS_16__hash_node_baseIPNS_11__hash_nodeINS_17__hash_value_typeI6CoordsS4_EEPvEEEENS_25__bucket_list_deallocatorINS_9allocatorISA_EEEEEC2B8ue170006ILb1EvEEv, symObjAddr: 0xF4C0, symBinAddr: 0x100013A14, symSize: 0x3C }
  - { offsetInCU: 0x213E4, offset: 0x213E4, size: 0x8, addend: 0x0, symName: __ZNSt3__117__compressed_pairIPPNS_16__hash_node_baseIPNS_11__hash_nodeINS_17__hash_value_typeI6CoordsS4_EEPvEEEENS_25__bucket_list_deallocatorINS_9allocatorISA_EEEEEC1B8ue170006INS_16__value_init_tagESI_EEOT_OT0_, symObjAddr: 0xF4FC, symBinAddr: 0x100013A50, symSize: 0x3C }
  - { offsetInCU: 0x2143C, offset: 0x2143C, size: 0x8, addend: 0x0, symName: __ZNSt3__117__compressed_pairIPPNS_16__hash_node_baseIPNS_11__hash_nodeINS_17__hash_value_typeI6CoordsS4_EEPvEEEENS_25__bucket_list_deallocatorINS_9allocatorISA_EEEEEC2B8ue170006INS_16__value_init_tagESI_EEOT_OT0_, symObjAddr: 0xF538, symBinAddr: 0x100013A8C, symSize: 0x40 }
  - { offsetInCU: 0x21494, offset: 0x21494, size: 0x8, addend: 0x0, symName: __ZNSt3__122__compressed_pair_elemIPPNS_16__hash_node_baseIPNS_11__hash_nodeINS_17__hash_value_typeI6CoordsS4_EEPvEEEELi0ELb0EEC2B8ue170006ENS_16__value_init_tagE, symObjAddr: 0xF578, symBinAddr: 0x100013ACC, symSize: 0x18 }
  - { offsetInCU: 0x214C9, offset: 0x214C9, size: 0x8, addend: 0x0, symName: __ZNSt3__122__compressed_pair_elemINS_25__bucket_list_deallocatorINS_9allocatorIPNS_16__hash_node_baseIPNS_11__hash_nodeINS_17__hash_value_typeI6CoordsS6_EEPvEEEEEEEELi1ELb0EEC2B8ue170006ENS_16__value_init_tagE, symObjAddr: 0xF590, symBinAddr: 0x100013AE4, symSize: 0x2C }
  - { offsetInCU: 0x214FE, offset: 0x214FE, size: 0x8, addend: 0x0, symName: __ZNSt3__125__bucket_list_deallocatorINS_9allocatorIPNS_16__hash_node_baseIPNS_11__hash_nodeINS_17__hash_value_typeI6CoordsS5_EEPvEEEEEEEC1B8ue170006Ev, symObjAddr: 0xF5BC, symBinAddr: 0x100013B10, symSize: 0x2C }
  - { offsetInCU: 0x21528, offset: 0x21528, size: 0x8, addend: 0x0, symName: __ZNSt3__125__bucket_list_deallocatorINS_9allocatorIPNS_16__hash_node_baseIPNS_11__hash_nodeINS_17__hash_value_typeI6CoordsS5_EEPvEEEEEEEC2B8ue170006Ev, symObjAddr: 0xF5E8, symBinAddr: 0x100013B3C, symSize: 0x40 }
  - { offsetInCU: 0x21552, offset: 0x21552, size: 0x8, addend: 0x0, symName: __ZNSt3__117__compressed_pairImNS_9allocatorIPNS_16__hash_node_baseIPNS_11__hash_nodeINS_17__hash_value_typeI6CoordsS5_EEPvEEEEEEEC1B8ue170006IiNS_18__default_init_tagEEEOT_OT0_, symObjAddr: 0xF628, symBinAddr: 0x100013B7C, symSize: 0x3C }
  - { offsetInCU: 0x215AA, offset: 0x215AA, size: 0x8, addend: 0x0, symName: __ZNSt3__117__compressed_pairImNS_9allocatorIPNS_16__hash_node_baseIPNS_11__hash_nodeINS_17__hash_value_typeI6CoordsS5_EEPvEEEEEEEC2B8ue170006IiNS_18__default_init_tagEEEOT_OT0_, symObjAddr: 0xF664, symBinAddr: 0x100013BB8, symSize: 0x40 }
  - { offsetInCU: 0x21602, offset: 0x21602, size: 0x8, addend: 0x0, symName: __ZNSt3__122__compressed_pair_elemINS_9allocatorIPNS_16__hash_node_baseIPNS_11__hash_nodeINS_17__hash_value_typeI6CoordsS5_EEPvEEEEEELi1ELb1EEC2B8ue170006ENS_18__default_init_tagE, symObjAddr: 0xF6A4, symBinAddr: 0x100013BF8, symSize: 0x2C }
  - { offsetInCU: 0x21637, offset: 0x21637, size: 0x8, addend: 0x0, symName: __ZNSt3__19allocatorIPNS_16__hash_node_baseIPNS_11__hash_nodeINS_17__hash_value_typeI6CoordsS4_EEPvEEEEEC2B8ue170006Ev, symObjAddr: 0xF6D0, symBinAddr: 0x100013C24, symSize: 0x2C }
  - { offsetInCU: 0x21661, offset: 0x21661, size: 0x8, addend: 0x0, symName: __ZNSt3__116__non_trivial_ifILb1ENS_9allocatorIPNS_16__hash_node_baseIPNS_11__hash_nodeINS_17__hash_value_typeI6CoordsS5_EEPvEEEEEEEC2B8ue170006Ev, symObjAddr: 0xF6FC, symBinAddr: 0x100013C50, symSize: 0x14 }
  - { offsetInCU: 0x2168B, offset: 0x2168B, size: 0x8, addend: 0x0, symName: __ZNSt3__117__compressed_pairINS_16__hash_node_baseIPNS_11__hash_nodeINS_17__hash_value_typeI6CoordsS4_EEPvEEEENS_9allocatorIS7_EEEC2B8ue170006ILb1EvEEv, symObjAddr: 0xF710, symBinAddr: 0x100013C64, symSize: 0x34 }
  - { offsetInCU: 0x216C0, offset: 0x216C0, size: 0x8, addend: 0x0, symName: __ZNSt3__122__compressed_pair_elemINS_16__hash_node_baseIPNS_11__hash_nodeINS_17__hash_value_typeI6CoordsS4_EEPvEEEELi0ELb0EEC2B8ue170006ENS_16__value_init_tagE, symObjAddr: 0xF744, symBinAddr: 0x100013C98, symSize: 0x2C }
  - { offsetInCU: 0x216F5, offset: 0x216F5, size: 0x8, addend: 0x0, symName: __ZNSt3__122__compressed_pair_elemINS_9allocatorINS_11__hash_nodeINS_17__hash_value_typeI6CoordsS4_EEPvEEEELi1ELb1EEC2B8ue170006ENS_16__value_init_tagE, symObjAddr: 0xF770, symBinAddr: 0x100013CC4, symSize: 0x2C }
  - { offsetInCU: 0x2172A, offset: 0x2172A, size: 0x8, addend: 0x0, symName: __ZNSt3__116__hash_node_baseIPNS_11__hash_nodeINS_17__hash_value_typeI6CoordsS3_EEPvEEEC1B8ue170006Ev, symObjAddr: 0xF79C, symBinAddr: 0x100013CF0, symSize: 0x2C }
  - { offsetInCU: 0x21754, offset: 0x21754, size: 0x8, addend: 0x0, symName: __ZNSt3__116__hash_node_baseIPNS_11__hash_nodeINS_17__hash_value_typeI6CoordsS3_EEPvEEEC2B8ue170006Ev, symObjAddr: 0xF7C8, symBinAddr: 0x100013D1C, symSize: 0x18 }
  - { offsetInCU: 0x2177E, offset: 0x2177E, size: 0x8, addend: 0x0, symName: __ZNSt3__19allocatorINS_11__hash_nodeINS_17__hash_value_typeI6CoordsS3_EEPvEEEC2B8ue170006Ev, symObjAddr: 0xF7E0, symBinAddr: 0x100013D34, symSize: 0x2C }
  - { offsetInCU: 0x217A8, offset: 0x217A8, size: 0x8, addend: 0x0, symName: __ZNSt3__116__non_trivial_ifILb1ENS_9allocatorINS_11__hash_nodeINS_17__hash_value_typeI6CoordsS4_EEPvEEEEEC2B8ue170006Ev, symObjAddr: 0xF80C, symBinAddr: 0x100013D60, symSize: 0x14 }
  - { offsetInCU: 0x217D2, offset: 0x217D2, size: 0x8, addend: 0x0, symName: __ZNSt3__117__compressed_pairImNS_22__unordered_map_hasherI6CoordsNS_17__hash_value_typeIS2_S2_EENS_4hashIS2_EENS_8equal_toIS2_EELb1EEEEC2B8ue170006IiNS_18__default_init_tagEEEOT_OT0_, symObjAddr: 0xF820, symBinAddr: 0x100013D74, symSize: 0x40 }
  - { offsetInCU: 0x2182A, offset: 0x2182A, size: 0x8, addend: 0x0, symName: __ZNSt3__122__compressed_pair_elemINS_22__unordered_map_hasherI6CoordsNS_17__hash_value_typeIS2_S2_EENS_4hashIS2_EENS_8equal_toIS2_EELb1EEELi1ELb1EEC2B8ue170006ENS_18__default_init_tagE, symObjAddr: 0xF860, symBinAddr: 0x100013DB4, symSize: 0x2C }
  - { offsetInCU: 0x2185F, offset: 0x2185F, size: 0x8, addend: 0x0, symName: __ZNSt3__122__unordered_map_hasherI6CoordsNS_17__hash_value_typeIS1_S1_EENS_4hashIS1_EENS_8equal_toIS1_EELb1EEC2B8ue170006Ev, symObjAddr: 0xF88C, symBinAddr: 0x100013DE0, symSize: 0x14 }
  - { offsetInCU: 0x21889, offset: 0x21889, size: 0x8, addend: 0x0, symName: __ZNSt3__117__compressed_pairIfNS_21__unordered_map_equalI6CoordsNS_17__hash_value_typeIS2_S2_EENS_8equal_toIS2_EENS_4hashIS2_EELb1EEEEC2B8ue170006IfNS_18__default_init_tagEEEOT_OT0_, symObjAddr: 0xF8A0, symBinAddr: 0x100013DF4, symSize: 0x40 }
  - { offsetInCU: 0x218E1, offset: 0x218E1, size: 0x8, addend: 0x0, symName: __ZNSt3__122__compressed_pair_elemINS_21__unordered_map_equalI6CoordsNS_17__hash_value_typeIS2_S2_EENS_8equal_toIS2_EENS_4hashIS2_EELb1EEELi1ELb1EEC2B8ue170006ENS_18__default_init_tagE, symObjAddr: 0xF8E0, symBinAddr: 0x100013E34, symSize: 0x2C }
  - { offsetInCU: 0x21916, offset: 0x21916, size: 0x8, addend: 0x0, symName: __ZNSt3__121__unordered_map_equalI6CoordsNS_17__hash_value_typeIS1_S1_EENS_8equal_toIS1_EENS_4hashIS1_EELb1EEC2B8ue170006Ev, symObjAddr: 0xF90C, symBinAddr: 0x100013E60, symSize: 0x14 }
  - { offsetInCU: 0x21940, offset: 0x21940, size: 0x8, addend: 0x0, symName: __ZNSt3__113unordered_mapI6CoordsS1_NS_4hashIS1_EENS_8equal_toIS1_EENS_9allocatorINS_4pairIKS1_S1_EEEEED2B8ue170006Ev, symObjAddr: 0xF920, symBinAddr: 0x100013E74, symSize: 0x2C }
  - { offsetInCU: 0x2196A, offset: 0x2196A, size: 0x8, addend: 0x0, symName: __ZNSt3__112__hash_tableINS_17__hash_value_typeI6CoordsS2_EENS_22__unordered_map_hasherIS2_S3_NS_4hashIS2_EENS_8equal_toIS2_EELb1EEENS_21__unordered_map_equalIS2_S3_S8_S6_Lb1EEENS_9allocatorIS3_EEED1Ev, symObjAddr: 0xF94C, symBinAddr: 0x100013EA0, symSize: 0x2C }
  - { offsetInCU: 0x21996, offset: 0x21996, size: 0x8, addend: 0x0, symName: __ZNSt3__112__hash_tableINS_17__hash_value_typeI6CoordsS2_EENS_22__unordered_map_hasherIS2_S3_NS_4hashIS2_EENS_8equal_toIS2_EELb1EEENS_21__unordered_map_equalIS2_S3_S8_S6_Lb1EEENS_9allocatorIS3_EEED2Ev, symObjAddr: 0xF978, symBinAddr: 0x100013ECC, symSize: 0x48 }
  - { offsetInCU: 0x219C2, offset: 0x219C2, size: 0x8, addend: 0x0, symName: __ZNSt3__112__hash_tableINS_17__hash_value_typeI6CoordsS2_EENS_22__unordered_map_hasherIS2_S3_NS_4hashIS2_EENS_8equal_toIS2_EELb1EEENS_21__unordered_map_equalIS2_S3_S8_S6_Lb1EEENS_9allocatorIS3_EEE17__deallocate_nodeEPNS_16__hash_node_baseIPNS_11__hash_nodeIS3_PvEEEE, symObjAddr: 0xF9C0, symBinAddr: 0x100013F14, symSize: 0xA8 }
  - { offsetInCU: 0x21A2C, offset: 0x21A2C, size: 0x8, addend: 0x0, symName: __ZNSt3__110unique_ptrIA_PNS_16__hash_node_baseIPNS_11__hash_nodeINS_17__hash_value_typeI6CoordsS4_EEPvEEEENS_25__bucket_list_deallocatorINS_9allocatorISA_EEEEED1B8ue170006Ev, symObjAddr: 0xFA68, symBinAddr: 0x100013FBC, symSize: 0x2C }
  - { offsetInCU: 0x21A56, offset: 0x21A56, size: 0x8, addend: 0x0, symName: __ZNSt3__110unique_ptrIA_PNS_16__hash_node_baseIPNS_11__hash_nodeINS_17__hash_value_typeI6CoordsS4_EEPvEEEENS_25__bucket_list_deallocatorINS_9allocatorISA_EEEEED2B8ue170006Ev, symObjAddr: 0xFA94, symBinAddr: 0x100013FE8, symSize: 0x30 }
  - { offsetInCU: 0x21A80, offset: 0x21A80, size: 0x8, addend: 0x0, symName: __ZNSt3__110unique_ptrIA_PNS_16__hash_node_baseIPNS_11__hash_nodeINS_17__hash_value_typeI6CoordsS4_EEPvEEEENS_25__bucket_list_deallocatorINS_9allocatorISA_EEEEE5resetB8ue170006EDn, symObjAddr: 0xFAC4, symBinAddr: 0x100014018, symSize: 0x6C }
  - { offsetInCU: 0x21AC1, offset: 0x21AC1, size: 0x8, addend: 0x0, symName: __ZNKSt3__15dequeI6CoordsNS_9allocatorIS1_EEE6__sizeB8ue170006Ev, symObjAddr: 0xFB30, symBinAddr: 0x100014084, symSize: 0x28 }
  - { offsetInCU: 0x21AE7, offset: 0x21AE7, size: 0x8, addend: 0x0, symName: __ZNKSt3__117__compressed_pairImNS_9allocatorI6CoordsEEE5firstB8ue170006Ev, symObjAddr: 0xFB58, symBinAddr: 0x1000140AC, symSize: 0x24 }
  - { offsetInCU: 0x21B0D, offset: 0x21B0D, size: 0x8, addend: 0x0, symName: __ZNKSt3__15dequeI6CoordsNS_9allocatorIS1_EEE23__annotate_shrink_frontB8ue170006Emm, symObjAddr: 0xFB7C, symBinAddr: 0x1000140D0, symSize: 0x70 }
  - { offsetInCU: 0x21B51, offset: 0x21B51, size: 0x8, addend: 0x0, symName: __ZNSt3__15dequeI6CoordsNS_9allocatorIS1_EEE26__maybe_remove_front_spareB8ue170006Eb, symObjAddr: 0xFBEC, symBinAddr: 0x100014140, symSize: 0xEC }
  - { offsetInCU: 0x21B86, offset: 0x21B86, size: 0x8, addend: 0x0, symName: __ZNKSt3__15dequeI6CoordsNS_9allocatorIS1_EEE20__front_spare_blocksB8ue170006Ev, symObjAddr: 0xFCD8, symBinAddr: 0x10001422C, symSize: 0x2C }
  - { offsetInCU: 0x21BAC, offset: 0x21BAC, size: 0x8, addend: 0x0, symName: __ZNSt3__113unordered_mapI6CoordsS1_NS_4hashIS1_EENS_8equal_toIS1_EENS_9allocatorINS_4pairIKS1_S1_EEEEEC2ERKSB_, symObjAddr: 0xFD04, symBinAddr: 0x100014258, symSize: 0xA0 }
  - { offsetInCU: 0x21BE7, offset: 0x21BE7, size: 0x8, addend: 0x0, symName: __ZNSt3__112__hash_tableINS_17__hash_value_typeI6CoordsS2_EENS_22__unordered_map_hasherIS2_S3_NS_4hashIS2_EENS_8equal_toIS2_EELb1EEENS_21__unordered_map_equalIS2_S3_S8_S6_Lb1EEENS_9allocatorIS3_EEEC1ERKSE_, symObjAddr: 0xFDA4, symBinAddr: 0x1000142F8, symSize: 0x34 }
  - { offsetInCU: 0x21C22, offset: 0x21C22, size: 0x8, addend: 0x0, symName: __ZNKSt3__113unordered_mapI6CoordsS1_NS_4hashIS1_EENS_8equal_toIS1_EENS_9allocatorINS_4pairIKS1_S1_EEEEE12bucket_countB8ue170006Ev, symObjAddr: 0xFDD8, symBinAddr: 0x10001432C, symSize: 0x24 }
  - { offsetInCU: 0x21C48, offset: 0x21C48, size: 0x8, addend: 0x0, symName: __ZNSt3__113unordered_mapI6CoordsS1_NS_4hashIS1_EENS_8equal_toIS1_EENS_9allocatorINS_4pairIKS1_S1_EEEEE6insertINS_25__hash_map_const_iteratorINS_21__hash_const_iteratorIPNS_11__hash_nodeINS_17__hash_value_typeIS1_S1_EEPvEEEEEEEEvT_SN_, symObjAddr: 0xFDFC, symBinAddr: 0x100014350, symSize: 0x70 }
  - { offsetInCU: 0x21C97, offset: 0x21C97, size: 0x8, addend: 0x0, symName: __ZNKSt3__113unordered_mapI6CoordsS1_NS_4hashIS1_EENS_8equal_toIS1_EENS_9allocatorINS_4pairIKS1_S1_EEEEE5beginB8ue170006Ev, symObjAddr: 0xFE6C, symBinAddr: 0x1000143C0, symSize: 0x38 }
  - { offsetInCU: 0x21CBD, offset: 0x21CBD, size: 0x8, addend: 0x0, symName: __ZNKSt3__113unordered_mapI6CoordsS1_NS_4hashIS1_EENS_8equal_toIS1_EENS_9allocatorINS_4pairIKS1_S1_EEEEE3endB8ue170006Ev, symObjAddr: 0xFEA4, symBinAddr: 0x1000143F8, symSize: 0x38 }
  - { offsetInCU: 0x21CE3, offset: 0x21CE3, size: 0x8, addend: 0x0, symName: __ZNSt3__112__hash_tableINS_17__hash_value_typeI6CoordsS2_EENS_22__unordered_map_hasherIS2_S3_NS_4hashIS2_EENS_8equal_toIS2_EELb1EEENS_21__unordered_map_equalIS2_S3_S8_S6_Lb1EEENS_9allocatorIS3_EEEC2ERKSE_, symObjAddr: 0xFEDC, symBinAddr: 0x100014430, symSize: 0xEC }
  - { offsetInCU: 0x21D1E, offset: 0x21D1E, size: 0x8, addend: 0x0, symName: __ZNSt3__116allocator_traitsINS_9allocatorIPNS_16__hash_node_baseIPNS_11__hash_nodeINS_17__hash_value_typeI6CoordsS5_EEPvEEEEEEE37select_on_container_copy_constructionB8ue170006ISC_vvEESC_RKSC_, symObjAddr: 0xFFC8, symBinAddr: 0x10001451C, symSize: 0x10 }
  - { offsetInCU: 0x21D4D, offset: 0x21D4D, size: 0x8, addend: 0x0, symName: __ZNKSt3__125__bucket_list_deallocatorINS_9allocatorIPNS_16__hash_node_baseIPNS_11__hash_nodeINS_17__hash_value_typeI6CoordsS5_EEPvEEEEEEE7__allocB8ue170006Ev, symObjAddr: 0xFFD8, symBinAddr: 0x10001452C, symSize: 0x24 }
  - { offsetInCU: 0x21D73, offset: 0x21D73, size: 0x8, addend: 0x0, symName: __ZNSt3__125__bucket_list_deallocatorINS_9allocatorIPNS_16__hash_node_baseIPNS_11__hash_nodeINS_17__hash_value_typeI6CoordsS5_EEPvEEEEEEEC1B8ue170006ERKSC_m, symObjAddr: 0xFFFC, symBinAddr: 0x100014550, symSize: 0x3C }
  - { offsetInCU: 0x21DBB, offset: 0x21DBB, size: 0x8, addend: 0x0, symName: __ZNSt3__110unique_ptrIA_PNS_16__hash_node_baseIPNS_11__hash_nodeINS_17__hash_value_typeI6CoordsS4_EEPvEEEENS_25__bucket_list_deallocatorINS_9allocatorISA_EEEEEC1B8ue170006ILb1EvEEDnNS_16__dependent_typeINS_27__unique_ptr_deleter_sfinaeISF_EEXT_EE20__good_rval_ref_typeE, symObjAddr: 0x10038, symBinAddr: 0x10001458C, symSize: 0x3C }
  - { offsetInCU: 0x21E0B, offset: 0x21E0B, size: 0x8, addend: 0x0, symName: __ZNSt3__116allocator_traitsINS_9allocatorINS_11__hash_nodeINS_17__hash_value_typeI6CoordsS4_EEPvEEEEE37select_on_container_copy_constructionB8ue170006IS8_vvEES8_RKS8_, symObjAddr: 0x10074, symBinAddr: 0x1000145C8, symSize: 0x10 }
  - { offsetInCU: 0x21E3A, offset: 0x21E3A, size: 0x8, addend: 0x0, symName: __ZNKSt3__112__hash_tableINS_17__hash_value_typeI6CoordsS2_EENS_22__unordered_map_hasherIS2_S3_NS_4hashIS2_EENS_8equal_toIS2_EELb1EEENS_21__unordered_map_equalIS2_S3_S8_S6_Lb1EEENS_9allocatorIS3_EEE12__node_allocB8ue170006Ev, symObjAddr: 0x10084, symBinAddr: 0x1000145D8, symSize: 0x28 }
  - { offsetInCU: 0x21E66, offset: 0x21E66, size: 0x8, addend: 0x0, symName: __ZNSt3__117__compressed_pairINS_16__hash_node_baseIPNS_11__hash_nodeINS_17__hash_value_typeI6CoordsS4_EEPvEEEENS_9allocatorIS7_EEEC1B8ue170006INS_18__default_init_tagESB_EEOT_OT0_, symObjAddr: 0x100AC, symBinAddr: 0x100014600, symSize: 0x3C }
  - { offsetInCU: 0x21EBE, offset: 0x21EBE, size: 0x8, addend: 0x0, symName: __ZNKSt3__112__hash_tableINS_17__hash_value_typeI6CoordsS2_EENS_22__unordered_map_hasherIS2_S3_NS_4hashIS2_EENS_8equal_toIS2_EELb1EEENS_21__unordered_map_equalIS2_S3_S8_S6_Lb1EEENS_9allocatorIS3_EEE13hash_functionB8ue170006Ev, symObjAddr: 0x100E8, symBinAddr: 0x10001463C, symSize: 0x28 }
  - { offsetInCU: 0x21EE4, offset: 0x21EE4, size: 0x8, addend: 0x0, symName: __ZNSt3__117__compressed_pairImNS_22__unordered_map_hasherI6CoordsNS_17__hash_value_typeIS2_S2_EENS_4hashIS2_EENS_8equal_toIS2_EELb1EEEEC1B8ue170006IiRKS9_EEOT_OT0_, symObjAddr: 0x10110, symBinAddr: 0x100014664, symSize: 0x3C }
  - { offsetInCU: 0x21F3C, offset: 0x21F3C, size: 0x8, addend: 0x0, symName: __ZNKSt3__117__compressed_pairImNS_9allocatorIPNS_16__hash_node_baseIPNS_11__hash_nodeINS_17__hash_value_typeI6CoordsS5_EEPvEEEEEEE6secondB8ue170006Ev, symObjAddr: 0x1014C, symBinAddr: 0x1000146A0, symSize: 0x24 }
  - { offsetInCU: 0x21F62, offset: 0x21F62, size: 0x8, addend: 0x0, symName: __ZNKSt3__122__compressed_pair_elemINS_9allocatorIPNS_16__hash_node_baseIPNS_11__hash_nodeINS_17__hash_value_typeI6CoordsS5_EEPvEEEEEELi1ELb1EE5__getB8ue170006Ev, symObjAddr: 0x10170, symBinAddr: 0x1000146C4, symSize: 0x14 }
  - { offsetInCU: 0x21F88, offset: 0x21F88, size: 0x8, addend: 0x0, symName: __ZNSt3__125__bucket_list_deallocatorINS_9allocatorIPNS_16__hash_node_baseIPNS_11__hash_nodeINS_17__hash_value_typeI6CoordsS5_EEPvEEEEEEEC2B8ue170006ERKSC_m, symObjAddr: 0x10184, symBinAddr: 0x1000146D8, symSize: 0x44 }
  - { offsetInCU: 0x21FD0, offset: 0x21FD0, size: 0x8, addend: 0x0, symName: __ZNSt3__117__compressed_pairImNS_9allocatorIPNS_16__hash_node_baseIPNS_11__hash_nodeINS_17__hash_value_typeI6CoordsS5_EEPvEEEEEEEC1B8ue170006IRmRKSC_EEOT_OT0_, symObjAddr: 0x101C8, symBinAddr: 0x10001471C, symSize: 0x3C }
  - { offsetInCU: 0x22028, offset: 0x22028, size: 0x8, addend: 0x0, symName: __ZNSt3__117__compressed_pairImNS_9allocatorIPNS_16__hash_node_baseIPNS_11__hash_nodeINS_17__hash_value_typeI6CoordsS5_EEPvEEEEEEEC2B8ue170006IRmRKSC_EEOT_OT0_, symObjAddr: 0x10204, symBinAddr: 0x100014758, symSize: 0x44 }
  - { offsetInCU: 0x22080, offset: 0x22080, size: 0x8, addend: 0x0, symName: __ZNSt3__122__compressed_pair_elemImLi0ELb0EEC2B8ue170006IRmvEEOT_, symObjAddr: 0x10248, symBinAddr: 0x10001479C, symSize: 0x24 }
  - { offsetInCU: 0x220C2, offset: 0x220C2, size: 0x8, addend: 0x0, symName: __ZNSt3__122__compressed_pair_elemINS_9allocatorIPNS_16__hash_node_baseIPNS_11__hash_nodeINS_17__hash_value_typeI6CoordsS5_EEPvEEEEEELi1ELb1EEC2B8ue170006IRKSC_vEEOT_, symObjAddr: 0x1026C, symBinAddr: 0x1000147C0, symSize: 0x18 }
  - { offsetInCU: 0x22104, offset: 0x22104, size: 0x8, addend: 0x0, symName: __ZNSt3__110unique_ptrIA_PNS_16__hash_node_baseIPNS_11__hash_nodeINS_17__hash_value_typeI6CoordsS4_EEPvEEEENS_25__bucket_list_deallocatorINS_9allocatorISA_EEEEEC2B8ue170006ILb1EvEEDnNS_16__dependent_typeINS_27__unique_ptr_deleter_sfinaeISF_EEXT_EE20__good_rval_ref_typeE, symObjAddr: 0x10284, symBinAddr: 0x1000147D8, symSize: 0x48 }
  - { offsetInCU: 0x22154, offset: 0x22154, size: 0x8, addend: 0x0, symName: __ZNSt3__117__compressed_pairIPPNS_16__hash_node_baseIPNS_11__hash_nodeINS_17__hash_value_typeI6CoordsS4_EEPvEEEENS_25__bucket_list_deallocatorINS_9allocatorISA_EEEEEC1B8ue170006IDnSF_EEOT_OT0_, symObjAddr: 0x102CC, symBinAddr: 0x100014820, symSize: 0x3C }
  - { offsetInCU: 0x221AC, offset: 0x221AC, size: 0x8, addend: 0x0, symName: __ZNSt3__117__compressed_pairIPPNS_16__hash_node_baseIPNS_11__hash_nodeINS_17__hash_value_typeI6CoordsS4_EEPvEEEENS_25__bucket_list_deallocatorINS_9allocatorISA_EEEEEC2B8ue170006IDnSF_EEOT_OT0_, symObjAddr: 0x10308, symBinAddr: 0x10001485C, symSize: 0x48 }
  - { offsetInCU: 0x22204, offset: 0x22204, size: 0x8, addend: 0x0, symName: __ZNSt3__122__compressed_pair_elemIPPNS_16__hash_node_baseIPNS_11__hash_nodeINS_17__hash_value_typeI6CoordsS4_EEPvEEEELi0ELb0EEC2B8ue170006IDnvEEOT_, symObjAddr: 0x10350, symBinAddr: 0x1000148A4, symSize: 0x1C }
  - { offsetInCU: 0x22246, offset: 0x22246, size: 0x8, addend: 0x0, symName: __ZNSt3__122__compressed_pair_elemINS_25__bucket_list_deallocatorINS_9allocatorIPNS_16__hash_node_baseIPNS_11__hash_nodeINS_17__hash_value_typeI6CoordsS6_EEPvEEEEEEEELi1ELb0EEC2B8ue170006ISE_vEEOT_, symObjAddr: 0x1036C, symBinAddr: 0x1000148C0, symSize: 0x34 }
  - { offsetInCU: 0x22288, offset: 0x22288, size: 0x8, addend: 0x0, symName: __ZNSt3__125__bucket_list_deallocatorINS_9allocatorIPNS_16__hash_node_baseIPNS_11__hash_nodeINS_17__hash_value_typeI6CoordsS5_EEPvEEEEEEEC1B8ue170006EOSD_, symObjAddr: 0x103A0, symBinAddr: 0x1000148F4, symSize: 0x34 }
  - { offsetInCU: 0x222C1, offset: 0x222C1, size: 0x8, addend: 0x0, symName: __ZNSt3__125__bucket_list_deallocatorINS_9allocatorIPNS_16__hash_node_baseIPNS_11__hash_nodeINS_17__hash_value_typeI6CoordsS5_EEPvEEEEEEEC2B8ue170006EOSD_, symObjAddr: 0x103D4, symBinAddr: 0x100014928, symSize: 0x48 }
  - { offsetInCU: 0x222FA, offset: 0x222FA, size: 0x8, addend: 0x0, symName: __ZNKSt3__117__compressed_pairINS_16__hash_node_baseIPNS_11__hash_nodeINS_17__hash_value_typeI6CoordsS4_EEPvEEEENS_9allocatorIS7_EEE6secondB8ue170006Ev, symObjAddr: 0x1041C, symBinAddr: 0x100014970, symSize: 0x24 }
  - { offsetInCU: 0x22320, offset: 0x22320, size: 0x8, addend: 0x0, symName: __ZNKSt3__122__compressed_pair_elemINS_9allocatorINS_11__hash_nodeINS_17__hash_value_typeI6CoordsS4_EEPvEEEELi1ELb1EE5__getB8ue170006Ev, symObjAddr: 0x10440, symBinAddr: 0x100014994, symSize: 0x14 }
  - { offsetInCU: 0x22346, offset: 0x22346, size: 0x8, addend: 0x0, symName: __ZNSt3__117__compressed_pairINS_16__hash_node_baseIPNS_11__hash_nodeINS_17__hash_value_typeI6CoordsS4_EEPvEEEENS_9allocatorIS7_EEEC2B8ue170006INS_18__default_init_tagESB_EEOT_OT0_, symObjAddr: 0x10454, symBinAddr: 0x1000149A8, symSize: 0x40 }
  - { offsetInCU: 0x2239E, offset: 0x2239E, size: 0x8, addend: 0x0, symName: __ZNSt3__122__compressed_pair_elemINS_16__hash_node_baseIPNS_11__hash_nodeINS_17__hash_value_typeI6CoordsS4_EEPvEEEELi0ELb0EEC2B8ue170006ENS_18__default_init_tagE, symObjAddr: 0x10494, symBinAddr: 0x1000149E8, symSize: 0x2C }
  - { offsetInCU: 0x223D3, offset: 0x223D3, size: 0x8, addend: 0x0, symName: __ZNSt3__122__compressed_pair_elemINS_9allocatorINS_11__hash_nodeINS_17__hash_value_typeI6CoordsS4_EEPvEEEELi1ELb1EEC2B8ue170006IS8_vEEOT_, symObjAddr: 0x104C0, symBinAddr: 0x100014A14, symSize: 0x18 }
  - { offsetInCU: 0x22415, offset: 0x22415, size: 0x8, addend: 0x0, symName: __ZNKSt3__117__compressed_pairImNS_22__unordered_map_hasherI6CoordsNS_17__hash_value_typeIS2_S2_EENS_4hashIS2_EENS_8equal_toIS2_EELb1EEEE6secondB8ue170006Ev, symObjAddr: 0x104D8, symBinAddr: 0x100014A2C, symSize: 0x24 }
  - { offsetInCU: 0x2243B, offset: 0x2243B, size: 0x8, addend: 0x0, symName: __ZNKSt3__122__compressed_pair_elemINS_22__unordered_map_hasherI6CoordsNS_17__hash_value_typeIS2_S2_EENS_4hashIS2_EENS_8equal_toIS2_EELb1EEELi1ELb1EE5__getB8ue170006Ev, symObjAddr: 0x104FC, symBinAddr: 0x100014A50, symSize: 0x14 }
  - { offsetInCU: 0x22461, offset: 0x22461, size: 0x8, addend: 0x0, symName: __ZNSt3__117__compressed_pairImNS_22__unordered_map_hasherI6CoordsNS_17__hash_value_typeIS2_S2_EENS_4hashIS2_EENS_8equal_toIS2_EELb1EEEEC2B8ue170006IiRKS9_EEOT_OT0_, symObjAddr: 0x10510, symBinAddr: 0x100014A64, symSize: 0x44 }
  - { offsetInCU: 0x224B9, offset: 0x224B9, size: 0x8, addend: 0x0, symName: __ZNSt3__122__compressed_pair_elemINS_22__unordered_map_hasherI6CoordsNS_17__hash_value_typeIS2_S2_EENS_4hashIS2_EENS_8equal_toIS2_EELb1EEELi1ELb1EEC2B8ue170006IRKS9_vEEOT_, symObjAddr: 0x10554, symBinAddr: 0x100014AA8, symSize: 0x18 }
  - { offsetInCU: 0x224FB, offset: 0x224FB, size: 0x8, addend: 0x0, symName: __ZNSt3__112__hash_tableINS_17__hash_value_typeI6CoordsS2_EENS_22__unordered_map_hasherIS2_S3_NS_4hashIS2_EENS_8equal_toIS2_EELb1EEENS_21__unordered_map_equalIS2_S3_S8_S6_Lb1EEENS_9allocatorIS3_EEE15__insert_uniqueB8ue170006ERKNS_4pairIKS2_S2_EE, symObjAddr: 0x1059C, symBinAddr: 0x100014AF0, symSize: 0x50 }
  - { offsetInCU: 0x22530, offset: 0x22530, size: 0x8, addend: 0x0, symName: __ZNKSt3__125__hash_map_const_iteratorINS_21__hash_const_iteratorIPNS_11__hash_nodeINS_17__hash_value_typeI6CoordsS4_EEPvEEEEEdeB8ue170006Ev, symObjAddr: 0x105EC, symBinAddr: 0x100014B40, symSize: 0x28 }
  - { offsetInCU: 0x22556, offset: 0x22556, size: 0x8, addend: 0x0, symName: __ZNSt3__125__hash_map_const_iteratorINS_21__hash_const_iteratorIPNS_11__hash_nodeINS_17__hash_value_typeI6CoordsS4_EEPvEEEEEppB8ue170006Ev, symObjAddr: 0x10614, symBinAddr: 0x100014B68, symSize: 0x2C }
  - { offsetInCU: 0x2257C, offset: 0x2257C, size: 0x8, addend: 0x0, symName: __ZNSt3__112__hash_tableINS_17__hash_value_typeI6CoordsS2_EENS_22__unordered_map_hasherIS2_S3_NS_4hashIS2_EENS_8equal_toIS2_EELb1EEENS_21__unordered_map_equalIS2_S3_S8_S6_Lb1EEENS_9allocatorIS3_EEE25__emplace_unique_key_argsIS2_JRKNS_4pairIKS2_S2_EEEEENSG_INS_15__hash_iteratorIPNS_11__hash_nodeIS3_PvEEEEbEERKT_DpOT0_, symObjAddr: 0x10670, symBinAddr: 0x100014BC4, symSize: 0x4A0 }
  - { offsetInCU: 0x2265C, offset: 0x2265C, size: 0x8, addend: 0x0, symName: __ZNSt3__122__hash_key_value_typesINS_17__hash_value_typeI6CoordsS2_EEE9__get_keyB8ue170006ERKNS_4pairIKS2_S2_EE, symObjAddr: 0x10B10, symBinAddr: 0x100015064, symSize: 0x14 }
  - { offsetInCU: 0x2267F, offset: 0x2267F, size: 0x8, addend: 0x0, symName: __ZNSt3__112__hash_tableINS_17__hash_value_typeI6CoordsS2_EENS_22__unordered_map_hasherIS2_S3_NS_4hashIS2_EENS_8equal_toIS2_EELb1EEENS_21__unordered_map_equalIS2_S3_S8_S6_Lb1EEENS_9allocatorIS3_EEE21__construct_node_hashIRKNS_4pairIKS2_S2_EEJEEENS_10unique_ptrINS_11__hash_nodeIS3_PvEENS_22__hash_node_destructorINSC_ISO_EEEEEEmOT_DpOT0_, symObjAddr: 0x10B24, symBinAddr: 0x100015078, symSize: 0x140 }
  - { offsetInCU: 0x226F2, offset: 0x226F2, size: 0x8, addend: 0x0, symName: __ZNSt3__116allocator_traitsINS_9allocatorINS_11__hash_nodeINS_17__hash_value_typeI6CoordsS4_EEPvEEEEE9constructB8ue170006INS_4pairIKS4_S4_EEJRKSD_EvvEEvRS8_PT_DpOT0_, symObjAddr: 0x10C64, symBinAddr: 0x1000151B8, symSize: 0x30 }
  - { offsetInCU: 0x22747, offset: 0x22747, size: 0x8, addend: 0x0, symName: __ZNKSt3__121__hash_const_iteratorIPNS_11__hash_nodeINS_17__hash_value_typeI6CoordsS3_EEPvEEEptB8ue170006Ev, symObjAddr: 0x10CC0, symBinAddr: 0x100015214, symSize: 0x30 }
  - { offsetInCU: 0x2276D, offset: 0x2276D, size: 0x8, addend: 0x0, symName: __ZNSt3__114pointer_traitsIPKNS_17__hash_value_typeI6CoordsS2_EEE10pointer_toB8ue170006ERS4_, symObjAddr: 0x10CF0, symBinAddr: 0x100015244, symSize: 0x14 }
  - { offsetInCU: 0x22790, offset: 0x22790, size: 0x8, addend: 0x0, symName: __ZNSt3__121__hash_const_iteratorIPNS_11__hash_nodeINS_17__hash_value_typeI6CoordsS3_EEPvEEEppB8ue170006Ev, symObjAddr: 0x10D04, symBinAddr: 0x100015258, symSize: 0x20 }
  - { offsetInCU: 0x227B6, offset: 0x227B6, size: 0x8, addend: 0x0, symName: __ZNKSt3__112__hash_tableINS_17__hash_value_typeI6CoordsS2_EENS_22__unordered_map_hasherIS2_S3_NS_4hashIS2_EENS_8equal_toIS2_EELb1EEENS_21__unordered_map_equalIS2_S3_S8_S6_Lb1EEENS_9allocatorIS3_EEE5beginEv, symObjAddr: 0x10D24, symBinAddr: 0x100015278, symSize: 0x38 }
  - { offsetInCU: 0x227DE, offset: 0x227DE, size: 0x8, addend: 0x0, symName: __ZNSt3__125__hash_map_const_iteratorINS_21__hash_const_iteratorIPNS_11__hash_nodeINS_17__hash_value_typeI6CoordsS4_EEPvEEEEEC1B8ue170006ES9_, symObjAddr: 0x10D5C, symBinAddr: 0x1000152B0, symSize: 0x34 }
  - { offsetInCU: 0x22817, offset: 0x22817, size: 0x8, addend: 0x0, symName: __ZNKSt3__117__compressed_pairINS_16__hash_node_baseIPNS_11__hash_nodeINS_17__hash_value_typeI6CoordsS4_EEPvEEEENS_9allocatorIS7_EEE5firstB8ue170006Ev, symObjAddr: 0x10D90, symBinAddr: 0x1000152E4, symSize: 0x24 }
  - { offsetInCU: 0x2283D, offset: 0x2283D, size: 0x8, addend: 0x0, symName: __ZNSt3__121__hash_const_iteratorIPNS_11__hash_nodeINS_17__hash_value_typeI6CoordsS3_EEPvEEEC1B8ue170006EPNS_16__hash_node_baseIS7_EE, symObjAddr: 0x10DB4, symBinAddr: 0x100015308, symSize: 0x34 }
  - { offsetInCU: 0x22876, offset: 0x22876, size: 0x8, addend: 0x0, symName: __ZNKSt3__122__compressed_pair_elemINS_16__hash_node_baseIPNS_11__hash_nodeINS_17__hash_value_typeI6CoordsS4_EEPvEEEELi0ELb0EE5__getB8ue170006Ev, symObjAddr: 0x10DE8, symBinAddr: 0x10001533C, symSize: 0x14 }
  - { offsetInCU: 0x2289C, offset: 0x2289C, size: 0x8, addend: 0x0, symName: __ZNSt3__121__hash_const_iteratorIPNS_11__hash_nodeINS_17__hash_value_typeI6CoordsS3_EEPvEEEC2B8ue170006EPNS_16__hash_node_baseIS7_EE, symObjAddr: 0x10DFC, symBinAddr: 0x100015350, symSize: 0x20 }
  - { offsetInCU: 0x228D5, offset: 0x228D5, size: 0x8, addend: 0x0, symName: __ZNSt3__125__hash_map_const_iteratorINS_21__hash_const_iteratorIPNS_11__hash_nodeINS_17__hash_value_typeI6CoordsS4_EEPvEEEEEC2B8ue170006ES9_, symObjAddr: 0x10E1C, symBinAddr: 0x100015370, symSize: 0x20 }
  - { offsetInCU: 0x2290E, offset: 0x2290E, size: 0x8, addend: 0x0, symName: __ZNKSt3__112__hash_tableINS_17__hash_value_typeI6CoordsS2_EENS_22__unordered_map_hasherIS2_S3_NS_4hashIS2_EENS_8equal_toIS2_EELb1EEENS_21__unordered_map_equalIS2_S3_S8_S6_Lb1EEENS_9allocatorIS3_EEE3endEv, symObjAddr: 0x10E3C, symBinAddr: 0x100015390, symSize: 0x2C }
  - { offsetInCU: 0x24CD, offset: 0x251CC, size: 0x8, addend: 0x0, symName: __ZNSt3__112__to_addressB8ue170006IN5House4TileEEEPT_S4_, symObjAddr: 0x1398, symBinAddr: 0x100016748, symSize: 0x14 }
  - { offsetInCU: 0x2527, offset: 0x25226, size: 0x8, addend: 0x0, symName: __ZNSt3__112construct_atB8ue170006IN5House4TileEJRKS2_EPS2_EEPT_S7_DpOT0_, symObjAddr: 0x141C, symBinAddr: 0x1000167CC, symSize: 0x2C }
  - { offsetInCU: 0x2597, offset: 0x25296, size: 0x8, addend: 0x0, symName: __ZNSt3__119__allocate_at_leastB8ue170006INS_9allocatorIN5House4TileEEEEENS_19__allocation_resultINS_16allocator_traitsIT_E7pointerEEERS7_m, symObjAddr: 0x19A4, symBinAddr: 0x100016B04, symSize: 0x40 }
  - { offsetInCU: 0x25DA, offset: 0x252D9, size: 0x8, addend: 0x0, symName: __ZNSt3__142__uninitialized_allocator_move_if_noexceptB8ue170006INS_9allocatorIN5House4TileEEENS_16reverse_iteratorIPS3_EES7_S3_vEET1_RT_T0_SB_S8_, symObjAddr: 0x1DE0, symBinAddr: 0x100016E3C, symSize: 0x78 }
  - { offsetInCU: 0x2658, offset: 0x25357, size: 0x8, addend: 0x0, symName: __ZNSt3__14swapB8ue170006IPN5House4TileEEENS_9enable_ifIXaasr21is_move_constructibleIT_EE5valuesr18is_move_assignableIS5_EE5valueEvE4typeERS5_S8_, symObjAddr: 0x1EA4, symBinAddr: 0x100016F00, symSize: 0x3C }
  - { offsetInCU: 0x26AA, offset: 0x253A9, size: 0x8, addend: 0x0, symName: __ZNSt3__14moveB8ue170006INS_16reverse_iteratorIPN5House4TileEEES5_EET0_T_S7_S6_, symObjAddr: 0x1FD4, symBinAddr: 0x100017030, symSize: 0x78 }
  - { offsetInCU: 0x2704, offset: 0x25403, size: 0x8, addend: 0x0, symName: __ZNSt3__16__moveB8ue170006INS_17_ClassicAlgPolicyENS_16reverse_iteratorIPN5House4TileEEES6_S6_EENS_4pairIT0_T2_EES8_T1_S9_, symObjAddr: 0x204C, symBinAddr: 0x1000170A8, symSize: 0x64 }
  - { offsetInCU: 0x2770, offset: 0x2546F, size: 0x8, addend: 0x0, symName: __ZNSt3__123__dispatch_copy_or_moveB8ue170006INS_17_ClassicAlgPolicyENS_11__move_loopIS1_EENS_14__move_trivialENS_16reverse_iteratorIPN5House4TileEEES9_S9_EENS_4pairIT2_T4_EESB_T3_SC_, symObjAddr: 0x20B0, symBinAddr: 0x10001710C, symSize: 0x64 }
  - { offsetInCU: 0x27EE, offset: 0x254ED, size: 0x8, addend: 0x0, symName: __ZNSt3__121__unwrap_and_dispatchB8ue170006INS_10__overloadINS_11__move_loopINS_17_ClassicAlgPolicyEEENS_14__move_trivialEEENS_16reverse_iteratorIPN5House4TileEEESB_SB_Li0EEENS_4pairIT0_T2_EESD_T1_SE_, symObjAddr: 0x2114, symBinAddr: 0x100017170, symSize: 0x12C }
  - { offsetInCU: 0x2880, offset: 0x2557F, size: 0x8, addend: 0x0, symName: __ZNSt3__114__unwrap_rangeB8ue170006INS_16reverse_iteratorIPN5House4TileEEES5_EEDaT_T0_, symObjAddr: 0x2240, symBinAddr: 0x10001729C, symSize: 0x4C }
  - { offsetInCU: 0x29F2, offset: 0x256F1, size: 0x8, addend: 0x0, symName: __ZNSt3__113__unwrap_iterB8ue170006INS_16reverse_iteratorIPN5House4TileEEENS_18__unwrap_iter_implIS5_Lb0EEELi0EEEDTclsrT0_8__unwrapclsr3stdE7declvalIT_EEEES9_, symObjAddr: 0x232C, symBinAddr: 0x100017388, symSize: 0x44 }
  - { offsetInCU: 0x2A36, offset: 0x25735, size: 0x8, addend: 0x0, symName: __ZNSt3__19make_pairB8ue170006INS_16reverse_iteratorIPN5House4TileEEES5_EENS_4pairINS_18__unwrap_ref_decayIT_E4typeENS7_IT0_E4typeEEEOS8_OSB_, symObjAddr: 0x2370, symBinAddr: 0x1000173CC, symSize: 0x38 }
  - { offsetInCU: 0x2A85, offset: 0x25784, size: 0x8, addend: 0x0, symName: __ZNSt3__114__rewrap_rangeB8ue170006INS_16reverse_iteratorIPN5House4TileEEES5_S5_EET0_S6_T1_, symObjAddr: 0x23A8, symBinAddr: 0x100017404, symSize: 0x5C }
  - { offsetInCU: 0x2ADA, offset: 0x257D9, size: 0x8, addend: 0x0, symName: __ZNSt3__113__rewrap_iterB8ue170006INS_16reverse_iteratorIPN5House4TileEEES5_NS_18__unwrap_iter_implIS5_Lb0EEEEET_S8_T0_, symObjAddr: 0x2404, symBinAddr: 0x100017460, symSize: 0x74 }
  - { offsetInCU: 0x2B7F, offset: 0x2587E, size: 0x8, addend: 0x0, symName: __ZNSt3__1neB8ue170006IPN5House4TileES3_EEbRKNS_16reverse_iteratorIT_EERKNS4_IT0_EE, symObjAddr: 0x256C, symBinAddr: 0x1000175C8, symSize: 0x48 }
  - { offsetInCU: 0x2C7D, offset: 0x2597C, size: 0x8, addend: 0x0, symName: __ZNSt3__110destroy_atB8ue170006IN5House4TileELi0EEEvPT_, symObjAddr: 0x28F8, symBinAddr: 0x100017954, symSize: 0x24 }
  - { offsetInCU: 0x2CB4, offset: 0x259B3, size: 0x8, addend: 0x0, symName: __ZNSt3__112__destroy_atB8ue170006IN5House4TileELi0EEEvPT_, symObjAddr: 0x291C, symBinAddr: 0x100017978, symSize: 0x10 }
  - { offsetInCU: 0x2CEB, offset: 0x259EA, size: 0x8, addend: 0x0, symName: __ZNSt3__122__make_exception_guardB8ue170006INS_6vectorIN5House4TileENS_9allocatorIS3_EEE16__destroy_vectorEEENS_28__exception_guard_exceptionsIT_EES9_, symObjAddr: 0x2FB8, symBinAddr: 0x100017F0C, symSize: 0x40 }
  - { offsetInCU: 0x2D20, offset: 0x25A1F, size: 0x8, addend: 0x0, symName: __ZNSt3__130__uninitialized_allocator_copyB8ue170006INS_9allocatorIN5House4TileEEEPS3_S5_S5_EET2_RT_T0_T1_S6_, symObjAddr: 0x31D0, symBinAddr: 0x100018124, symSize: 0x80 }
  - { offsetInCU: 0x2DBD, offset: 0x25ABC, size: 0x8, addend: 0x0, symName: __ZNSt3__114__unwrap_rangeB8ue170006IPN5House4TileES3_EEDaT_T0_, symObjAddr: 0x3250, symBinAddr: 0x1000181A4, symSize: 0x3C }
  - { offsetInCU: 0x2E09, offset: 0x25B08, size: 0x8, addend: 0x0, symName: __ZNSt3__135__uninitialized_allocator_copy_implB8ue170006INS_9allocatorIN5House4TileEEES3_S3_S3_LPv0EEEPT2_RT_PT0_SB_S7_, symObjAddr: 0x328C, symBinAddr: 0x1000181E0, symSize: 0x38 }
  - { offsetInCU: 0x2E8B, offset: 0x25B8A, size: 0x8, addend: 0x0, symName: __ZNSt3__113__unwrap_iterB8ue170006IPN5House4TileENS_18__unwrap_iter_implIS3_Lb1EEELi0EEEDTclsrT0_8__unwrapclsr3stdE7declvalIT_EEEES7_, symObjAddr: 0x32C4, symBinAddr: 0x100018218, symSize: 0x24 }
  - { offsetInCU: 0x2ECF, offset: 0x25BCE, size: 0x8, addend: 0x0, symName: __ZNSt3__113__rewrap_iterB8ue170006IPN5House4TileES3_NS_18__unwrap_iter_implIS3_Lb1EEEEET_S6_T0_, symObjAddr: 0x32E8, symBinAddr: 0x10001823C, symSize: 0x3C }
  - { offsetInCU: 0x306F, offset: 0x25D6E, size: 0x8, addend: 0x0, symName: __ZNSt3__14copyB8ue170006IPN5House4TileES3_EET0_T_S5_S4_, symObjAddr: 0x33EC, symBinAddr: 0x100018340, symSize: 0x40 }
  - { offsetInCU: 0x30C9, offset: 0x25DC8, size: 0x8, addend: 0x0, symName: __ZNSt3__16__copyB8ue170006INS_17_ClassicAlgPolicyEPN5House4TileES4_S4_EENS_4pairIT0_T2_EES6_T1_S7_, symObjAddr: 0x342C, symBinAddr: 0x100018380, symSize: 0x44 }
  - { offsetInCU: 0x3135, offset: 0x25E34, size: 0x8, addend: 0x0, symName: __ZNSt3__123__dispatch_copy_or_moveB8ue170006INS_17_ClassicAlgPolicyENS_11__copy_loopIS1_EENS_14__copy_trivialEPN5House4TileES7_S7_EENS_4pairIT2_T4_EES9_T3_SA_, symObjAddr: 0x3470, symBinAddr: 0x1000183C4, symSize: 0x44 }
  - { offsetInCU: 0x31B3, offset: 0x25EB2, size: 0x8, addend: 0x0, symName: __ZNSt3__121__unwrap_and_dispatchB8ue170006INS_10__overloadINS_11__copy_loopINS_17_ClassicAlgPolicyEEENS_14__copy_trivialEEEPN5House4TileES9_S9_Li0EEENS_4pairIT0_T2_EESB_T1_SC_, symObjAddr: 0x34B4, symBinAddr: 0x100018408, symSize: 0xB4 }
  - { offsetInCU: 0x3289, offset: 0x25F88, size: 0x8, addend: 0x0, symName: __ZNSt3__19make_pairB8ue170006IPN5House4TileES3_EENS_4pairINS_18__unwrap_ref_decayIT_E4typeENS5_IT0_E4typeEEEOS6_OS9_, symObjAddr: 0x35B0, symBinAddr: 0x100018504, symSize: 0x38 }
  - { offsetInCU: 0x32D8, offset: 0x25FD7, size: 0x8, addend: 0x0, symName: __ZNSt3__114__rewrap_rangeB8ue170006IPN5House4TileES3_S3_EET0_S4_T1_, symObjAddr: 0x35E8, symBinAddr: 0x10001853C, symSize: 0x2C }
  - { offsetInCU: 0x332D, offset: 0x2602C, size: 0x8, addend: 0x0, symName: __ZNSt3__119__copy_trivial_implB8ue170006IN5House4TileES2_EENS_4pairIPT_PT0_EES5_S5_S7_, symObjAddr: 0x3614, symBinAddr: 0x100018568, symSize: 0x80 }
  - { offsetInCU: 0x3396, offset: 0x26095, size: 0x8, addend: 0x0, symName: __ZNSt3__119__constexpr_memmoveB8ue170006IN5House4TileES2_Li0EEEPT_S4_PT0_NS_15__element_countE, symObjAddr: 0x3694, symBinAddr: 0x1000185E8, symSize: 0x64 }
  - { offsetInCU: 0x3405, offset: 0x26104, size: 0x8, addend: 0x0, symName: __ZNSt3__19make_pairB8ue170006IRPN5House4TileES3_EENS_4pairINS_18__unwrap_ref_decayIT_E4typeENS6_IT0_E4typeEEEOS7_OSA_, symObjAddr: 0x36F8, symBinAddr: 0x10001864C, symSize: 0x38 }
  - { offsetInCU: 0x3B57, offset: 0x26856, size: 0x8, addend: 0x0, symName: __ZNSt3__16vectorIN5House4TileENS_9allocatorIS2_EEE26__swap_out_circular_bufferERNS_14__split_bufferIS2_RS4_EE, symObjAddr: 0x11B8, symBinAddr: 0x100016568, symSize: 0x110 }
  - { offsetInCU: 0x5ABF, offset: 0x287BE, size: 0x8, addend: 0x0, symName: __ZN5House4TileC2Ei, symObjAddr: 0x0, symBinAddr: 0x1000153BC, symSize: 0x20 }
  - { offsetInCU: 0x5AF9, offset: 0x287F8, size: 0x8, addend: 0x0, symName: __ZN5House4TileC1Ei, symObjAddr: 0x20, symBinAddr: 0x1000153DC, symSize: 0x34 }
  - { offsetInCU: 0x5B33, offset: 0x28832, size: 0x8, addend: 0x0, symName: __ZN5House4TileC2Ec, symObjAddr: 0x54, symBinAddr: 0x100015410, symSize: 0xEC }
  - { offsetInCU: 0x5B6D, offset: 0x2886C, size: 0x8, addend: 0x0, symName: __ZN5House4TileC1Ec, symObjAddr: 0x140, symBinAddr: 0x1000154FC, symSize: 0x34 }
  - { offsetInCU: 0x5BA7, offset: 0x288A6, size: 0x8, addend: 0x0, symName: __ZNK5House4Tile9getStatusEv, symObjAddr: 0x174, symBinAddr: 0x100015530, symSize: 0x18 }
  - { offsetInCU: 0x5BCE, offset: 0x288CD, size: 0x8, addend: 0x0, symName: __ZN5House4Tile9cleanOnceEv, symObjAddr: 0x18C, symBinAddr: 0x100015548, symSize: 0x6C }
  - { offsetInCU: 0x5BF6, offset: 0x288F5, size: 0x8, addend: 0x0, symName: __ZNK5House4Tile6isWallEv, symObjAddr: 0x1F8, symBinAddr: 0x1000155B4, symSize: 0x24 }
  - { offsetInCU: 0x5C1E, offset: 0x2891D, size: 0x8, addend: 0x0, symName: __ZN5House6MatrixC2Emm, symObjAddr: 0x21C, symBinAddr: 0x1000155D8, symSize: 0xA0 }
  - { offsetInCU: 0x5C66, offset: 0x28965, size: 0x8, addend: 0x0, symName: __ZNSt3__16vectorIN5House4TileENS_9allocatorIS2_EEEC1B8ue170006Ev, symObjAddr: 0x2BC, symBinAddr: 0x100015678, symSize: 0x2C }
  - { offsetInCU: 0x5C8F, offset: 0x2898E, size: 0x8, addend: 0x0, symName: __ZNSt3__16vectorIN5House4TileENS_9allocatorIS2_EEE6resizeEmRKS2_, symObjAddr: 0x2E8, symBinAddr: 0x1000156A4, symSize: 0x9C }
  - { offsetInCU: 0x5CE5, offset: 0x289E4, size: 0x8, addend: 0x0, symName: __ZNSt3__16vectorIN5House4TileENS_9allocatorIS2_EEED1B8ue170006Ev, symObjAddr: 0x384, symBinAddr: 0x100015740, symSize: 0x2C }
  - { offsetInCU: 0x5D0F, offset: 0x28A0E, size: 0x8, addend: 0x0, symName: __ZN5House6MatrixC1Emm, symObjAddr: 0x3B0, symBinAddr: 0x10001576C, symSize: 0x3C }
  - { offsetInCU: 0x5D57, offset: 0x28A56, size: 0x8, addend: 0x0, symName: __ZN5House6Matrix12ElementProxyC2ERS0_mm, symObjAddr: 0x3EC, symBinAddr: 0x1000157A8, symSize: 0x38 }
  - { offsetInCU: 0x5DAD, offset: 0x28AAC, size: 0x8, addend: 0x0, symName: __ZN5House6Matrix12ElementProxyC1ERS0_mm, symObjAddr: 0x424, symBinAddr: 0x1000157E0, symSize: 0x44 }
  - { offsetInCU: 0x5E03, offset: 0x28B02, size: 0x8, addend: 0x0, symName: __ZN5House6Matrix12ElementProxyaSENS_4TileE, symObjAddr: 0x468, symBinAddr: 0x100015824, symSize: 0xC4 }
  - { offsetInCU: 0x5E39, offset: 0x28B38, size: 0x8, addend: 0x0, symName: __ZNK5House6Matrix7getDimXEv, symObjAddr: 0x52C, symBinAddr: 0x1000158E8, symSize: 0x18 }
  - { offsetInCU: 0x5E61, offset: 0x28B60, size: 0x8, addend: 0x0, symName: __ZNK5House6Matrix7getDimYEv, symObjAddr: 0x544, symBinAddr: 0x100015900, symSize: 0x18 }
  - { offsetInCU: 0x5E89, offset: 0x28B88, size: 0x8, addend: 0x0, symName: __ZNSt3__16vectorIN5House4TileENS_9allocatorIS2_EEEixB8ue170006Em, symObjAddr: 0x55C, symBinAddr: 0x100015918, symSize: 0x24 }
  - { offsetInCU: 0x5EC0, offset: 0x28BBF, size: 0x8, addend: 0x0, symName: __ZN5House6Matrix12ElementProxyaSERKS1_, symObjAddr: 0x580, symBinAddr: 0x10001593C, symSize: 0x50 }
  - { offsetInCU: 0x5EF6, offset: 0x28BF5, size: 0x8, addend: 0x0, symName: __ZNK5House6Matrix12ElementProxycvNS_4TileEEv, symObjAddr: 0x5D0, symBinAddr: 0x10001598C, symSize: 0xC4 }
  - { offsetInCU: 0x5F1E, offset: 0x28C1D, size: 0x8, addend: 0x0, symName: __ZNK5House6Matrix12ElementProxy9getStatusEv, symObjAddr: 0x694, symBinAddr: 0x100015A50, symSize: 0x34 }
  - { offsetInCU: 0x5F46, offset: 0x28C45, size: 0x8, addend: 0x0, symName: __ZN5House6Matrix12ElementProxy9cleanOnceEv, symObjAddr: 0x6C8, symBinAddr: 0x100015A84, symSize: 0x5C }
  - { offsetInCU: 0x5F6E, offset: 0x28C6D, size: 0x8, addend: 0x0, symName: __ZNK5House6Matrix12ElementProxy6isWallEv, symObjAddr: 0x724, symBinAddr: 0x100015AE0, symSize: 0x38 }
  - { offsetInCU: 0x5F96, offset: 0x28C95, size: 0x8, addend: 0x0, symName: __ZN5House6MatrixclEmm, symObjAddr: 0x75C, symBinAddr: 0x100015B18, symSize: 0x40 }
  - { offsetInCU: 0x5FDA, offset: 0x28CD9, size: 0x8, addend: 0x0, symName: __ZN5House6MatrixclE6Coords, symObjAddr: 0x79C, symBinAddr: 0x100015B58, symSize: 0x30 }
  - { offsetInCU: 0x6010, offset: 0x28D0F, size: 0x8, addend: 0x0, symName: __ZNK5House6MatrixclEmm, symObjAddr: 0x7CC, symBinAddr: 0x100015B88, symSize: 0xA4 }
  - { offsetInCU: 0x6054, offset: 0x28D53, size: 0x8, addend: 0x0, symName: __ZNKSt3__16vectorIN5House4TileENS_9allocatorIS2_EEEixB8ue170006Em, symObjAddr: 0x870, symBinAddr: 0x100015C2C, symSize: 0x24 }
  - { offsetInCU: 0x608B, offset: 0x28D8A, size: 0x8, addend: 0x0, symName: __ZNK5House6MatrixclE6Coords, symObjAddr: 0x894, symBinAddr: 0x100015C50, symSize: 0x38 }
  - { offsetInCU: 0x60C1, offset: 0x28DC0, size: 0x8, addend: 0x0, symName: __ZN5HouseC2ENS_6MatrixE6Coordsm, symObjAddr: 0x8CC, symBinAddr: 0x100015C88, symSize: 0x50 }
  - { offsetInCU: 0x611E, offset: 0x28E1D, size: 0x8, addend: 0x0, symName: __ZN5House6MatrixC1ERKS0_, symObjAddr: 0x91C, symBinAddr: 0x100015CD8, symSize: 0x34 }
  - { offsetInCU: 0x6153, offset: 0x28E52, size: 0x8, addend: 0x0, symName: __ZN5HouseC1ENS_6MatrixE6Coordsm, symObjAddr: 0x950, symBinAddr: 0x100015D0C, symSize: 0x44 }
  - { offsetInCU: 0x61AA, offset: 0x28EA9, size: 0x8, addend: 0x0, symName: __ZNK5House12getDirtLevelE6Coords, symObjAddr: 0x994, symBinAddr: 0x100015D50, symSize: 0x84 }
  - { offsetInCU: 0x61EF, offset: 0x28EEE, size: 0x8, addend: 0x0, symName: __ZN5House9cleanOnceE6Coords, symObjAddr: 0xA18, symBinAddr: 0x100015DD4, symSize: 0x68 }
  - { offsetInCU: 0x6225, offset: 0x28F24, size: 0x8, addend: 0x0, symName: __ZNK5House6isWallE6Coords, symObjAddr: 0xA80, symBinAddr: 0x100015E3C, symSize: 0x98 }
  - { offsetInCU: 0x625B, offset: 0x28F5A, size: 0x8, addend: 0x0, symName: __ZNK5House23getDockingStationCoordsEv, symObjAddr: 0xB18, symBinAddr: 0x100015ED4, symSize: 0x20 }
  - { offsetInCU: 0x6283, offset: 0x28F82, size: 0x8, addend: 0x0, symName: __ZNK5House12getTotalDirtEv, symObjAddr: 0xB38, symBinAddr: 0x100015EF4, symSize: 0x18 }
  - { offsetInCU: 0x62AB, offset: 0x28FAA, size: 0x8, addend: 0x0, symName: __ZN5House8setTilesEONS_6MatrixE, symObjAddr: 0xB50, symBinAddr: 0x100015F0C, symSize: 0x30 }
  - { offsetInCU: 0x62E1, offset: 0x28FE0, size: 0x8, addend: 0x0, symName: __ZN5House6MatrixaSEOS0_, symObjAddr: 0xB80, symBinAddr: 0x100015F3C, symSize: 0x40 }
  - { offsetInCU: 0x6312, offset: 0x29011, size: 0x8, addend: 0x0, symName: __ZN5House17setDockingStationE6Coords, symObjAddr: 0xBC0, symBinAddr: 0x100015F7C, symSize: 0x20 }
  - { offsetInCU: 0x6348, offset: 0x29047, size: 0x8, addend: 0x0, symName: __ZN5House12setTotalDirtEm, symObjAddr: 0xBE0, symBinAddr: 0x100015F9C, symSize: 0x20 }
  - { offsetInCU: 0x637E, offset: 0x2907D, size: 0x8, addend: 0x0, symName: __ZNSt3__16vectorIN5House4TileENS_9allocatorIS2_EEEC2B8ue170006Ev, symObjAddr: 0xC00, symBinAddr: 0x100015FBC, symSize: 0x4C }
  - { offsetInCU: 0x63B4, offset: 0x290B3, size: 0x8, addend: 0x0, symName: __ZNSt3__117__compressed_pairIPN5House4TileENS_9allocatorIS2_EEEC1B8ue170006IDnNS_18__default_init_tagEEEOT_OT0_, symObjAddr: 0xC4C, symBinAddr: 0x100016008, symSize: 0x3C }
  - { offsetInCU: 0x640C, offset: 0x2910B, size: 0x8, addend: 0x0, symName: __ZNSt3__117__compressed_pairIPN5House4TileENS_9allocatorIS2_EEEC2B8ue170006IDnNS_18__default_init_tagEEEOT_OT0_, symObjAddr: 0xC94, symBinAddr: 0x100016044, symSize: 0x40 }
  - { offsetInCU: 0x6464, offset: 0x29163, size: 0x8, addend: 0x0, symName: __ZNSt3__122__compressed_pair_elemIPN5House4TileELi0ELb0EEC2B8ue170006IDnvEEOT_, symObjAddr: 0xCD4, symBinAddr: 0x100016084, symSize: 0x1C }
  - { offsetInCU: 0x64A6, offset: 0x291A5, size: 0x8, addend: 0x0, symName: __ZNSt3__122__compressed_pair_elemINS_9allocatorIN5House4TileEEELi1ELb1EEC2B8ue170006ENS_18__default_init_tagE, symObjAddr: 0xCF0, symBinAddr: 0x1000160A0, symSize: 0x2C }
  - { offsetInCU: 0x64DB, offset: 0x291DA, size: 0x8, addend: 0x0, symName: __ZNSt3__19allocatorIN5House4TileEEC2B8ue170006Ev, symObjAddr: 0xD1C, symBinAddr: 0x1000160CC, symSize: 0x2C }
  - { offsetInCU: 0x6505, offset: 0x29204, size: 0x8, addend: 0x0, symName: __ZNSt3__116__non_trivial_ifILb1ENS_9allocatorIN5House4TileEEEEC2B8ue170006Ev, symObjAddr: 0xD48, symBinAddr: 0x1000160F8, symSize: 0x14 }
  - { offsetInCU: 0x652F, offset: 0x2922E, size: 0x8, addend: 0x0, symName: __ZNKSt3__16vectorIN5House4TileENS_9allocatorIS2_EEE4sizeB8ue170006Ev, symObjAddr: 0xD5C, symBinAddr: 0x10001610C, symSize: 0x28 }
  - { offsetInCU: 0x6554, offset: 0x29253, size: 0x8, addend: 0x0, symName: __ZNSt3__16vectorIN5House4TileENS_9allocatorIS2_EEE8__appendEmRKS2_, symObjAddr: 0xD84, symBinAddr: 0x100016134, symSize: 0x114 }
  - { offsetInCU: 0x65BF, offset: 0x292BE, size: 0x8, addend: 0x0, symName: __ZNSt3__16vectorIN5House4TileENS_9allocatorIS2_EEE17__destruct_at_endB8ue170006EPS2_, symObjAddr: 0xE98, symBinAddr: 0x100016248, symSize: 0x4C }
  - { offsetInCU: 0x6603, offset: 0x29302, size: 0x8, addend: 0x0, symName: __ZNSt3__16vectorIN5House4TileENS_9allocatorIS2_EEE9__end_capB8ue170006Ev, symObjAddr: 0xEE4, symBinAddr: 0x100016294, symSize: 0x28 }
  - { offsetInCU: 0x6628, offset: 0x29327, size: 0x8, addend: 0x0, symName: __ZNSt3__16vectorIN5House4TileENS_9allocatorIS2_EEE18__construct_at_endEmRKS2_, symObjAddr: 0xF0C, symBinAddr: 0x1000162BC, symSize: 0xD0 }
  - { offsetInCU: 0x66AA, offset: 0x293A9, size: 0x8, addend: 0x0, symName: __ZNSt3__16vectorIN5House4TileENS_9allocatorIS2_EEE7__allocB8ue170006Ev, symObjAddr: 0xFDC, symBinAddr: 0x10001638C, symSize: 0x28 }
  - { offsetInCU: 0x66CF, offset: 0x293CE, size: 0x8, addend: 0x0, symName: __ZNKSt3__16vectorIN5House4TileENS_9allocatorIS2_EEE11__recommendB8ue170006Em, symObjAddr: 0x1004, symBinAddr: 0x1000163B4, symSize: 0xB4 }
  - { offsetInCU: 0x6725, offset: 0x29424, size: 0x8, addend: 0x0, symName: __ZNSt3__114__split_bufferIN5House4TileERNS_9allocatorIS2_EEEC1EmmS5_, symObjAddr: 0x10B8, symBinAddr: 0x100016468, symSize: 0x44 }
  - { offsetInCU: 0x677A, offset: 0x29479, size: 0x8, addend: 0x0, symName: __ZNSt3__114__split_bufferIN5House4TileERNS_9allocatorIS2_EEE18__construct_at_endEmRKS2_, symObjAddr: 0x10FC, symBinAddr: 0x1000164AC, symSize: 0xBC }
  - { offsetInCU: 0x67CE, offset: 0x294CD, size: 0x8, addend: 0x0, symName: __ZNSt3__114__split_bufferIN5House4TileERNS_9allocatorIS2_EEED1Ev, symObjAddr: 0x12C8, symBinAddr: 0x100016678, symSize: 0x2C }
  - { offsetInCU: 0x67FA, offset: 0x294F9, size: 0x8, addend: 0x0, symName: __ZNSt3__117__compressed_pairIPN5House4TileENS_9allocatorIS2_EEE5firstB8ue170006Ev, symObjAddr: 0x12F4, symBinAddr: 0x1000166A4, symSize: 0x24 }
  - { offsetInCU: 0x6820, offset: 0x2951F, size: 0x8, addend: 0x0, symName: __ZNSt3__122__compressed_pair_elemIPN5House4TileELi0ELb0EE5__getB8ue170006Ev, symObjAddr: 0x1318, symBinAddr: 0x1000166C8, symSize: 0x14 }
  - { offsetInCU: 0x6862, offset: 0x29561, size: 0x8, addend: 0x0, symName: __ZNSt3__16vectorIN5House4TileENS_9allocatorIS2_EEE21_ConstructTransactionC1B8ue170006ERS5_m, symObjAddr: 0x132C, symBinAddr: 0x1000166DC, symSize: 0x3C }
  - { offsetInCU: 0x68B0, offset: 0x295AF, size: 0x8, addend: 0x0, symName: __ZNSt3__116allocator_traitsINS_9allocatorIN5House4TileEEEE9constructB8ue170006IS3_JRKS3_EvvEEvRS4_PT_DpOT0_, symObjAddr: 0x1368, symBinAddr: 0x100016718, symSize: 0x30 }
  - { offsetInCU: 0x6905, offset: 0x29604, size: 0x8, addend: 0x0, symName: __ZNSt3__16vectorIN5House4TileENS_9allocatorIS2_EEE21_ConstructTransactionD1B8ue170006Ev, symObjAddr: 0x13AC, symBinAddr: 0x10001675C, symSize: 0x2C }
  - { offsetInCU: 0x692F, offset: 0x2962E, size: 0x8, addend: 0x0, symName: __ZNSt3__16vectorIN5House4TileENS_9allocatorIS2_EEE21_ConstructTransactionC2B8ue170006ERS5_m, symObjAddr: 0x13D8, symBinAddr: 0x100016788, symSize: 0x44 }
  - { offsetInCU: 0x6977, offset: 0x29676, size: 0x8, addend: 0x0, symName: __ZNSt3__16vectorIN5House4TileENS_9allocatorIS2_EEE21_ConstructTransactionD2B8ue170006Ev, symObjAddr: 0x1448, symBinAddr: 0x1000167F8, symSize: 0x20 }
  - { offsetInCU: 0x69A1, offset: 0x296A0, size: 0x8, addend: 0x0, symName: __ZNSt3__117__compressed_pairIPN5House4TileENS_9allocatorIS2_EEE6secondB8ue170006Ev, symObjAddr: 0x1468, symBinAddr: 0x100016818, symSize: 0x24 }
  - { offsetInCU: 0x69C7, offset: 0x296C6, size: 0x8, addend: 0x0, symName: __ZNSt3__122__compressed_pair_elemINS_9allocatorIN5House4TileEEELi1ELb1EE5__getB8ue170006Ev, symObjAddr: 0x148C, symBinAddr: 0x10001683C, symSize: 0x14 }
  - { offsetInCU: 0x69EC, offset: 0x296EB, size: 0x8, addend: 0x0, symName: __ZNKSt3__16vectorIN5House4TileENS_9allocatorIS2_EEE8max_sizeEv, symObjAddr: 0x14A0, symBinAddr: 0x100016850, symSize: 0x60 }
  - { offsetInCU: 0x6A15, offset: 0x29714, size: 0x8, addend: 0x0, symName: __ZNKSt3__16vectorIN5House4TileENS_9allocatorIS2_EEE20__throw_length_errorB8ue170006Ev, symObjAddr: 0x1500, symBinAddr: 0x1000168B0, symSize: 0x1C }
  - { offsetInCU: 0x6A3B, offset: 0x2973A, size: 0x8, addend: 0x0, symName: __ZNKSt3__16vectorIN5House4TileENS_9allocatorIS2_EEE8capacityB8ue170006Ev, symObjAddr: 0x151C, symBinAddr: 0x1000168CC, symSize: 0x40 }
  - { offsetInCU: 0x6A6C, offset: 0x2976B, size: 0x8, addend: 0x0, symName: __ZNSt3__116allocator_traitsINS_9allocatorIN5House4TileEEEE8max_sizeB8ue170006IS4_vvEEmRKS4_, symObjAddr: 0x15B4, symBinAddr: 0x10001690C, symSize: 0x28 }
  - { offsetInCU: 0x6A98, offset: 0x29797, size: 0x8, addend: 0x0, symName: __ZNKSt3__16vectorIN5House4TileENS_9allocatorIS2_EEE7__allocB8ue170006Ev, symObjAddr: 0x15DC, symBinAddr: 0x100016934, symSize: 0x28 }
  - { offsetInCU: 0x6ABE, offset: 0x297BD, size: 0x8, addend: 0x0, symName: __ZNKSt3__117__compressed_pairIPN5House4TileENS_9allocatorIS2_EEE6secondB8ue170006Ev, symObjAddr: 0x16BC, symBinAddr: 0x10001695C, symSize: 0x24 }
  - { offsetInCU: 0x6AE4, offset: 0x297E3, size: 0x8, addend: 0x0, symName: __ZNKSt3__122__compressed_pair_elemINS_9allocatorIN5House4TileEEELi1ELb1EE5__getB8ue170006Ev, symObjAddr: 0x16E0, symBinAddr: 0x100016980, symSize: 0x14 }
  - { offsetInCU: 0x6B0A, offset: 0x29809, size: 0x8, addend: 0x0, symName: __ZNKSt3__16vectorIN5House4TileENS_9allocatorIS2_EEE9__end_capB8ue170006Ev, symObjAddr: 0x17E0, symBinAddr: 0x100016994, symSize: 0x28 }
  - { offsetInCU: 0x6B30, offset: 0x2982F, size: 0x8, addend: 0x0, symName: __ZNKSt3__117__compressed_pairIPN5House4TileENS_9allocatorIS2_EEE5firstB8ue170006Ev, symObjAddr: 0x1808, symBinAddr: 0x1000169BC, symSize: 0x24 }
  - { offsetInCU: 0x6B56, offset: 0x29855, size: 0x8, addend: 0x0, symName: __ZNKSt3__122__compressed_pair_elemIPN5House4TileELi0ELb0EE5__getB8ue170006Ev, symObjAddr: 0x182C, symBinAddr: 0x1000169E0, symSize: 0x14 }
  - { offsetInCU: 0x6B7C, offset: 0x2987B, size: 0x8, addend: 0x0, symName: __ZNSt3__114__split_bufferIN5House4TileERNS_9allocatorIS2_EEEC2EmmS5_, symObjAddr: 0x1894, symBinAddr: 0x1000169F4, symSize: 0xD4 }
  - { offsetInCU: 0x6BEF, offset: 0x298EE, size: 0x8, addend: 0x0, symName: __ZNSt3__117__compressed_pairIPN5House4TileERNS_9allocatorIS2_EEEC1B8ue170006IDnS6_EEOT_OT0_, symObjAddr: 0x1968, symBinAddr: 0x100016AC8, symSize: 0x3C }
  - { offsetInCU: 0x6C47, offset: 0x29946, size: 0x8, addend: 0x0, symName: __ZNSt3__114__split_bufferIN5House4TileERNS_9allocatorIS2_EEE7__allocB8ue170006Ev, symObjAddr: 0x19E4, symBinAddr: 0x100016B44, symSize: 0x28 }
  - { offsetInCU: 0x6C6D, offset: 0x2996C, size: 0x8, addend: 0x0, symName: __ZNSt3__114__split_bufferIN5House4TileERNS_9allocatorIS2_EEE9__end_capB8ue170006Ev, symObjAddr: 0x1A0C, symBinAddr: 0x100016B6C, symSize: 0x28 }
  - { offsetInCU: 0x6C93, offset: 0x29992, size: 0x8, addend: 0x0, symName: __ZNSt3__117__compressed_pairIPN5House4TileERNS_9allocatorIS2_EEEC2B8ue170006IDnS6_EEOT_OT0_, symObjAddr: 0x1A34, symBinAddr: 0x100016B94, symSize: 0x48 }
  - { offsetInCU: 0x6CEB, offset: 0x299EA, size: 0x8, addend: 0x0, symName: __ZNSt3__122__compressed_pair_elemIRNS_9allocatorIN5House4TileEEELi1ELb0EEC2B8ue170006IS5_vEEOT_, symObjAddr: 0x1A7C, symBinAddr: 0x100016BDC, symSize: 0x20 }
  - { offsetInCU: 0x6D2D, offset: 0x29A2C, size: 0x8, addend: 0x0, symName: __ZNSt3__19allocatorIN5House4TileEE8allocateB8ue170006Em, symObjAddr: 0x1A9C, symBinAddr: 0x100016BFC, symSize: 0x58 }
  - { offsetInCU: 0x6D61, offset: 0x29A60, size: 0x8, addend: 0x0, symName: __ZNSt3__117__compressed_pairIPN5House4TileERNS_9allocatorIS2_EEE6secondB8ue170006Ev, symObjAddr: 0x1BF8, symBinAddr: 0x100016C54, symSize: 0x28 }
  - { offsetInCU: 0x6D87, offset: 0x29A86, size: 0x8, addend: 0x0, symName: __ZNSt3__122__compressed_pair_elemIRNS_9allocatorIN5House4TileEEELi1ELb0EE5__getB8ue170006Ev, symObjAddr: 0x1C20, symBinAddr: 0x100016C7C, symSize: 0x18 }
  - { offsetInCU: 0x6DAD, offset: 0x29AAC, size: 0x8, addend: 0x0, symName: __ZNSt3__117__compressed_pairIPN5House4TileERNS_9allocatorIS2_EEE5firstB8ue170006Ev, symObjAddr: 0x1C38, symBinAddr: 0x100016C94, symSize: 0x24 }
  - { offsetInCU: 0x6DDF, offset: 0x29ADE, size: 0x8, addend: 0x0, symName: __ZNSt3__114__split_bufferIN5House4TileERNS_9allocatorIS2_EEE21_ConstructTransactionC1B8ue170006EPPS2_m, symObjAddr: 0x1C5C, symBinAddr: 0x100016CB8, symSize: 0x3C }
  - { offsetInCU: 0x6E25, offset: 0x29B24, size: 0x8, addend: 0x0, symName: __ZNSt3__114__split_bufferIN5House4TileERNS_9allocatorIS2_EEE21_ConstructTransactionD1B8ue170006Ev, symObjAddr: 0x1C98, symBinAddr: 0x100016CF4, symSize: 0x2C }
  - { offsetInCU: 0x6E4F, offset: 0x29B4E, size: 0x8, addend: 0x0, symName: __ZNSt3__114__split_bufferIN5House4TileERNS_9allocatorIS2_EEE21_ConstructTransactionC2B8ue170006EPPS2_m, symObjAddr: 0x1CC4, symBinAddr: 0x100016D20, symSize: 0x44 }
  - { offsetInCU: 0x6E95, offset: 0x29B94, size: 0x8, addend: 0x0, symName: __ZNSt3__114__split_bufferIN5House4TileERNS_9allocatorIS2_EEE21_ConstructTransactionD2B8ue170006Ev, symObjAddr: 0x1D08, symBinAddr: 0x100016D64, symSize: 0x20 }
  - { offsetInCU: 0x6EBF, offset: 0x29BBE, size: 0x8, addend: 0x0, symName: __ZNKSt3__16vectorIN5House4TileENS_9allocatorIS2_EEE17__annotate_deleteB8ue170006Ev, symObjAddr: 0x1D28, symBinAddr: 0x100016D84, symSize: 0xB8 }
  - { offsetInCU: 0x6EE5, offset: 0x29BE4, size: 0x8, addend: 0x0, symName: __ZNSt3__116reverse_iteratorIPN5House4TileEEC1B8ue170006ES3_, symObjAddr: 0x1E58, symBinAddr: 0x100016EB4, symSize: 0x34 }
  - { offsetInCU: 0x6F1D, offset: 0x29C1C, size: 0x8, addend: 0x0, symName: __ZNKSt3__116reverse_iteratorIPN5House4TileEE4baseB8ue170006Ev, symObjAddr: 0x1E8C, symBinAddr: 0x100016EE8, symSize: 0x18 }
  - { offsetInCU: 0x6F43, offset: 0x29C42, size: 0x8, addend: 0x0, symName: __ZNKSt3__16vectorIN5House4TileENS_9allocatorIS2_EEE14__annotate_newB8ue170006Em, symObjAddr: 0x1EE0, symBinAddr: 0x100016F3C, symSize: 0xAC }
  - { offsetInCU: 0x6F78, offset: 0x29C77, size: 0x8, addend: 0x0, symName: __ZNKSt3__16vectorIN5House4TileENS_9allocatorIS2_EEE31__annotate_contiguous_containerB8ue170006EPKvS7_S7_S7_, symObjAddr: 0x1F8C, symBinAddr: 0x100016FE8, symSize: 0x20 }
  - { offsetInCU: 0x6FCE, offset: 0x29CCD, size: 0x8, addend: 0x0, symName: __ZNKSt3__16vectorIN5House4TileENS_9allocatorIS2_EEE4dataB8ue170006Ev, symObjAddr: 0x1FAC, symBinAddr: 0x100017008, symSize: 0x28 }
  - { offsetInCU: 0x701C, offset: 0x29D1B, size: 0x8, addend: 0x0, symName: __ZNKSt3__111__move_loopINS_17_ClassicAlgPolicyEEclB8ue170006INS_16reverse_iteratorIPN5House4TileEEES8_S8_EENS_4pairIT_T1_EESA_T0_SB_, symObjAddr: 0x228C, symBinAddr: 0x1000172E8, symSize: 0xA0 }
  - { offsetInCU: 0x7087, offset: 0x29D86, size: 0x8, addend: 0x0, symName: __ZNSt3__119__unwrap_range_implINS_16reverse_iteratorIPN5House4TileEEES5_E8__unwrapB8ue170006ES5_S5_, symObjAddr: 0x2478, symBinAddr: 0x1000174D4, symSize: 0x84 }
  - { offsetInCU: 0x70BE, offset: 0x29DBD, size: 0x8, addend: 0x0, symName: __ZNSt3__14pairINS_16reverse_iteratorIPN5House4TileEEES5_EC1B8ue170006IS5_S5_LPv0EEEOT_OT0_, symObjAddr: 0x24FC, symBinAddr: 0x100017558, symSize: 0x3C }
  - { offsetInCU: 0x711C, offset: 0x29E1B, size: 0x8, addend: 0x0, symName: __ZNSt3__14pairINS_16reverse_iteratorIPN5House4TileEEES5_EC2B8ue170006IS5_S5_LPv0EEEOT_OT0_, symObjAddr: 0x2538, symBinAddr: 0x100017594, symSize: 0x34 }
  - { offsetInCU: 0x7180, offset: 0x29E7F, size: 0x8, addend: 0x0, symName: __ZNSt3__18_IterOpsINS_17_ClassicAlgPolicyEE11__iter_moveB8ue170006IRNS_16reverse_iteratorIPN5House4TileEEEEENS_9enable_ifIXsr12is_referenceIDTdeclsr3stdE7declvalIRT_EEEEE5valueEDTclsr3stdE4movedeclsr3stdE7declvalISC_EEEEE4typeEOSB_, symObjAddr: 0x25B4, symBinAddr: 0x100017610, symSize: 0x28 }
  - { offsetInCU: 0x71AC, offset: 0x29EAB, size: 0x8, addend: 0x0, symName: __ZNKSt3__116reverse_iteratorIPN5House4TileEEdeB8ue170006Ev, symObjAddr: 0x25DC, symBinAddr: 0x100017638, symSize: 0x28 }
  - { offsetInCU: 0x71E1, offset: 0x29EE0, size: 0x8, addend: 0x0, symName: __ZNSt3__116reverse_iteratorIPN5House4TileEEppB8ue170006Ev, symObjAddr: 0x2604, symBinAddr: 0x100017660, symSize: 0x20 }
  - { offsetInCU: 0x7207, offset: 0x29F06, size: 0x8, addend: 0x0, symName: __ZNSt3__18_IterOpsINS_17_ClassicAlgPolicyEE25__validate_iter_referenceB8ue170006IRNS_16reverse_iteratorIPN5House4TileEEEEEvv, symObjAddr: 0x2624, symBinAddr: 0x100017680, symSize: 0x4 }
  - { offsetInCU: 0x7225, offset: 0x29F24, size: 0x8, addend: 0x0, symName: __ZNSt3__118__unwrap_iter_implINS_16reverse_iteratorIPN5House4TileEEELb0EE8__unwrapB8ue170006ES5_, symObjAddr: 0x2628, symBinAddr: 0x100017684, symSize: 0x24 }
  - { offsetInCU: 0x7248, offset: 0x29F47, size: 0x8, addend: 0x0, symName: __ZNSt3__119__unwrap_range_implINS_16reverse_iteratorIPN5House4TileEEES5_E8__rewrapB8ue170006ES5_S5_, symObjAddr: 0x264C, symBinAddr: 0x1000176A8, symSize: 0x5C }
  - { offsetInCU: 0x7279, offset: 0x29F78, size: 0x8, addend: 0x0, symName: __ZNSt3__118__unwrap_iter_implINS_16reverse_iteratorIPN5House4TileEEELb0EE8__rewrapB8ue170006ES5_S5_, symObjAddr: 0x26A8, symBinAddr: 0x100017704, symSize: 0x2C }
  - { offsetInCU: 0x72A7, offset: 0x29FA6, size: 0x8, addend: 0x0, symName: __ZNSt3__116reverse_iteratorIPN5House4TileEEC2B8ue170006ES3_, symObjAddr: 0x26D4, symBinAddr: 0x100017730, symSize: 0x28 }
  - { offsetInCU: 0x72DF, offset: 0x29FDE, size: 0x8, addend: 0x0, symName: __ZNSt3__114__split_bufferIN5House4TileERNS_9allocatorIS2_EEED2Ev, symObjAddr: 0x26FC, symBinAddr: 0x100017758, symSize: 0x8C }
  - { offsetInCU: 0x730B, offset: 0x2A00A, size: 0x8, addend: 0x0, symName: __ZNSt3__114__split_bufferIN5House4TileERNS_9allocatorIS2_EEE5clearB8ue170006Ev, symObjAddr: 0x2788, symBinAddr: 0x1000177E4, symSize: 0x28 }
  - { offsetInCU: 0x7331, offset: 0x2A030, size: 0x8, addend: 0x0, symName: __ZNSt3__116allocator_traitsINS_9allocatorIN5House4TileEEEE10deallocateB8ue170006ERS4_PS3_m, symObjAddr: 0x27B0, symBinAddr: 0x10001780C, symSize: 0x34 }
  - { offsetInCU: 0x7373, offset: 0x2A072, size: 0x8, addend: 0x0, symName: __ZNKSt3__114__split_bufferIN5House4TileERNS_9allocatorIS2_EEE8capacityB8ue170006Ev, symObjAddr: 0x27E4, symBinAddr: 0x100017840, symSize: 0x40 }
  - { offsetInCU: 0x7399, offset: 0x2A098, size: 0x8, addend: 0x0, symName: __ZNSt3__114__split_bufferIN5House4TileERNS_9allocatorIS2_EEE17__destruct_at_endB8ue170006EPS2_, symObjAddr: 0x2824, symBinAddr: 0x100017880, symSize: 0x2C }
  - { offsetInCU: 0x73CC, offset: 0x2A0CB, size: 0x8, addend: 0x0, symName: __ZNSt3__114__split_bufferIN5House4TileERNS_9allocatorIS2_EEE17__destruct_at_endB8ue170006EPS2_NS_17integral_constantIbLb0EEE, symObjAddr: 0x2850, symBinAddr: 0x1000178AC, symSize: 0x80 }
  - { offsetInCU: 0x740E, offset: 0x2A10D, size: 0x8, addend: 0x0, symName: __ZNSt3__116allocator_traitsINS_9allocatorIN5House4TileEEEE7destroyB8ue170006IS3_vvEEvRS4_PT_, symObjAddr: 0x28D0, symBinAddr: 0x10001792C, symSize: 0x28 }
  - { offsetInCU: 0x7449, offset: 0x2A148, size: 0x8, addend: 0x0, symName: __ZNSt3__19allocatorIN5House4TileEE10deallocateB8ue170006EPS2_m, symObjAddr: 0x292C, symBinAddr: 0x100017988, symSize: 0x40 }
  - { offsetInCU: 0x748B, offset: 0x2A18A, size: 0x8, addend: 0x0, symName: __ZNKSt3__114__split_bufferIN5House4TileERNS_9allocatorIS2_EEE9__end_capB8ue170006Ev, symObjAddr: 0x2A74, symBinAddr: 0x1000179C8, symSize: 0x28 }
  - { offsetInCU: 0x74B1, offset: 0x2A1B0, size: 0x8, addend: 0x0, symName: __ZNKSt3__117__compressed_pairIPN5House4TileERNS_9allocatorIS2_EEE5firstB8ue170006Ev, symObjAddr: 0x2A9C, symBinAddr: 0x1000179F0, symSize: 0x24 }
  - { offsetInCU: 0x74D7, offset: 0x2A1D6, size: 0x8, addend: 0x0, symName: __ZNSt3__16vectorIN5House4TileENS_9allocatorIS2_EEE22__base_destruct_at_endB8ue170006EPS2_, symObjAddr: 0x2AC0, symBinAddr: 0x100017A14, symSize: 0x8C }
  - { offsetInCU: 0x751B, offset: 0x2A21A, size: 0x8, addend: 0x0, symName: __ZNKSt3__16vectorIN5House4TileENS_9allocatorIS2_EEE17__annotate_shrinkB8ue170006Em, symObjAddr: 0x2B4C, symBinAddr: 0x100017AA0, symSize: 0xB4 }
  - { offsetInCU: 0x7550, offset: 0x2A24F, size: 0x8, addend: 0x0, symName: __ZNSt3__16vectorIN5House4TileENS_9allocatorIS2_EEED2B8ue170006Ev, symObjAddr: 0x2C00, symBinAddr: 0x100017B54, symSize: 0x44 }
  - { offsetInCU: 0x757A, offset: 0x2A279, size: 0x8, addend: 0x0, symName: __ZNSt3__16vectorIN5House4TileENS_9allocatorIS2_EEE16__destroy_vectorC1B8ue170006ERS5_, symObjAddr: 0x2C44, symBinAddr: 0x100017B98, symSize: 0x34 }
  - { offsetInCU: 0x75B3, offset: 0x2A2B2, size: 0x8, addend: 0x0, symName: __ZNSt3__16vectorIN5House4TileENS_9allocatorIS2_EEE16__destroy_vectorclB8ue170006Ev, symObjAddr: 0x2C78, symBinAddr: 0x100017BCC, symSize: 0x90 }
  - { offsetInCU: 0x75D9, offset: 0x2A2D8, size: 0x8, addend: 0x0, symName: __ZNSt3__16vectorIN5House4TileENS_9allocatorIS2_EEE16__destroy_vectorC2B8ue170006ERS5_, symObjAddr: 0x2D08, symBinAddr: 0x100017C5C, symSize: 0x20 }
  - { offsetInCU: 0x7612, offset: 0x2A311, size: 0x8, addend: 0x0, symName: __ZNSt3__16vectorIN5House4TileENS_9allocatorIS2_EEE7__clearB8ue170006Ev, symObjAddr: 0x2D28, symBinAddr: 0x100017C7C, symSize: 0x28 }
  - { offsetInCU: 0x7638, offset: 0x2A337, size: 0x8, addend: 0x0, symName: __ZN5House6MatrixC2ERKS0_, symObjAddr: 0x2D50, symBinAddr: 0x100017CA4, symSize: 0x40 }
  - { offsetInCU: 0x766D, offset: 0x2A36C, size: 0x8, addend: 0x0, symName: __ZNSt3__16vectorIN5House4TileENS_9allocatorIS2_EEEC1ERKS5_, symObjAddr: 0x2D90, symBinAddr: 0x100017CE4, symSize: 0x34 }
  - { offsetInCU: 0x76A8, offset: 0x2A3A7, size: 0x8, addend: 0x0, symName: __ZNSt3__16vectorIN5House4TileENS_9allocatorIS2_EEEC2ERKS5_, symObjAddr: 0x2DC4, symBinAddr: 0x100017D18, symSize: 0x94 }
  - { offsetInCU: 0x76E3, offset: 0x2A3E2, size: 0x8, addend: 0x0, symName: __ZNSt3__116allocator_traitsINS_9allocatorIN5House4TileEEEE37select_on_container_copy_constructionB8ue170006IS4_vvEES4_RKS4_, symObjAddr: 0x2E58, symBinAddr: 0x100017DAC, symSize: 0x10 }
  - { offsetInCU: 0x7718, offset: 0x2A417, size: 0x8, addend: 0x0, symName: __ZNSt3__117__compressed_pairIPN5House4TileENS_9allocatorIS2_EEEC1B8ue170006IDnS5_EEOT_OT0_, symObjAddr: 0x2E68, symBinAddr: 0x100017DBC, symSize: 0x3C }
  - { offsetInCU: 0x7770, offset: 0x2A46F, size: 0x8, addend: 0x0, symName: __ZNSt3__16vectorIN5House4TileENS_9allocatorIS2_EEE16__init_with_sizeB8ue170006IPS2_S7_EEvT_T0_m, symObjAddr: 0x2EA4, symBinAddr: 0x100017DF8, symSize: 0xB8 }
  - { offsetInCU: 0x77E4, offset: 0x2A4E3, size: 0x8, addend: 0x0, symName: __ZNSt3__117__compressed_pairIPN5House4TileENS_9allocatorIS2_EEEC2B8ue170006IDnS5_EEOT_OT0_, symObjAddr: 0x2F5C, symBinAddr: 0x100017EB0, symSize: 0x44 }
  - { offsetInCU: 0x783C, offset: 0x2A53B, size: 0x8, addend: 0x0, symName: __ZNSt3__122__compressed_pair_elemINS_9allocatorIN5House4TileEEELi1ELb1EEC2B8ue170006IS4_vEEOT_, symObjAddr: 0x2FA0, symBinAddr: 0x100017EF4, symSize: 0x18 }
  - { offsetInCU: 0x787E, offset: 0x2A57D, size: 0x8, addend: 0x0, symName: __ZNSt3__16vectorIN5House4TileENS_9allocatorIS2_EEE11__vallocateB8ue170006Em, symObjAddr: 0x2FF8, symBinAddr: 0x100017F4C, symSize: 0xAC }
  - { offsetInCU: 0x78C1, offset: 0x2A5C0, size: 0x8, addend: 0x0, symName: __ZNSt3__16vectorIN5House4TileENS_9allocatorIS2_EEE18__construct_at_endIPS2_S7_EEvT_T0_m, symObjAddr: 0x30A4, symBinAddr: 0x100017FF8, symSize: 0x8C }
  - { offsetInCU: 0x7938, offset: 0x2A637, size: 0x8, addend: 0x0, symName: __ZNSt3__128__exception_guard_exceptionsINS_6vectorIN5House4TileENS_9allocatorIS3_EEE16__destroy_vectorEE10__completeB8ue170006Ev, symObjAddr: 0x3130, symBinAddr: 0x100018084, symSize: 0x1C }
  - { offsetInCU: 0x795E, offset: 0x2A65D, size: 0x8, addend: 0x0, symName: __ZNSt3__128__exception_guard_exceptionsINS_6vectorIN5House4TileENS_9allocatorIS3_EEE16__destroy_vectorEED1B8ue170006Ev, symObjAddr: 0x314C, symBinAddr: 0x1000180A0, symSize: 0x2C }
  - { offsetInCU: 0x7988, offset: 0x2A687, size: 0x8, addend: 0x0, symName: __ZNSt3__128__exception_guard_exceptionsINS_6vectorIN5House4TileENS_9allocatorIS3_EEE16__destroy_vectorEEC1B8ue170006ES7_, symObjAddr: 0x3178, symBinAddr: 0x1000180CC, symSize: 0x34 }
  - { offsetInCU: 0x79C0, offset: 0x2A6BF, size: 0x8, addend: 0x0, symName: __ZNSt3__128__exception_guard_exceptionsINS_6vectorIN5House4TileENS_9allocatorIS3_EEE16__destroy_vectorEEC2B8ue170006ES7_, symObjAddr: 0x31AC, symBinAddr: 0x100018100, symSize: 0x24 }
  - { offsetInCU: 0x7A15, offset: 0x2A714, size: 0x8, addend: 0x0, symName: __ZNSt3__119__unwrap_range_implIPN5House4TileES3_E8__unwrapB8ue170006ES3_S3_, symObjAddr: 0x3324, symBinAddr: 0x100018278, symSize: 0x58 }
  - { offsetInCU: 0x7A4C, offset: 0x2A74B, size: 0x8, addend: 0x0, symName: __ZNSt3__14pairIPN5House4TileES3_EC1B8ue170006IS3_S3_LPv0EEEOT_OT0_, symObjAddr: 0x337C, symBinAddr: 0x1000182D0, symSize: 0x3C }
  - { offsetInCU: 0x7AAA, offset: 0x2A7A9, size: 0x8, addend: 0x0, symName: __ZNSt3__14pairIPN5House4TileES3_EC2B8ue170006IS3_S3_LPv0EEEOT_OT0_, symObjAddr: 0x33B8, symBinAddr: 0x10001830C, symSize: 0x34 }
  - { offsetInCU: 0x7B13, offset: 0x2A812, size: 0x8, addend: 0x0, symName: __ZNKSt3__114__copy_trivialclB8ue170006IN5House4TileES3_Li0EEENS_4pairIPT_PT0_EES6_S6_S8_, symObjAddr: 0x3568, symBinAddr: 0x1000184BC, symSize: 0x48 }
  - { offsetInCU: 0x7B7B, offset: 0x2A87A, size: 0x8, addend: 0x0, symName: __ZNSt3__14pairIPN5House4TileES3_EC1B8ue170006IRS3_S3_LPv0EEEOT_OT0_, symObjAddr: 0x3730, symBinAddr: 0x100018684, symSize: 0x3C }
  - { offsetInCU: 0x7BD9, offset: 0x2A8D8, size: 0x8, addend: 0x0, symName: __ZNSt3__14pairIPN5House4TileES3_EC2B8ue170006IRS3_S3_LPv0EEEOT_OT0_, symObjAddr: 0x376C, symBinAddr: 0x1000186C0, symSize: 0x34 }
  - { offsetInCU: 0x7C37, offset: 0x2A936, size: 0x8, addend: 0x0, symName: __ZNSt3__119__unwrap_range_implIPN5House4TileES3_E8__rewrapB8ue170006ES3_S3_, symObjAddr: 0x37A0, symBinAddr: 0x1000186F4, symSize: 0x2C }
  - { offsetInCU: 0x7C68, offset: 0x2A967, size: 0x8, addend: 0x0, symName: __ZNSt3__118__unwrap_iter_implIPN5House4TileELb1EE8__unwrapB8ue170006ES3_, symObjAddr: 0x37CC, symBinAddr: 0x100018720, symSize: 0x24 }
  - { offsetInCU: 0x7C8B, offset: 0x2A98A, size: 0x8, addend: 0x0, symName: __ZNSt3__118__unwrap_iter_implIPN5House4TileELb1EE8__rewrapB8ue170006ES3_S3_, symObjAddr: 0x37F0, symBinAddr: 0x100018744, symSize: 0x50 }
  - { offsetInCU: 0x7CBC, offset: 0x2A9BB, size: 0x8, addend: 0x0, symName: __ZNSt3__128__exception_guard_exceptionsINS_6vectorIN5House4TileENS_9allocatorIS3_EEE16__destroy_vectorEED2B8ue170006Ev, symObjAddr: 0x3840, symBinAddr: 0x100018794, symSize: 0x48 }
  - { offsetInCU: 0x7CE5, offset: 0x2A9E4, size: 0x8, addend: 0x0, symName: __ZNSt3__16vectorIN5House4TileENS_9allocatorIS2_EEEaSB8ue170006EOS5_, symObjAddr: 0x3888, symBinAddr: 0x1000187DC, symSize: 0x34 }
  - { offsetInCU: 0x7D1C, offset: 0x2AA1B, size: 0x8, addend: 0x0, symName: __ZNSt3__16vectorIN5House4TileENS_9allocatorIS2_EEE13__move_assignERS5_NS_17integral_constantIbLb1EEE, symObjAddr: 0x38BC, symBinAddr: 0x100018810, symSize: 0x94 }
  - { offsetInCU: 0x7D5F, offset: 0x2AA5E, size: 0x8, addend: 0x0, symName: __ZNSt3__16vectorIN5House4TileENS_9allocatorIS2_EEE13__vdeallocateEv, symObjAddr: 0x3950, symBinAddr: 0x1000188A4, symSize: 0x94 }
  - { offsetInCU: 0x7D88, offset: 0x2AA87, size: 0x8, addend: 0x0, symName: __ZNSt3__16vectorIN5House4TileENS_9allocatorIS2_EEE19__move_assign_allocB8ue170006ERS5_, symObjAddr: 0x39E4, symBinAddr: 0x100018938, symSize: 0x2C }
  - { offsetInCU: 0x7DBD, offset: 0x2AABC, size: 0x8, addend: 0x0, symName: __ZNSt3__16vectorIN5House4TileENS_9allocatorIS2_EEE5clearB8ue170006Ev, symObjAddr: 0x3A10, symBinAddr: 0x100018964, symSize: 0x44 }
  - { offsetInCU: 0x7DF2, offset: 0x2AAF1, size: 0x8, addend: 0x0, symName: __ZNSt3__16vectorIN5House4TileENS_9allocatorIS2_EEE19__move_assign_allocB8ue170006ERS5_NS_17integral_constantIbLb1EEE, symObjAddr: 0x3A54, symBinAddr: 0x1000189A8, symSize: 0x38 }
  - { offsetInCU: 0xCB01, offset: 0x376D9, size: 0x8, addend: 0x0, symName: __ZNSt3__115regex_constants13__get_grammarB8ue170006ENS0_18syntax_option_typeE, symObjAddr: 0x9B8C, symBinAddr: 0x10001EDF0, symSize: 0x18 }
  - { offsetInCU: 0xCB2F, offset: 0x37707, size: 0x8, addend: 0x0, symName: __ZNSt3__115regex_constantsoRB8ue170006ERNS0_18syntax_option_typeES1_, symObjAddr: 0x9BA4, symBinAddr: 0x10001EE08, symSize: 0x3C }
  - { offsetInCU: 0xCB6C, offset: 0x37744, size: 0x8, addend: 0x0, symName: __ZNSt3__115regex_constantsorB8ue170006ENS0_18syntax_option_typeES1_, symObjAddr: 0x9E5C, symBinAddr: 0x10001F0C0, symSize: 0x20 }
  - { offsetInCU: 0xCBA9, offset: 0x37781, size: 0x8, addend: 0x0, symName: __ZNSt3__115regex_constantsanB8ue170006ENS0_18syntax_option_typeES1_, symObjAddr: 0xD0A0, symBinAddr: 0x100022304, symSize: 0x20 }
  - { offsetInCU: 0xCBE6, offset: 0x377BE, size: 0x8, addend: 0x0, symName: __ZNSt3__115regex_constantsanB8ue170006ENS0_15match_flag_typeES1_, symObjAddr: 0xD2C0, symBinAddr: 0x100022524, symSize: 0x20 }
  - { offsetInCU: 0xCC23, offset: 0x377FB, size: 0x8, addend: 0x0, symName: __ZNSt3__115regex_constantsorB8ue170006ENS0_15match_flag_typeES1_, symObjAddr: 0xE674, symBinAddr: 0x1000238D8, symSize: 0x20 }
  - { offsetInCU: 0xCC60, offset: 0x37838, size: 0x8, addend: 0x0, symName: __ZNSt3__115regex_constantscoB8ue170006ENS0_15match_flag_typeE, symObjAddr: 0xE694, symBinAddr: 0x1000238F8, symSize: 0x1C }
  - { offsetInCU: 0xCC8E, offset: 0x37866, size: 0x8, addend: 0x0, symName: __ZNSt3__115regex_constantsaNB8ue170006ERNS0_15match_flag_typeES1_, symObjAddr: 0x28500, symBinAddr: 0x10003D764, symSize: 0x3C }
  - { offsetInCU: 0xCCCB, offset: 0x378A3, size: 0x8, addend: 0x0, symName: __ZNSt3__115regex_constantsoRB8ue170006ERNS0_15match_flag_typeES1_, symObjAddr: 0x286B4, symBinAddr: 0x10003D918, symSize: 0x3C }
  - { offsetInCU: 0x15CBD, offset: 0x40895, size: 0x8, addend: 0x0, symName: __ZNSt3__17advanceB8ue170006IP6CoordsllvEEvRT_T0_, symObjAddr: 0x58BC, symBinAddr: 0x10001D1D0, symSize: 0x38 }
  - { offsetInCU: 0x17C65, offset: 0x4283D, size: 0x8, addend: 0x0, symName: __ZNSt3__17advanceB8ue170006IPKcllvEEvRT_T0_, symObjAddr: 0xD364, symBinAddr: 0x1000225C8, symSize: 0x38 }
  - { offsetInCU: 0x1933E, offset: 0x43F16, size: 0x8, addend: 0x0, symName: __ZNSt3__17advanceB8ue170006IPNS_7__stateIcEEllvEEvRT_T0_, symObjAddr: 0x113FC, symBinAddr: 0x100026660, symSize: 0x38 }
  - { offsetInCU: 0x195BF, offset: 0x44197, size: 0x8, addend: 0x0, symName: __ZNSt3__17advanceB8ue170006INS_16reverse_iteratorIPNS_7__stateIcEEEEllvEEvRT_T0_, symObjAddr: 0x1182C, symBinAddr: 0x100026A90, symSize: 0x38 }
  - { offsetInCU: 0x19989, offset: 0x44561, size: 0x8, addend: 0x0, symName: __ZNSt3__17advanceB8ue170006IPNS_9sub_matchIPKcEEllvEEvRT_T0_, symObjAddr: 0x12E98, symBinAddr: 0x1000280FC, symSize: 0x38 }
  - { offsetInCU: 0x19C0A, offset: 0x447E2, size: 0x8, addend: 0x0, symName: __ZNSt3__17advanceB8ue170006INS_16reverse_iteratorIPNS_9sub_matchIPKcEEEEllvEEvRT_T0_, symObjAddr: 0x13258, symBinAddr: 0x1000284BC, symSize: 0x38 }
  - { offsetInCU: 0x19FD4, offset: 0x44BAC, size: 0x8, addend: 0x0, symName: __ZNSt3__17advanceB8ue170006IPNS_4pairImPKcEEllvEEvRT_T0_, symObjAddr: 0x145D8, symBinAddr: 0x10002983C, symSize: 0x38 }
  - { offsetInCU: 0x1A255, offset: 0x44E2D, size: 0x8, addend: 0x0, symName: __ZNSt3__17advanceB8ue170006INS_16reverse_iteratorIPNS_4pairImPKcEEEEllvEEvRT_T0_, symObjAddr: 0x14990, symBinAddr: 0x100029BF4, symSize: 0x38 }
  - { offsetInCU: 0x1EE47, offset: 0x49A1F, size: 0x8, addend: 0x0, symName: __ZNSt3__17advanceB8ue170006IPNS_12basic_stringIcNS_11char_traitsIcEENS_9allocatorIcEEEEllvEEvRT_T0_, symObjAddr: 0x20BC0, symBinAddr: 0x100035E24, symSize: 0x38 }
  - { offsetInCU: 0x1F0C8, offset: 0x49CA0, size: 0x8, addend: 0x0, symName: __ZNSt3__17advanceB8ue170006INS_16reverse_iteratorIPNS_12basic_stringIcNS_11char_traitsIcEENS_9allocatorIcEEEEEEllvEEvRT_T0_, symObjAddr: 0x20F80, symBinAddr: 0x1000361E4, symSize: 0x38 }
  - { offsetInCU: 0x1F492, offset: 0x4A06A, size: 0x8, addend: 0x0, symName: __ZNSt3__17advanceB8ue170006IPNS_4pairINS_12basic_stringIcNS_11char_traitsIcEENS_9allocatorIcEEEES7_EEllvEEvRT_T0_, symObjAddr: 0x22610, symBinAddr: 0x100037874, symSize: 0x38 }
  - { offsetInCU: 0x1F713, offset: 0x4A2EB, size: 0x8, addend: 0x0, symName: __ZNSt3__17advanceB8ue170006INS_16reverse_iteratorIPNS_4pairINS_12basic_stringIcNS_11char_traitsIcEENS_9allocatorIcEEEES8_EEEEllvEEvRT_T0_, symObjAddr: 0x229D0, symBinAddr: 0x100037C34, symSize: 0x38 }
  - { offsetInCU: 0x1FADD, offset: 0x4A6B5, size: 0x8, addend: 0x0, symName: __ZNSt3__17advanceB8ue170006IPNS_4pairIccEEllvEEvRT_T0_, symObjAddr: 0x23C78, symBinAddr: 0x100038EDC, symSize: 0x38 }
  - { offsetInCU: 0x1FD5E, offset: 0x4A936, size: 0x8, addend: 0x0, symName: __ZNSt3__17advanceB8ue170006INS_16reverse_iteratorIPNS_4pairIccEEEEllvEEvRT_T0_, symObjAddr: 0x24030, symBinAddr: 0x100039294, symSize: 0x38 }
  - { offsetInCU: 0x20A2C, offset: 0x4B604, size: 0x8, addend: 0x0, symName: __ZNSt3__17advanceB8ue170006IPNS_9sub_matchINS_11__wrap_iterIPKcEEEEllvEEvRT_T0_, symObjAddr: 0x2FDD4, symBinAddr: 0x100045014, symSize: 0x38 }
  - { offsetInCU: 0x20CAD, offset: 0x4B885, size: 0x8, addend: 0x0, symName: __ZNSt3__17advanceB8ue170006INS_16reverse_iteratorIPNS_9sub_matchINS_11__wrap_iterIPKcEEEEEEllvEEvRT_T0_, symObjAddr: 0x30194, symBinAddr: 0x1000453D4, symSize: 0x38 }
  - { offsetInCU: 0x20D19, offset: 0x4B8F1, size: 0x8, addend: 0x0, symName: __ZNSt3__17advanceB8ue170006INS_11__wrap_iterIPKcEEllvEEvRT_T0_, symObjAddr: 0x30558, symBinAddr: 0x100045798, symSize: 0x38 }
  - { offsetInCU: 0x24248, offset: 0x4EE20, size: 0x8, addend: 0x0, symName: __ZNSt3__1lsB8ue170006INS_11char_traitsIcEEEERNS_13basic_ostreamIcT_EES6_c, symObjAddr: 0xBB4, symBinAddr: 0x1000194C8, symSize: 0x34 }
  - { offsetInCU: 0x249C7, offset: 0x4F59F, size: 0x8, addend: 0x0, symName: __ZNSt3__1lsB8ue170006IcNS_11char_traitsIcEENS_9allocatorIcEEEERNS_13basic_ostreamIT_T0_EES9_RKNS_12basic_stringIS6_S7_T1_EE, symObjAddr: 0x1960, symBinAddr: 0x10001A274, symSize: 0x4C }
  - { offsetInCU: 0x24A1F, offset: 0x4F5F7, size: 0x8, addend: 0x0, symName: __ZNSt3__17getlineB8ue170006IcNS_11char_traitsIcEENS_9allocatorIcEEEERNS_13basic_istreamIT_T0_EES9_RNS_12basic_stringIS6_S7_T1_EE, symObjAddr: 0x1AA0, symBinAddr: 0x10001A3B4, symSize: 0x5C }
  - { offsetInCU: 0x24D8C, offset: 0x4F964, size: 0x8, addend: 0x0, symName: __ZNSt3__111regex_matchB8ue170006INS_11char_traitsIcEENS_9allocatorIcEENS3_INS_9sub_matchINS_11__wrap_iterIPKcEEEEEEcNS_12regex_traitsIcEEEEbRKNS_12basic_stringIT2_T_T0_EERNS_13match_resultsINSI_14const_iteratorET1_EERKNS_11basic_regexISF_T3_EENS_15regex_constants15match_flag_typeE, symObjAddr: 0x1B3C, symBinAddr: 0x10001A450, symSize: 0x5C }
  - { offsetInCU: 0x24E2B, offset: 0x4FA03, size: 0x8, addend: 0x0, symName: __ZNSt3__13minB8ue170006IfEERKT_S3_S3_, symObjAddr: 0x1F80, symBinAddr: 0x10001A888, symSize: 0x2C }
  - { offsetInCU: 0x24EE4, offset: 0x4FABC, size: 0x8, addend: 0x0, symName: __ZNSt3__119__allocate_at_leastB8ue170006INS_9allocatorIcEEEENS_19__allocation_resultINS_16allocator_traitsIT_E7pointerEEERS5_m, symObjAddr: 0x286C, symBinAddr: 0x10001AF38, symSize: 0x40 }
  - { offsetInCU: 0x24F27, offset: 0x4FAFF, size: 0x8, addend: 0x0, symName: __ZNSt3__142__uninitialized_allocator_move_if_noexceptB8ue170006INS_9allocatorIcEENS_16reverse_iteratorIPcEES5_cvEET1_RT_T0_S9_S6_, symObjAddr: 0x2BF0, symBinAddr: 0x10001B1B8, symSize: 0x78 }
  - { offsetInCU: 0x24FA6, offset: 0x4FB7E, size: 0x8, addend: 0x0, symName: __ZNSt3__14swapB8ue170006IPcEENS_9enable_ifIXaasr21is_move_constructibleIT_EE5valuesr18is_move_assignableIS3_EE5valueEvE4typeERS3_S6_, symObjAddr: 0x2CB4, symBinAddr: 0x10001B27C, symSize: 0x3C }
  - { offsetInCU: 0x24FF7, offset: 0x4FBCF, size: 0x8, addend: 0x0, symName: __ZNSt3__14moveB8ue170006INS_16reverse_iteratorIPcEES3_EET0_T_S5_S4_, symObjAddr: 0x2E20, symBinAddr: 0x10001B3D4, symSize: 0x78 }
  - { offsetInCU: 0x25051, offset: 0x4FC29, size: 0x8, addend: 0x0, symName: __ZNSt3__16__moveB8ue170006INS_17_ClassicAlgPolicyENS_16reverse_iteratorIPcEES4_S4_EENS_4pairIT0_T2_EES6_T1_S7_, symObjAddr: 0x2E98, symBinAddr: 0x10001B44C, symSize: 0x64 }
  - { offsetInCU: 0x250BD, offset: 0x4FC95, size: 0x8, addend: 0x0, symName: __ZNSt3__123__dispatch_copy_or_moveB8ue170006INS_17_ClassicAlgPolicyENS_11__move_loopIS1_EENS_14__move_trivialENS_16reverse_iteratorIPcEES7_S7_EENS_4pairIT2_T4_EES9_T3_SA_, symObjAddr: 0x2EFC, symBinAddr: 0x10001B4B0, symSize: 0x64 }
  - { offsetInCU: 0x2513B, offset: 0x4FD13, size: 0x8, addend: 0x0, symName: __ZNSt3__121__unwrap_and_dispatchB8ue170006INS_10__overloadINS_11__move_loopINS_17_ClassicAlgPolicyEEENS_14__move_trivialEEENS_16reverse_iteratorIPcEES9_S9_Li0EEENS_4pairIT0_T2_EESB_T1_SC_, symObjAddr: 0x2F60, symBinAddr: 0x10001B514, symSize: 0x12C }
  - { offsetInCU: 0x251CD, offset: 0x4FDA5, size: 0x8, addend: 0x0, symName: __ZNSt3__114__unwrap_rangeB8ue170006INS_16reverse_iteratorIPcEES3_EEDaT_T0_, symObjAddr: 0x308C, symBinAddr: 0x10001B640, symSize: 0x4C }
  - { offsetInCU: 0x2533F, offset: 0x4FF17, size: 0x8, addend: 0x0, symName: __ZNSt3__113__unwrap_iterB8ue170006INS_16reverse_iteratorIPcEENS_18__unwrap_iter_implIS3_Lb0EEELi0EEEDTclsrT0_8__unwrapclsr3stdE7declvalIT_EEEES7_, symObjAddr: 0x3178, symBinAddr: 0x10001B72C, symSize: 0x44 }
  - { offsetInCU: 0x25383, offset: 0x4FF5B, size: 0x8, addend: 0x0, symName: __ZNSt3__19make_pairB8ue170006INS_16reverse_iteratorIPcEES3_EENS_4pairINS_18__unwrap_ref_decayIT_E4typeENS5_IT0_E4typeEEEOS6_OS9_, symObjAddr: 0x31BC, symBinAddr: 0x10001B770, symSize: 0x38 }
  - { offsetInCU: 0x253D2, offset: 0x4FFAA, size: 0x8, addend: 0x0, symName: __ZNSt3__114__rewrap_rangeB8ue170006INS_16reverse_iteratorIPcEES3_S3_EET0_S4_T1_, symObjAddr: 0x31F4, symBinAddr: 0x10001B7A8, symSize: 0x5C }
  - { offsetInCU: 0x25427, offset: 0x4FFFF, size: 0x8, addend: 0x0, symName: __ZNSt3__113__rewrap_iterB8ue170006INS_16reverse_iteratorIPcEES3_NS_18__unwrap_iter_implIS3_Lb0EEEEET_S6_T0_, symObjAddr: 0x3250, symBinAddr: 0x10001B804, symSize: 0x74 }
  - { offsetInCU: 0x254CC, offset: 0x500A4, size: 0x8, addend: 0x0, symName: __ZNSt3__1neB8ue170006IPcS1_EEbRKNS_16reverse_iteratorIT_EERKNS2_IT0_EE, symObjAddr: 0x33B8, symBinAddr: 0x10001B96C, symSize: 0x48 }
  - { offsetInCU: 0x255E9, offset: 0x501C1, size: 0x8, addend: 0x0, symName: __ZNSt3__110destroy_atB8ue170006IcLi0EEEvPT_, symObjAddr: 0x3760, symBinAddr: 0x10001BD14, symSize: 0x24 }
  - { offsetInCU: 0x25621, offset: 0x501F9, size: 0x8, addend: 0x0, symName: __ZNSt3__112__destroy_atB8ue170006IcLi0EEEvPT_, symObjAddr: 0x3784, symBinAddr: 0x10001BD38, symSize: 0x10 }
  - { offsetInCU: 0x2567D, offset: 0x50255, size: 0x8, addend: 0x0, symName: __ZNSt3__112construct_atB8ue170006IcJcEPcEEPT_S3_DpOT0_, symObjAddr: 0x3B6C, symBinAddr: 0x10001C018, symSize: 0x2C }
  - { offsetInCU: 0x256ED, offset: 0x502C5, size: 0x8, addend: 0x0, symName: __ZNSt3__134__libcpp_atomic_refcount_incrementB8ue170006IlEET_RS1_, symObjAddr: 0x4264, symBinAddr: 0x10001C5CC, symSize: 0x30 }
  - { offsetInCU: 0x25722, offset: 0x502FA, size: 0x8, addend: 0x0, symName: __ZNSt3__112__to_addressB8ue170006INS_9sub_matchINS_11__wrap_iterIPKcEEEEEEPT_S8_, symObjAddr: 0x4660, symBinAddr: 0x10001C9C8, symSize: 0x14 }
  - { offsetInCU: 0x25756, offset: 0x5032E, size: 0x8, addend: 0x0, symName: __ZNSt3__110destroy_atB8ue170006INS_9sub_matchINS_11__wrap_iterIPKcEEEELi0EEEvPT_, symObjAddr: 0x4674, symBinAddr: 0x10001C9DC, symSize: 0x24 }
  - { offsetInCU: 0x2578E, offset: 0x50366, size: 0x8, addend: 0x0, symName: __ZNSt3__112__destroy_atB8ue170006INS_9sub_matchINS_11__wrap_iterIPKcEEEELi0EEEvPT_, symObjAddr: 0x4698, symBinAddr: 0x10001CA00, symSize: 0x10 }
  - { offsetInCU: 0x257C5, offset: 0x5039D, size: 0x8, addend: 0x0, symName: __ZNSt3__134__libcpp_atomic_refcount_decrementB8ue170006IlEET_RS1_, symObjAddr: 0x50A8, symBinAddr: 0x10001CDD4, symSize: 0x30 }
  - { offsetInCU: 0x257F9, offset: 0x503D1, size: 0x8, addend: 0x0, symName: __ZNSt3__18distanceB8ue170006IP6CoordsEENS_15iterator_traitsIT_E15difference_typeES4_S4_, symObjAddr: 0x5444, symBinAddr: 0x10001D170, symSize: 0x2C }
  - { offsetInCU: 0x2583C, offset: 0x50414, size: 0x8, addend: 0x0, symName: __ZNSt3__14nextB8ue170006IP6CoordsEENS_9enable_ifIXsr29__has_input_iterator_categoryIT_EE5valueES4_E4typeES4_NS_15iterator_traitsIS4_E15difference_typeE, symObjAddr: 0x54D8, symBinAddr: 0x10001D19C, symSize: 0x34 }
  - { offsetInCU: 0x25880, offset: 0x50458, size: 0x8, addend: 0x0, symName: __ZNSt3__121__convert_to_integralB8ue170006El, symObjAddr: 0x58F4, symBinAddr: 0x10001D208, symSize: 0x14 }
  - { offsetInCU: 0x258AC, offset: 0x50484, size: 0x8, addend: 0x0, symName: __ZNSt3__19__advanceB8ue170006IP6CoordsEEvRT_NS_15iterator_traitsIS3_E15difference_typeENS_26random_access_iterator_tagE, symObjAddr: 0x5908, symBinAddr: 0x10001D21C, symSize: 0x28 }
  - { offsetInCU: 0x258F6, offset: 0x504CE, size: 0x8, addend: 0x0, symName: __ZNSt3__110__distanceB8ue170006IP6CoordsEENS_15iterator_traitsIT_E15difference_typeES4_S4_NS_26random_access_iterator_tagE, symObjAddr: 0x6680, symBinAddr: 0x10001D244, symSize: 0x28 }
  - { offsetInCU: 0x25943, offset: 0x5051B, size: 0x8, addend: 0x0, symName: __ZNSt3__1neB8ue170006ERKNS_21__hash_const_iteratorIPNS_11__hash_nodeINS_17__hash_value_typeI6CoordsfEEPvEEEESA_, symObjAddr: 0x6CDC, symBinAddr: 0x10001D758, symSize: 0x34 }
  - { offsetInCU: 0x259A4, offset: 0x5057C, size: 0x8, addend: 0x0, symName: __ZNSt3__1eqB8ue170006ERKNS_21__hash_const_iteratorIPNS_11__hash_nodeINS_17__hash_value_typeI6CoordsfEEPvEEEESA_, symObjAddr: 0x7130, symBinAddr: 0x10001D91C, symSize: 0x30 }
  - { offsetInCU: 0x25A07, offset: 0x505DF, size: 0x8, addend: 0x0, symName: __ZNSt3__112construct_atB8ue170006INS_4pairIK6CoordsfEEJRKS4_EPS4_EEPT_S9_DpOT0_, symObjAddr: 0x8928, symBinAddr: 0x10001E61C, symSize: 0x34 }
  - { offsetInCU: 0x25A76, offset: 0x5064E, size: 0x8, addend: 0x0, symName: __ZNSt3__13minB8ue170006IfNS_6__lessIvvEEEERKT_S5_S5_T0_, symObjAddr: 0x8BCC, symBinAddr: 0x10001E6DC, symSize: 0x54 }
  - { offsetInCU: 0x25AD1, offset: 0x506A9, size: 0x8, addend: 0x0, symName: __ZNSt3__112__to_addressB8ue170006IKcEEPT_S3_, symObjAddr: 0x8EE4, symBinAddr: 0x10001E9C0, symSize: 0x14 }
  - { offsetInCU: 0x25B43, offset: 0x5071B, size: 0x8, addend: 0x0, symName: __ZNSt3__19use_facetB8ue170006INS_7collateIcEEEERKT_RKNS_6localeE, symObjAddr: 0x9B44, symBinAddr: 0x10001EDA8, symSize: 0x2C }
  - { offsetInCU: 0x25B78, offset: 0x50750, size: 0x8, addend: 0x0, symName: __ZNSt3__119__throw_regex_errorB8ue170006ILNS_15regex_constants10error_typeE17EEEvv, symObjAddr: 0x9DFC, symBinAddr: 0x10001F060, symSize: 0x60 }
  - { offsetInCU: 0x2600A, offset: 0x50BE2, size: 0x8, addend: 0x0, symName: __ZNSt3__119__throw_regex_errorB8ue170006ILNS_15regex_constants10error_typeE14EEEvv, symObjAddr: 0xA678, symBinAddr: 0x10001F8DC, symSize: 0x60 }
  - { offsetInCU: 0x26A54, offset: 0x5162C, size: 0x8, addend: 0x0, symName: __ZNSt3__14swapB8ue170006IPNS_13__empty_stateIcEEEENS_9enable_ifIXaasr21is_move_constructibleIT_EE5valuesr18is_move_assignableIS5_EE5valueEvE4typeERS5_S8_, symObjAddr: 0xB5CC, symBinAddr: 0x100020830, symSize: 0x3C }
  - { offsetInCU: 0x26AA6, offset: 0x5167E, size: 0x8, addend: 0x0, symName: __ZNSt3__14swapB8ue170006IPNS_19__shared_weak_countEEENS_9enable_ifIXaasr21is_move_constructibleIT_EE5valuesr18is_move_assignableIS4_EE5valueEvE4typeERS4_S7_, symObjAddr: 0xB608, symBinAddr: 0x10002086C, symSize: 0x3C }
  - { offsetInCU: 0x26AF7, offset: 0x516CF, size: 0x8, addend: 0x0, symName: __ZNSt3__14nextB8ue170006IPKcEENS_9enable_ifIXsr29__has_input_iterator_categoryIT_EE5valueES4_E4typeES4_NS_15iterator_traitsIS4_E15difference_typeE, symObjAddr: 0xCD98, symBinAddr: 0x100021FFC, symSize: 0x34 }
  - { offsetInCU: 0x26B3A, offset: 0x51712, size: 0x8, addend: 0x0, symName: __ZNSt3__119__throw_regex_errorB8ue170006ILNS_15regex_constants10error_typeE6EEEvv, symObjAddr: 0xCF8C, symBinAddr: 0x1000221F0, symSize: 0x60 }
  - { offsetInCU: 0x26BE6, offset: 0x517BE, size: 0x8, addend: 0x0, symName: __ZNSt3__18__is_eolB8ue170006IcEEbT_, symObjAddr: 0xD2E0, symBinAddr: 0x100022544, symSize: 0x48 }
  - { offsetInCU: 0x26C1D, offset: 0x517F5, size: 0x8, addend: 0x0, symName: __ZNSt3__14prevB8ue170006IPKcEENS_9enable_ifIXsr29__has_input_iterator_categoryIT_EE5valueES4_E4typeES4_NS_15iterator_traitsIS4_E15difference_typeE, symObjAddr: 0xD328, symBinAddr: 0x10002258C, symSize: 0x3C }
  - { offsetInCU: 0x26C61, offset: 0x51839, size: 0x8, addend: 0x0, symName: __ZNSt3__19__advanceB8ue170006IPKcEEvRT_NS_15iterator_traitsIS3_E15difference_typeENS_26random_access_iterator_tagE, symObjAddr: 0xD39C, symBinAddr: 0x100022600, symSize: 0x28 }
  - { offsetInCU: 0x2719E, offset: 0x51D76, size: 0x8, addend: 0x0, symName: __ZNSt3__112__to_addressB8ue170006INS_9sub_matchIPKcEEEEPT_S6_, symObjAddr: 0xEDF0, symBinAddr: 0x100024054, symSize: 0x14 }
  - { offsetInCU: 0x271D2, offset: 0x51DAA, size: 0x8, addend: 0x0, symName: __ZNSt3__110destroy_atB8ue170006INS_9sub_matchIPKcEELi0EEEvPT_, symObjAddr: 0xEE04, symBinAddr: 0x100024068, symSize: 0x24 }
  - { offsetInCU: 0x2720A, offset: 0x51DE2, size: 0x8, addend: 0x0, symName: __ZNSt3__112__destroy_atB8ue170006INS_9sub_matchIPKcEELi0EEEvPT_, symObjAddr: 0xEE28, symBinAddr: 0x10002408C, symSize: 0x10 }
  - { offsetInCU: 0x27240, offset: 0x51E18, size: 0x8, addend: 0x0, symName: __ZNSt3__16fill_nB8ue170006IPNS_9sub_matchIPKcEEmS4_EET_S6_T0_RKT1_, symObjAddr: 0xF094, symBinAddr: 0x1000242F8, symSize: 0x44 }
  - { offsetInCU: 0x272A3, offset: 0x51E7B, size: 0x8, addend: 0x0, symName: __ZNSt3__18__fill_nB8ue170006IPNS_9sub_matchIPKcEEmS4_EET_S6_T0_RKT1_, symObjAddr: 0xF3F0, symBinAddr: 0x100024654, symSize: 0x6C }
  - { offsetInCU: 0x27307, offset: 0x51EDF, size: 0x8, addend: 0x0, symName: __ZNSt3__121__convert_to_integralB8ue170006Em, symObjAddr: 0xF45C, symBinAddr: 0x1000246C0, symSize: 0x14 }
  - { offsetInCU: 0x27358, offset: 0x51F30, size: 0x8, addend: 0x0, symName: __ZNSt3__112construct_atB8ue170006INS_9sub_matchIPKcEEJRKS4_EPS4_EEPT_S9_DpOT0_, symObjAddr: 0xF554, symBinAddr: 0x1000247B8, symSize: 0x34 }
  - { offsetInCU: 0x273C7, offset: 0x51F9F, size: 0x8, addend: 0x0, symName: __ZNSt3__119__allocate_at_leastB8ue170006INS_9allocatorINS_9sub_matchIPKcEEEEEENS_19__allocation_resultINS_16allocator_traitsIT_E7pointerEEERS9_m, symObjAddr: 0xF798, symBinAddr: 0x1000249FC, symSize: 0x40 }
  - { offsetInCU: 0x2740A, offset: 0x51FE2, size: 0x8, addend: 0x0, symName: __ZNSt3__119__throw_regex_errorB8ue170006ILNS_15regex_constants10error_typeE12EEEvv, symObjAddr: 0xFBE0, symBinAddr: 0x100024E44, symSize: 0x60 }
  - { offsetInCU: 0x2742F, offset: 0x52007, size: 0x8, addend: 0x0, symName: __ZNSt3__119__throw_regex_errorB8ue170006ILNS_15regex_constants10error_typeE16EEEvv, symObjAddr: 0xFCA0, symBinAddr: 0x100024F04, symSize: 0x60 }
  - { offsetInCU: 0x27455, offset: 0x5202D, size: 0x8, addend: 0x0, symName: __ZNSt3__112__to_addressB8ue170006INS_7__stateIcEEEEPT_S4_, symObjAddr: 0x10100, symBinAddr: 0x100025364, symSize: 0x14 }
  - { offsetInCU: 0x274AE, offset: 0x52086, size: 0x8, addend: 0x0, symName: __ZNSt3__112construct_atB8ue170006INS_7__stateIcEEJS2_EPS2_EEPT_S5_DpOT0_, symObjAddr: 0x1018C, symBinAddr: 0x1000253F0, symSize: 0x3C }
  - { offsetInCU: 0x2751E, offset: 0x520F6, size: 0x8, addend: 0x0, symName: __ZNSt3__119__allocate_at_leastB8ue170006INS_9allocatorINS_7__stateIcEEEEEENS_19__allocation_resultINS_16allocator_traitsIT_E7pointerEEERS7_m, symObjAddr: 0x10BE4, symBinAddr: 0x100025E48, symSize: 0x40 }
  - { offsetInCU: 0x27561, offset: 0x52139, size: 0x8, addend: 0x0, symName: __ZNSt3__142__uninitialized_allocator_move_if_noexceptB8ue170006INS_9allocatorINS_7__stateIcEEEENS_16reverse_iteratorIPS3_EES7_S7_EET2_RT_T0_T1_S8_, symObjAddr: 0x10E70, symBinAddr: 0x1000260D4, symSize: 0x12C }
  - { offsetInCU: 0x27602, offset: 0x521DA, size: 0x8, addend: 0x0, symName: __ZNSt3__14swapB8ue170006IPNS_7__stateIcEEEENS_9enable_ifIXaasr21is_move_constructibleIT_EE5valuesr18is_move_assignableIS5_EE5valueEvE4typeERS5_S8_, symObjAddr: 0x10FE8, symBinAddr: 0x10002624C, symSize: 0x3C }
  - { offsetInCU: 0x27653, offset: 0x5222B, size: 0x8, addend: 0x0, symName: __ZNSt3__122__make_exception_guardB8ue170006INS_29_AllocatorDestroyRangeReverseINS_9allocatorINS_7__stateIcEEEENS_16reverse_iteratorIPS4_EEEEEENS_28__exception_guard_exceptionsIT_EESB_, symObjAddr: 0x11134, symBinAddr: 0x100026398, symSize: 0x4C }
  - { offsetInCU: 0x27689, offset: 0x52261, size: 0x8, addend: 0x0, symName: __ZNSt3__1neB8ue170006IPNS_7__stateIcEES3_EEbRKNS_16reverse_iteratorIT_EERKNS4_IT0_EE, symObjAddr: 0x111C4, symBinAddr: 0x100026428, symSize: 0x48 }
  - { offsetInCU: 0x276D5, offset: 0x522AD, size: 0x8, addend: 0x0, symName: __ZNSt3__112__to_addressB8ue170006INS_16reverse_iteratorIPNS_7__stateIcEEEEvEEu7__decayIDTclsr19__to_address_helperIT_EE6__callclsr3stdE7declvalIRKS6_EEEEES8_, symObjAddr: 0x1120C, symBinAddr: 0x100026470, symSize: 0x24 }
  - { offsetInCU: 0x27734, offset: 0x5230C, size: 0x8, addend: 0x0, symName: __ZNSt3__14prevB8ue170006IPNS_7__stateIcEEEENS_9enable_ifIXsr29__has_input_iterator_categoryIT_EE5valueES5_E4typeES5_NS_15iterator_traitsIS5_E15difference_typeE, symObjAddr: 0x113C0, symBinAddr: 0x100026624, symSize: 0x3C }
  - { offsetInCU: 0x27778, offset: 0x52350, size: 0x8, addend: 0x0, symName: __ZNSt3__19__advanceB8ue170006IPNS_7__stateIcEEEEvRT_NS_15iterator_traitsIS4_E15difference_typeENS_26random_access_iterator_tagE, symObjAddr: 0x11434, symBinAddr: 0x100026698, symSize: 0x30 }
  - { offsetInCU: 0x277C2, offset: 0x5239A, size: 0x8, addend: 0x0, symName: __ZNSt3__119__allocator_destroyB8ue170006INS_9allocatorINS_7__stateIcEEEENS_16reverse_iteratorINS5_IPS3_EEEES8_EEvRT_T0_T1_, symObjAddr: 0x11568, symBinAddr: 0x1000267CC, symSize: 0x70 }
  - { offsetInCU: 0x27826, offset: 0x523FE, size: 0x8, addend: 0x0, symName: __ZNSt3__1neB8ue170006INS_16reverse_iteratorIPNS_7__stateIcEEEES5_EEbRKNS1_IT_EERKNS1_IT0_EE, symObjAddr: 0x11614, symBinAddr: 0x100026878, symSize: 0x60 }
  - { offsetInCU: 0x27872, offset: 0x5244A, size: 0x8, addend: 0x0, symName: __ZNSt3__112__to_addressB8ue170006INS_16reverse_iteratorINS1_IPNS_7__stateIcEEEEEEvEEu7__decayIDTclsr19__to_address_helperIT_EE6__callclsr3stdE7declvalIRKS7_EEEEES9_, symObjAddr: 0x1169C, symBinAddr: 0x100026900, symSize: 0x24 }
  - { offsetInCU: 0x278A8, offset: 0x52480, size: 0x8, addend: 0x0, symName: __ZNSt3__110destroy_atB8ue170006INS_7__stateIcEELi0EEEvPT_, symObjAddr: 0x11714, symBinAddr: 0x100026978, symSize: 0x24 }
  - { offsetInCU: 0x278DF, offset: 0x524B7, size: 0x8, addend: 0x0, symName: __ZNSt3__112__destroy_atB8ue170006INS_7__stateIcEELi0EEEvPT_, symObjAddr: 0x11738, symBinAddr: 0x10002699C, symSize: 0x24 }
  - { offsetInCU: 0x2793F, offset: 0x52517, size: 0x8, addend: 0x0, symName: __ZNSt3__14prevB8ue170006INS_16reverse_iteratorIPNS_7__stateIcEEEEEENS_9enable_ifIXsr29__has_input_iterator_categoryIT_EE5valueES7_E4typeES7_NS_15iterator_traitsIS7_E15difference_typeE, symObjAddr: 0x117E0, symBinAddr: 0x100026A44, symSize: 0x4C }
  - { offsetInCU: 0x27982, offset: 0x5255A, size: 0x8, addend: 0x0, symName: __ZNSt3__19__advanceB8ue170006INS_16reverse_iteratorIPNS_7__stateIcEEEEEEvRT_NS_15iterator_traitsIS6_E15difference_typeENS_26random_access_iterator_tagE, symObjAddr: 0x11864, symBinAddr: 0x100026AC8, symSize: 0x2C }
  - { offsetInCU: 0x279CD, offset: 0x525A5, size: 0x8, addend: 0x0, symName: __ZNSt3__112__to_addressB8ue170006INS_4pairImPKcEEEEPT_S6_, symObjAddr: 0x12204, symBinAddr: 0x100027468, symSize: 0x14 }
  - { offsetInCU: 0x27A01, offset: 0x525D9, size: 0x8, addend: 0x0, symName: __ZNSt3__110destroy_atB8ue170006INS_4pairImPKcEELi0EEEvPT_, symObjAddr: 0x12218, symBinAddr: 0x10002747C, symSize: 0x24 }
  - { offsetInCU: 0x27A39, offset: 0x52611, size: 0x8, addend: 0x0, symName: __ZNSt3__112__destroy_atB8ue170006INS_4pairImPKcEELi0EEEvPT_, symObjAddr: 0x1223C, symBinAddr: 0x1000274A0, symSize: 0x10 }
  - { offsetInCU: 0x27A6F, offset: 0x52647, size: 0x8, addend: 0x0, symName: __ZNSt3__142__uninitialized_allocator_move_if_noexceptB8ue170006INS_9allocatorINS_9sub_matchIPKcEEEENS_16reverse_iteratorIPS5_EES9_S9_EET2_RT_T0_T1_SA_, symObjAddr: 0x129B8, symBinAddr: 0x100027C1C, symSize: 0x12C }
  - { offsetInCU: 0x27B10, offset: 0x526E8, size: 0x8, addend: 0x0, symName: __ZNSt3__14swapB8ue170006IPNS_9sub_matchIPKcEEEENS_9enable_ifIXaasr21is_move_constructibleIT_EE5valuesr18is_move_assignableIS7_EE5valueEvE4typeERS7_SA_, symObjAddr: 0x12B30, symBinAddr: 0x100027D94, symSize: 0x3C }
  - { offsetInCU: 0x27B61, offset: 0x52739, size: 0x8, addend: 0x0, symName: __ZNSt3__122__make_exception_guardB8ue170006INS_29_AllocatorDestroyRangeReverseINS_9allocatorINS_9sub_matchIPKcEEEENS_16reverse_iteratorIPS6_EEEEEENS_28__exception_guard_exceptionsIT_EESD_, symObjAddr: 0x12B6C, symBinAddr: 0x100027DD0, symSize: 0x4C }
  - { offsetInCU: 0x27B97, offset: 0x5276F, size: 0x8, addend: 0x0, symName: __ZNSt3__1neB8ue170006IPNS_9sub_matchIPKcEES5_EEbRKNS_16reverse_iteratorIT_EERKNS6_IT0_EE, symObjAddr: 0x12BFC, symBinAddr: 0x100027E60, symSize: 0x48 }
  - { offsetInCU: 0x27BE3, offset: 0x527BB, size: 0x8, addend: 0x0, symName: __ZNSt3__112__to_addressB8ue170006INS_16reverse_iteratorIPNS_9sub_matchIPKcEEEEvEEu7__decayIDTclsr19__to_address_helperIT_EE6__callclsr3stdE7declvalIRKS8_EEEEESA_, symObjAddr: 0x12C74, symBinAddr: 0x100027ED8, symSize: 0x24 }
  - { offsetInCU: 0x27C1A, offset: 0x527F2, size: 0x8, addend: 0x0, symName: __ZNSt3__112construct_atB8ue170006INS_9sub_matchIPKcEEJS4_EPS4_EEPT_S7_DpOT0_, symObjAddr: 0x12DC4, symBinAddr: 0x100028028, symSize: 0x34 }
  - { offsetInCU: 0x27CB2, offset: 0x5288A, size: 0x8, addend: 0x0, symName: __ZNSt3__14prevB8ue170006IPNS_9sub_matchIPKcEEEENS_9enable_ifIXsr29__has_input_iterator_categoryIT_EE5valueES7_E4typeES7_NS_15iterator_traitsIS7_E15difference_typeE, symObjAddr: 0x12E5C, symBinAddr: 0x1000280C0, symSize: 0x3C }
  - { offsetInCU: 0x27CF6, offset: 0x528CE, size: 0x8, addend: 0x0, symName: __ZNSt3__19__advanceB8ue170006IPNS_9sub_matchIPKcEEEEvRT_NS_15iterator_traitsIS6_E15difference_typeENS_26random_access_iterator_tagE, symObjAddr: 0x12ED0, symBinAddr: 0x100028134, symSize: 0x30 }
  - { offsetInCU: 0x27D40, offset: 0x52918, size: 0x8, addend: 0x0, symName: __ZNSt3__119__allocator_destroyB8ue170006INS_9allocatorINS_9sub_matchIPKcEEEENS_16reverse_iteratorINS7_IPS5_EEEESA_EEvRT_T0_T1_, symObjAddr: 0x13004, symBinAddr: 0x100028268, symSize: 0x70 }
  - { offsetInCU: 0x27DA4, offset: 0x5297C, size: 0x8, addend: 0x0, symName: __ZNSt3__1neB8ue170006INS_16reverse_iteratorIPNS_9sub_matchIPKcEEEES7_EEbRKNS1_IT_EERKNS1_IT0_EE, symObjAddr: 0x130B0, symBinAddr: 0x100028314, symSize: 0x60 }
  - { offsetInCU: 0x27DF0, offset: 0x529C8, size: 0x8, addend: 0x0, symName: __ZNSt3__112__to_addressB8ue170006INS_16reverse_iteratorINS1_IPNS_9sub_matchIPKcEEEEEEvEEu7__decayIDTclsr19__to_address_helperIT_EE6__callclsr3stdE7declvalIRKS9_EEEEESB_, symObjAddr: 0x13110, symBinAddr: 0x100028374, symSize: 0x24 }
  - { offsetInCU: 0x27E4F, offset: 0x52A27, size: 0x8, addend: 0x0, symName: __ZNSt3__14prevB8ue170006INS_16reverse_iteratorIPNS_9sub_matchIPKcEEEEEENS_9enable_ifIXsr29__has_input_iterator_categoryIT_EE5valueES9_E4typeES9_NS_15iterator_traitsIS9_E15difference_typeE, symObjAddr: 0x1320C, symBinAddr: 0x100028470, symSize: 0x4C }
  - { offsetInCU: 0x27E92, offset: 0x52A6A, size: 0x8, addend: 0x0, symName: __ZNSt3__19__advanceB8ue170006INS_16reverse_iteratorIPNS_9sub_matchIPKcEEEEEEvRT_NS_15iterator_traitsIS8_E15difference_typeENS_26random_access_iterator_tagE, symObjAddr: 0x13290, symBinAddr: 0x1000284F4, symSize: 0x2C }
  - { offsetInCU: 0x27F01, offset: 0x52AD9, size: 0x8, addend: 0x0, symName: __ZNSt3__112construct_atB8ue170006INS_4pairImPKcEEJEPS4_EEPT_S7_DpOT0_, symObjAddr: 0x13B24, symBinAddr: 0x100028D88, symSize: 0x34 }
  - { offsetInCU: 0x27F5D, offset: 0x52B35, size: 0x8, addend: 0x0, symName: __ZNSt3__119__allocate_at_leastB8ue170006INS_9allocatorINS_4pairImPKcEEEEEENS_19__allocation_resultINS_16allocator_traitsIT_E7pointerEEERS9_m, symObjAddr: 0x13DD4, symBinAddr: 0x100029038, symSize: 0x40 }
  - { offsetInCU: 0x27FA0, offset: 0x52B78, size: 0x8, addend: 0x0, symName: __ZNSt3__142__uninitialized_allocator_move_if_noexceptB8ue170006INS_9allocatorINS_4pairImPKcEEEENS_16reverse_iteratorIPS5_EES9_S9_EET2_RT_T0_T1_SA_, symObjAddr: 0x14054, symBinAddr: 0x1000292B8, symSize: 0x12C }
  - { offsetInCU: 0x28041, offset: 0x52C19, size: 0x8, addend: 0x0, symName: __ZNSt3__14swapB8ue170006IPNS_4pairImPKcEEEENS_9enable_ifIXaasr21is_move_constructibleIT_EE5valuesr18is_move_assignableIS7_EE5valueEvE4typeERS7_SA_, symObjAddr: 0x141CC, symBinAddr: 0x100029430, symSize: 0x3C }
  - { offsetInCU: 0x28092, offset: 0x52C6A, size: 0x8, addend: 0x0, symName: __ZNSt3__122__make_exception_guardB8ue170006INS_29_AllocatorDestroyRangeReverseINS_9allocatorINS_4pairImPKcEEEENS_16reverse_iteratorIPS6_EEEEEENS_28__exception_guard_exceptionsIT_EESD_, symObjAddr: 0x142B4, symBinAddr: 0x100029518, symSize: 0x4C }
  - { offsetInCU: 0x280C8, offset: 0x52CA0, size: 0x8, addend: 0x0, symName: __ZNSt3__1neB8ue170006IPNS_4pairImPKcEES5_EEbRKNS_16reverse_iteratorIT_EERKNS6_IT0_EE, symObjAddr: 0x14344, symBinAddr: 0x1000295A8, symSize: 0x48 }
  - { offsetInCU: 0x28114, offset: 0x52CEC, size: 0x8, addend: 0x0, symName: __ZNSt3__112__to_addressB8ue170006INS_16reverse_iteratorIPNS_4pairImPKcEEEEvEEu7__decayIDTclsr19__to_address_helperIT_EE6__callclsr3stdE7declvalIRKS8_EEEEESA_, symObjAddr: 0x143BC, symBinAddr: 0x100029620, symSize: 0x24 }
  - { offsetInCU: 0x2814B, offset: 0x52D23, size: 0x8, addend: 0x0, symName: __ZNSt3__112construct_atB8ue170006INS_4pairImPKcEEJS4_EPS4_EEPT_S7_DpOT0_, symObjAddr: 0x1450C, symBinAddr: 0x100029770, symSize: 0x2C }
  - { offsetInCU: 0x281E3, offset: 0x52DBB, size: 0x8, addend: 0x0, symName: __ZNSt3__14prevB8ue170006IPNS_4pairImPKcEEEENS_9enable_ifIXsr29__has_input_iterator_categoryIT_EE5valueES7_E4typeES7_NS_15iterator_traitsIS7_E15difference_typeE, symObjAddr: 0x1459C, symBinAddr: 0x100029800, symSize: 0x3C }
  - { offsetInCU: 0x28227, offset: 0x52DFF, size: 0x8, addend: 0x0, symName: __ZNSt3__19__advanceB8ue170006IPNS_4pairImPKcEEEEvRT_NS_15iterator_traitsIS6_E15difference_typeENS_26random_access_iterator_tagE, symObjAddr: 0x14610, symBinAddr: 0x100029874, symSize: 0x28 }
  - { offsetInCU: 0x28271, offset: 0x52E49, size: 0x8, addend: 0x0, symName: __ZNSt3__119__allocator_destroyB8ue170006INS_9allocatorINS_4pairImPKcEEEENS_16reverse_iteratorINS7_IPS5_EEEESA_EEvRT_T0_T1_, symObjAddr: 0x1473C, symBinAddr: 0x1000299A0, symSize: 0x70 }
  - { offsetInCU: 0x282D5, offset: 0x52EAD, size: 0x8, addend: 0x0, symName: __ZNSt3__1neB8ue170006INS_16reverse_iteratorIPNS_4pairImPKcEEEES7_EEbRKNS1_IT_EERKNS1_IT0_EE, symObjAddr: 0x147E8, symBinAddr: 0x100029A4C, symSize: 0x60 }
  - { offsetInCU: 0x28321, offset: 0x52EF9, size: 0x8, addend: 0x0, symName: __ZNSt3__112__to_addressB8ue170006INS_16reverse_iteratorINS1_IPNS_4pairImPKcEEEEEEvEEu7__decayIDTclsr19__to_address_helperIT_EE6__callclsr3stdE7declvalIRKS9_EEEEESB_, symObjAddr: 0x14848, symBinAddr: 0x100029AAC, symSize: 0x24 }
  - { offsetInCU: 0x28380, offset: 0x52F58, size: 0x8, addend: 0x0, symName: __ZNSt3__14prevB8ue170006INS_16reverse_iteratorIPNS_4pairImPKcEEEEEENS_9enable_ifIXsr29__has_input_iterator_categoryIT_EE5valueES9_E4typeES9_NS_15iterator_traitsIS9_E15difference_typeE, symObjAddr: 0x14944, symBinAddr: 0x100029BA8, symSize: 0x4C }
  - { offsetInCU: 0x283C3, offset: 0x52F9B, size: 0x8, addend: 0x0, symName: __ZNSt3__19__advanceB8ue170006INS_16reverse_iteratorIPNS_4pairImPKcEEEEEEvRT_NS_15iterator_traitsIS8_E15difference_typeENS_26random_access_iterator_tagE, symObjAddr: 0x149C8, symBinAddr: 0x100029C2C, symSize: 0x2C }
  - { offsetInCU: 0x2840D, offset: 0x52FE5, size: 0x8, addend: 0x0, symName: __ZNSt3__122__make_exception_guardB8ue170006INS_6vectorINS_9sub_matchIPKcEENS_9allocatorIS5_EEE16__destroy_vectorEEENS_28__exception_guard_exceptionsIT_EESB_, symObjAddr: 0x15148, symBinAddr: 0x10002A3AC, symSize: 0x40 }
  - { offsetInCU: 0x28442, offset: 0x5301A, size: 0x8, addend: 0x0, symName: __ZNSt3__130__uninitialized_allocator_copyB8ue170006INS_9allocatorINS_9sub_matchIPKcEEEEPS5_S7_S7_EET2_RT_T0_T1_S8_, symObjAddr: 0x152B4, symBinAddr: 0x10002A518, symSize: 0x80 }
  - { offsetInCU: 0x284DF, offset: 0x530B7, size: 0x8, addend: 0x0, symName: __ZNSt3__114__unwrap_rangeB8ue170006IPNS_9sub_matchIPKcEES5_EEDaT_T0_, symObjAddr: 0x15334, symBinAddr: 0x10002A598, symSize: 0x3C }
  - { offsetInCU: 0x2852B, offset: 0x53103, size: 0x8, addend: 0x0, symName: __ZNSt3__135__uninitialized_allocator_copy_implB8ue170006INS_9allocatorINS_9sub_matchIPKcEEEEPS5_S7_S7_EET2_RT_T0_T1_S8_, symObjAddr: 0x15370, symBinAddr: 0x10002A5D4, symSize: 0xF4 }
  - { offsetInCU: 0x285C9, offset: 0x531A1, size: 0x8, addend: 0x0, symName: __ZNSt3__113__unwrap_iterB8ue170006IPNS_9sub_matchIPKcEENS_18__unwrap_iter_implIS5_Lb1EEELi0EEEDTclsrT0_8__unwrapclsr3stdE7declvalIT_EEEES9_, symObjAddr: 0x15464, symBinAddr: 0x10002A6C8, symSize: 0x24 }
  - { offsetInCU: 0x2860D, offset: 0x531E5, size: 0x8, addend: 0x0, symName: __ZNSt3__113__rewrap_iterB8ue170006IPNS_9sub_matchIPKcEES5_NS_18__unwrap_iter_implIS5_Lb1EEEEET_S8_T0_, symObjAddr: 0x15488, symBinAddr: 0x10002A6EC, symSize: 0x3C }
  - { offsetInCU: 0x2877E, offset: 0x53356, size: 0x8, addend: 0x0, symName: __ZNSt3__122__make_exception_guardB8ue170006INS_29_AllocatorDestroyRangeReverseINS_9allocatorINS_9sub_matchIPKcEEEEPS6_EEEENS_28__exception_guard_exceptionsIT_EESB_, symObjAddr: 0x1558C, symBinAddr: 0x10002A7F0, symSize: 0x4C }
  - { offsetInCU: 0x287B5, offset: 0x5338D, size: 0x8, addend: 0x0, symName: __ZNSt3__112construct_atB8ue170006INS_9sub_matchIPKcEEJRS4_EPS4_EEPT_S8_DpOT0_, symObjAddr: 0x15730, symBinAddr: 0x10002A994, symSize: 0x34 }
  - { offsetInCU: 0x28825, offset: 0x533FD, size: 0x8, addend: 0x0, symName: __ZNSt3__119__allocator_destroyB8ue170006INS_9allocatorINS_9sub_matchIPKcEEEENS_16reverse_iteratorIPS5_EES9_EEvRT_T0_T1_, symObjAddr: 0x1581C, symBinAddr: 0x10002AA80, symSize: 0x70 }
  - { offsetInCU: 0x288DA, offset: 0x534B2, size: 0x8, addend: 0x0, symName: __ZNSt3__122__make_exception_guardB8ue170006INS_6vectorINS_4pairImPKcEENS_9allocatorIS5_EEE16__destroy_vectorEEENS_28__exception_guard_exceptionsIT_EESB_, symObjAddr: 0x15AAC, symBinAddr: 0x10002AD10, symSize: 0x40 }
  - { offsetInCU: 0x2890F, offset: 0x534E7, size: 0x8, addend: 0x0, symName: __ZNSt3__130__uninitialized_allocator_copyB8ue170006INS_9allocatorINS_4pairImPKcEEEEPS5_S7_S7_EET2_RT_T0_T1_S8_, symObjAddr: 0x15CC4, symBinAddr: 0x10002AF28, symSize: 0x80 }
  - { offsetInCU: 0x289AC, offset: 0x53584, size: 0x8, addend: 0x0, symName: __ZNSt3__114__unwrap_rangeB8ue170006IPNS_4pairImPKcEES5_EEDaT_T0_, symObjAddr: 0x15D44, symBinAddr: 0x10002AFA8, symSize: 0x3C }
  - { offsetInCU: 0x289F8, offset: 0x535D0, size: 0x8, addend: 0x0, symName: __ZNSt3__135__uninitialized_allocator_copy_implB8ue170006INS_9allocatorINS_4pairImPKcEEEEPS5_S7_S7_EET2_RT_T0_T1_S8_, symObjAddr: 0x15D80, symBinAddr: 0x10002AFE4, symSize: 0xF4 }
  - { offsetInCU: 0x28A96, offset: 0x5366E, size: 0x8, addend: 0x0, symName: __ZNSt3__113__unwrap_iterB8ue170006IPNS_4pairImPKcEENS_18__unwrap_iter_implIS5_Lb1EEELi0EEEDTclsrT0_8__unwrapclsr3stdE7declvalIT_EEEES9_, symObjAddr: 0x15E74, symBinAddr: 0x10002B0D8, symSize: 0x24 }
  - { offsetInCU: 0x28ADA, offset: 0x536B2, size: 0x8, addend: 0x0, symName: __ZNSt3__113__rewrap_iterB8ue170006IPNS_4pairImPKcEES5_NS_18__unwrap_iter_implIS5_Lb1EEEEET_S8_T0_, symObjAddr: 0x15E98, symBinAddr: 0x10002B0FC, symSize: 0x3C }
  - { offsetInCU: 0x28C4B, offset: 0x53823, size: 0x8, addend: 0x0, symName: __ZNSt3__122__make_exception_guardB8ue170006INS_29_AllocatorDestroyRangeReverseINS_9allocatorINS_4pairImPKcEEEEPS6_EEEENS_28__exception_guard_exceptionsIT_EESB_, symObjAddr: 0x15F9C, symBinAddr: 0x10002B200, symSize: 0x4C }
  - { offsetInCU: 0x28C82, offset: 0x5385A, size: 0x8, addend: 0x0, symName: __ZNSt3__112construct_atB8ue170006INS_4pairImPKcEEJRS4_EPS4_EEPT_S8_DpOT0_, symObjAddr: 0x16140, symBinAddr: 0x10002B3A4, symSize: 0x2C }
  - { offsetInCU: 0x28CF2, offset: 0x538CA, size: 0x8, addend: 0x0, symName: __ZNSt3__119__allocator_destroyB8ue170006INS_9allocatorINS_4pairImPKcEEEENS_16reverse_iteratorIPS5_EES9_EEvRT_T0_T1_, symObjAddr: 0x16224, symBinAddr: 0x10002B488, symSize: 0x70 }
  - { offsetInCU: 0x28DA7, offset: 0x5397F, size: 0x8, addend: 0x0, symName: __ZNSt3__119__throw_regex_errorB8ue170006ILNS_15regex_constants10error_typeE11EEEvv, symObjAddr: 0x16A6C, symBinAddr: 0x10002BCD0, symSize: 0x60 }
  - { offsetInCU: 0x28E41, offset: 0x53A19, size: 0x8, addend: 0x0, symName: __ZNSt3__119__throw_regex_errorB8ue170006ILNS_15regex_constants10error_typeE3EEEvv, symObjAddr: 0x16DE4, symBinAddr: 0x10002C048, symSize: 0x60 }
  - { offsetInCU: 0x29051, offset: 0x53C29, size: 0x8, addend: 0x0, symName: __ZNSt3__119__throw_regex_errorB8ue170006ILNS_15regex_constants10error_typeE4EEEvv, symObjAddr: 0x17B9C, symBinAddr: 0x10002CE00, symSize: 0x60 }
  - { offsetInCU: 0x29496, offset: 0x5406E, size: 0x8, addend: 0x0, symName: __ZNSt3__15equalB8ue170006IPKcS2_EEbT_S3_T0_, symObjAddr: 0x18D20, symBinAddr: 0x10002DF84, symSize: 0x38 }
  - { offsetInCU: 0x294F0, offset: 0x540C8, size: 0x8, addend: 0x0, symName: __ZNSt3__15equalB8ue170006IPKcS2_NS_10__equal_toEEEbT_S4_T0_T1_, symObjAddr: 0x18D58, symBinAddr: 0x10002DFBC, symSize: 0x5C }
  - { offsetInCU: 0x29561, offset: 0x54139, size: 0x8, addend: 0x0, symName: __ZNSt3__117__equal_iter_implB8ue170006IKcS1_NS_10__equal_toELi0EEEbPT_S4_PT0_RT1_, symObjAddr: 0x18DB4, symBinAddr: 0x10002E018, symSize: 0x44 }
  - { offsetInCU: 0x295D5, offset: 0x541AD, size: 0x8, addend: 0x0, symName: __ZNSt3__113__unwrap_iterB8ue170006IPKcNS_18__unwrap_iter_implIS2_Lb1EEELi0EEEDTclsrT0_8__unwrapclsr3stdE7declvalIT_EEEES6_, symObjAddr: 0x18DF8, symBinAddr: 0x10002E05C, symSize: 0x24 }
  - { offsetInCU: 0x29619, offset: 0x541F1, size: 0x8, addend: 0x0, symName: __ZNSt3__124__constexpr_memcmp_equalB8ue170006IccEEbPKT_PKT0_NS_15__element_countE, symObjAddr: 0x18E1C, symBinAddr: 0x10002E080, symSize: 0x4C }
  - { offsetInCU: 0x296D5, offset: 0x542AD, size: 0x8, addend: 0x0, symName: __ZNSt3__1eqB8ue170006IcNS_11char_traitsIcEENS_9allocatorIcEEEEbRKNS_12basic_stringIT_T0_T1_EEPKS6_, symObjAddr: 0x19354, symBinAddr: 0x10002E5B8, symSize: 0x5C }
  - { offsetInCU: 0x2972D, offset: 0x54305, size: 0x8, addend: 0x0, symName: __ZNSt3__1eqB8ue170006IcNS_11char_traitsIcEEEEbNS_17basic_string_viewIT_T0_EES6_, symObjAddr: 0x1A1FC, symBinAddr: 0x10002F460, symSize: 0xB0 }
  - { offsetInCU: 0x2977C, offset: 0x54354, size: 0x8, addend: 0x0, symName: __ZNSt3__128__char_traits_length_checkedB8ue170006INS_11char_traitsIcEEEEmPKNT_9char_typeE, symObjAddr: 0x1A57C, symBinAddr: 0x10002F7E0, symSize: 0x24 }
  - { offsetInCU: 0x297B4, offset: 0x5438C, size: 0x8, addend: 0x0, symName: __ZNSt3__112__to_addressB8ue170006INS_12basic_stringIcNS_11char_traitsIcEENS_9allocatorIcEEEEEEPT_S8_, symObjAddr: 0x1A914, symBinAddr: 0x10002FB78, symSize: 0x14 }
  - { offsetInCU: 0x297E8, offset: 0x543C0, size: 0x8, addend: 0x0, symName: __ZNSt3__110destroy_atB8ue170006INS_12basic_stringIcNS_11char_traitsIcEENS_9allocatorIcEEEELi0EEEvPT_, symObjAddr: 0x1A928, symBinAddr: 0x10002FB8C, symSize: 0x24 }
  - { offsetInCU: 0x2981F, offset: 0x543F7, size: 0x8, addend: 0x0, symName: __ZNSt3__112__destroy_atB8ue170006INS_12basic_stringIcNS_11char_traitsIcEENS_9allocatorIcEEEELi0EEEvPT_, symObjAddr: 0x1A94C, symBinAddr: 0x10002FBB0, symSize: 0x24 }
  - { offsetInCU: 0x29857, offset: 0x5442F, size: 0x8, addend: 0x0, symName: __ZNSt3__112__to_addressB8ue170006INS_4pairIccEEEEPT_S4_, symObjAddr: 0x1AE14, symBinAddr: 0x100030078, symSize: 0x14 }
  - { offsetInCU: 0x2988B, offset: 0x54463, size: 0x8, addend: 0x0, symName: __ZNSt3__110destroy_atB8ue170006INS_4pairIccEELi0EEEvPT_, symObjAddr: 0x1AE28, symBinAddr: 0x10003008C, symSize: 0x24 }
  - { offsetInCU: 0x298C3, offset: 0x5449B, size: 0x8, addend: 0x0, symName: __ZNSt3__112__destroy_atB8ue170006INS_4pairIccEELi0EEEvPT_, symObjAddr: 0x1AE4C, symBinAddr: 0x1000300B0, symSize: 0x10 }
  - { offsetInCU: 0x298FA, offset: 0x544D2, size: 0x8, addend: 0x0, symName: __ZNSt3__112__to_addressB8ue170006INS_4pairINS_12basic_stringIcNS_11char_traitsIcEENS_9allocatorIcEEEES7_EEEEPT_SA_, symObjAddr: 0x1B318, symBinAddr: 0x10003057C, symSize: 0x14 }
  - { offsetInCU: 0x2992E, offset: 0x54506, size: 0x8, addend: 0x0, symName: __ZNSt3__110destroy_atB8ue170006INS_4pairINS_12basic_stringIcNS_11char_traitsIcEENS_9allocatorIcEEEES7_EELi0EEEvPT_, symObjAddr: 0x1B32C, symBinAddr: 0x100030590, symSize: 0x24 }
  - { offsetInCU: 0x29965, offset: 0x5453D, size: 0x8, addend: 0x0, symName: __ZNSt3__112__destroy_atB8ue170006INS_4pairINS_12basic_stringIcNS_11char_traitsIcEENS_9allocatorIcEEEES7_EELi0EEEvPT_, symObjAddr: 0x1B350, symBinAddr: 0x1000305B4, symSize: 0x24 }
  - { offsetInCU: 0x2999C, offset: 0x54574, size: 0x8, addend: 0x0, symName: __ZNSt3__1eqB8ue170006IccccEEbRKNS_4pairIT_T0_EERKNS1_IT1_T2_EE, symObjAddr: 0x1B654, symBinAddr: 0x1000308B8, symSize: 0x64 }
  - { offsetInCU: 0x299FD, offset: 0x545D5, size: 0x8, addend: 0x0, symName: __ZNSt3__1leB8ue170006ENS_15strong_orderingENS_20_CmpUnspecifiedParamE, symObjAddr: 0x1B7F4, symBinAddr: 0x100030A58, symSize: 0x24 }
  - { offsetInCU: 0x29A37, offset: 0x5460F, size: 0x8, addend: 0x0, symName: __ZNSt3__1ssB8ue170006IcNS_11char_traitsIcEENS_9allocatorIcEEEEDaRKNS_12basic_stringIT_T0_T1_EESC_, symObjAddr: 0x1B818, symBinAddr: 0x100030A7C, symSize: 0x5C }
  - { offsetInCU: 0x29AAB, offset: 0x54683, size: 0x8, addend: 0x0, symName: __ZNSt3__1eqB8ue170006INS_9allocatorIcEEEEbRKNS_12basic_stringIcNS_11char_traitsIcEET_EES9_, symObjAddr: 0x1B93C, symBinAddr: 0x100030BA0, symSize: 0x148 }
  - { offsetInCU: 0x29B1E, offset: 0x546F6, size: 0x8, addend: 0x0, symName: __ZNSt3__1neB8ue170006IPKcEEbRKNS_11__wrap_iterIT_EES7_, symObjAddr: 0x1BAFC, symBinAddr: 0x100030D60, symSize: 0x34 }
  - { offsetInCU: 0x29B61, offset: 0x54739, size: 0x8, addend: 0x0, symName: __ZNSt3__14findB8ue170006INS_11__wrap_iterIPKcEEcEET_S5_S5_RKT0_, symObjAddr: 0x1BB30, symBinAddr: 0x100030D94, symSize: 0x78 }
  - { offsetInCU: 0x29BCA, offset: 0x547A2, size: 0x8, addend: 0x0, symName: __ZNSt3__18distanceB8ue170006IPcEENS_15iterator_traitsIT_E15difference_typeES3_S3_, symObjAddr: 0x1BFE4, symBinAddr: 0x100031248, symSize: 0x2C }
  - { offsetInCU: 0x29C0E, offset: 0x547E6, size: 0x8, addend: 0x0, symName: __ZNSt3__110__distanceB8ue170006IPcEENS_15iterator_traitsIT_E15difference_typeES3_S3_NS_26random_access_iterator_tagE, symObjAddr: 0x1C154, symBinAddr: 0x1000313B8, symSize: 0x20 }
  - { offsetInCU: 0x29C5B, offset: 0x54833, size: 0x8, addend: 0x0, symName: __ZNSt3__1ssB8ue170006IcNS_11char_traitsIcEEEEDaNS_17basic_string_viewIT_T0_EES7_, symObjAddr: 0x1C678, symBinAddr: 0x1000318DC, symSize: 0x7C }
  - { offsetInCU: 0x29CAA, offset: 0x54882, size: 0x8, addend: 0x0, symName: __ZNSt3__1eqB8ue170006IPKcEEbRKNS_11__wrap_iterIT_EES7_, symObjAddr: 0x1C8A8, symBinAddr: 0x100031B0C, symSize: 0x48 }
  - { offsetInCU: 0x29CED, offset: 0x548C5, size: 0x8, addend: 0x0, symName: __ZNSt3__113__rewrap_iterB8ue170006INS_11__wrap_iterIPKcEES3_NS_18__unwrap_iter_implIS4_Lb1EEEEET_S7_T0_, symObjAddr: 0x1C908, symBinAddr: 0x100031B6C, symSize: 0x4C }
  - { offsetInCU: 0x29D42, offset: 0x5491A, size: 0x8, addend: 0x0, symName: __ZNSt3__111__find_implB8ue170006IKccNS_10__identityELi0EEEPT_S4_S4_RKT0_RT1_, symObjAddr: 0x1C954, symBinAddr: 0x100031BB8, symSize: 0x78 }
  - { offsetInCU: 0x29DCB, offset: 0x549A3, size: 0x8, addend: 0x0, symName: __ZNSt3__113__unwrap_iterB8ue170006INS_11__wrap_iterIPKcEENS_18__unwrap_iter_implIS4_Lb1EEELi0EEEDTclsrT0_8__unwrapclsr3stdE7declvalIT_EEEES8_, symObjAddr: 0x1C9CC, symBinAddr: 0x100031C30, symSize: 0x2C }
  - { offsetInCU: 0x29E62, offset: 0x54A3A, size: 0x8, addend: 0x0, symName: __ZNSt3__112__to_addressB8ue170006INS_11__wrap_iterIPKcEEvEEu7__decayIDTclsr19__to_address_helperIT_EE6__callclsr3stdE7declvalIRKS5_EEEEES7_, symObjAddr: 0x1CA88, symBinAddr: 0x100031CEC, symSize: 0x24 }
  - { offsetInCU: 0x29EFF, offset: 0x54AD7, size: 0x8, addend: 0x0, symName: __ZNSt3__118__constexpr_memchrB8ue170006IKccEEPT_S3_T0_m, symObjAddr: 0x1CB30, symBinAddr: 0x100031D94, symSize: 0x40 }
  - { offsetInCU: 0x29F77, offset: 0x54B4F, size: 0x8, addend: 0x0, symName: __ZNSt3__112construct_atB8ue170006IcJRKcEPcEEPT_S5_DpOT0_, symObjAddr: 0x1CE20, symBinAddr: 0x100032084, symSize: 0x2C }
  - { offsetInCU: 0x29FE6, offset: 0x54BBE, size: 0x8, addend: 0x0, symName: __ZNSt3__17__is_07B8ue170006Eh, symObjAddr: 0x1CF98, symBinAddr: 0x1000321FC, symSize: 0x24 }
  - { offsetInCU: 0x2A014, offset: 0x54BEC, size: 0x8, addend: 0x0, symName: __ZNSt3__17__is_89B8ue170006Eh, symObjAddr: 0x1CFBC, symBinAddr: 0x100032220, symSize: 0x24 }
  - { offsetInCU: 0x2A042, offset: 0x54C1A, size: 0x8, addend: 0x0, symName: __ZNSt3__110__to_lowerB8ue170006Eh, symObjAddr: 0x1CFE0, symBinAddr: 0x100032244, symSize: 0x1C }
  - { offsetInCU: 0x2A070, offset: 0x54C48, size: 0x8, addend: 0x0, symName: __ZNSt3__119__throw_regex_errorB8ue170006ILNS_15regex_constants10error_typeE5EEEvv, symObjAddr: 0x1CFFC, symBinAddr: 0x100032260, symSize: 0x60 }
  - { offsetInCU: 0x2A095, offset: 0x54C6D, size: 0x8, addend: 0x0, symName: __ZNSt3__16searchB8ue170006IPKcPcEET_S4_S4_T0_S5_, symObjAddr: 0x1EA8C, symBinAddr: 0x100033CF0, symSize: 0x3C }
  - { offsetInCU: 0x2A0FD, offset: 0x54CD5, size: 0x8, addend: 0x0, symName: __ZNSt3__119__throw_regex_errorB8ue170006ILNS_15regex_constants10error_typeE1EEEvv, symObjAddr: 0x1EB08, symBinAddr: 0x100033D6C, symSize: 0x60 }
  - { offsetInCU: 0x2A122, offset: 0x54CFA, size: 0x8, addend: 0x0, symName: __ZNSt3__16searchB8ue170006IPKcPcNS_10__equal_toEEET_S5_S5_T0_S6_T1_, symObjAddr: 0x1EC88, symBinAddr: 0x100033EEC, symSize: 0x64 }
  - { offsetInCU: 0x2A1B0, offset: 0x54D88, size: 0x8, addend: 0x0, symName: __ZNSt3__113__search_implB8ue170006IPKcS2_PcS3_NS_10__equal_toENS_10__identityES5_EENS_4pairIT_S7_EES7_T0_T1_T2_RT3_RT4_RT5_PNS_9enable_ifIXaasr37__has_random_access_iterator_categoryIS7_EE5valuesr37__has_random_access_iterator_categoryISA_EE5valueEvE4typeE, symObjAddr: 0x1ECEC, symBinAddr: 0x100033F50, symSize: 0xF8 }
  - { offsetInCU: 0x2A298, offset: 0x54E70, size: 0x8, addend: 0x0, symName: __ZNSt3__19make_pairB8ue170006IRPKcS3_EENS_4pairINS_18__unwrap_ref_decayIT_E4typeENS5_IT0_E4typeEEEOS6_OS9_, symObjAddr: 0x1EDE4, symBinAddr: 0x100034048, symSize: 0x38 }
  - { offsetInCU: 0x2A2E7, offset: 0x54EBF, size: 0x8, addend: 0x0, symName: __ZNSt3__127__search_random_access_implB8ue170006INS_17_ClassicAlgPolicyEPKcS3_PcS4_NS_10__equal_toENS_10__identityES6_llEENS_4pairIT0_S8_EES8_T1_T2_T3_RT4_RT5_RT6_T7_T8_, symObjAddr: 0x1EE1C, symBinAddr: 0x100034080, symSize: 0x1BC }
  - { offsetInCU: 0x2A41C, offset: 0x54FF4, size: 0x8, addend: 0x0, symName: __ZNSt3__18__invokeB8ue170006IRNS_10__equal_toEJRKcRcEEEDTclclsr3stdE7declvalIT_EEspclsr3stdE7declvalIT0_EEEEOS6_DpOS7_, symObjAddr: 0x1F068, symBinAddr: 0x1000342CC, symSize: 0x38 }
  - { offsetInCU: 0x2A481, offset: 0x55059, size: 0x8, addend: 0x0, symName: __ZNSt3__18__invokeB8ue170006IRNS_10__identityEJRKcEEEDTclclsr3stdE7declvalIT_EEspclsr3stdE7declvalIT0_EEEEOS5_DpOS6_, symObjAddr: 0x1F0A0, symBinAddr: 0x100034304, symSize: 0x2C }
  - { offsetInCU: 0x2A4D2, offset: 0x550AA, size: 0x8, addend: 0x0, symName: __ZNSt3__18__invokeB8ue170006IRNS_10__identityEJRcEEEDTclclsr3stdE7declvalIT_EEspclsr3stdE7declvalIT0_EEEEOS4_DpOS5_, symObjAddr: 0x1F0CC, symBinAddr: 0x100034330, symSize: 0x2C }
  - { offsetInCU: 0x2A523, offset: 0x550FB, size: 0x8, addend: 0x0, symName: __ZNSt3__19make_pairB8ue170006IRPKcS2_EENS_4pairINS_18__unwrap_ref_decayIT_E4typeENS5_IT0_E4typeEEEOS6_OS9_, symObjAddr: 0x1F0F8, symBinAddr: 0x10003435C, symSize: 0x38 }
  - { offsetInCU: 0x2A5FD, offset: 0x551D5, size: 0x8, addend: 0x0, symName: __ZNSt3__18distanceB8ue170006IPKcEENS_15iterator_traitsIT_E15difference_typeES4_S4_, symObjAddr: 0x1F500, symBinAddr: 0x100034764, symSize: 0x2C }
  - { offsetInCU: 0x2A641, offset: 0x55219, size: 0x8, addend: 0x0, symName: __ZNSt3__110__distanceB8ue170006IPKcEENS_15iterator_traitsIT_E15difference_typeES4_S4_NS_26random_access_iterator_tagE, symObjAddr: 0x1F670, symBinAddr: 0x1000348D4, symSize: 0x20 }
  - { offsetInCU: 0x2A68E, offset: 0x55266, size: 0x8, addend: 0x0, symName: __ZNSt3__18distanceB8ue170006INS_11__wrap_iterIPcEEEENS_15iterator_traitsIT_E15difference_typeES5_S5_, symObjAddr: 0x1F948, symBinAddr: 0x100034BAC, symSize: 0x3C }
  - { offsetInCU: 0x2A6D1, offset: 0x552A9, size: 0x8, addend: 0x0, symName: __ZNSt3__110__distanceB8ue170006INS_11__wrap_iterIPcEEEENS_15iterator_traitsIT_E15difference_typeES5_S5_NS_26random_access_iterator_tagE, symObjAddr: 0x1FAD0, symBinAddr: 0x100034D34, symSize: 0x30 }
  - { offsetInCU: 0x2A71F, offset: 0x552F7, size: 0x8, addend: 0x0, symName: __ZNSt3__1miB8ue170006IPcS1_EEDTmicldtfp_4baseEcldtfp0_4baseEERKNS_11__wrap_iterIT_EERKNS3_IT0_EE, symObjAddr: 0x1FB00, symBinAddr: 0x100034D64, symSize: 0x40 }
  - { offsetInCU: 0x2A76B, offset: 0x55343, size: 0x8, addend: 0x0, symName: __ZNSt3__1neB8ue170006IPcEEbRKNS_11__wrap_iterIT_EES6_, symObjAddr: 0x1FB58, symBinAddr: 0x100034DBC, symSize: 0x34 }
  - { offsetInCU: 0x2A7AE, offset: 0x55386, size: 0x8, addend: 0x0, symName: __ZNSt3__1eqB8ue170006IPcEEbRKNS_11__wrap_iterIT_EES6_, symObjAddr: 0x1FBC4, symBinAddr: 0x100034E28, symSize: 0x48 }
  - { offsetInCU: 0x2A816, offset: 0x553EE, size: 0x8, addend: 0x0, symName: __ZNSt3__112construct_atB8ue170006INS_12basic_stringIcNS_11char_traitsIcEENS_9allocatorIcEEEEJRKS6_EPS6_EEPT_SB_DpOT0_, symObjAddr: 0x1FFA8, symBinAddr: 0x10003520C, symSize: 0x3C }
  - { offsetInCU: 0x2A886, offset: 0x5545E, size: 0x8, addend: 0x0, symName: __ZNSt3__119__allocate_at_leastB8ue170006INS_9allocatorINS_12basic_stringIcNS_11char_traitsIcEENS1_IcEEEEEEEENS_19__allocation_resultINS_16allocator_traitsIT_E7pointerEEERSA_m, symObjAddr: 0x20458, symBinAddr: 0x1000356BC, symSize: 0x40 }
  - { offsetInCU: 0x2A8C9, offset: 0x554A1, size: 0x8, addend: 0x0, symName: __ZNSt3__142__uninitialized_allocator_move_if_noexceptB8ue170006INS_9allocatorINS_12basic_stringIcNS_11char_traitsIcEENS1_IcEEEEEENS_16reverse_iteratorIPS6_EESA_SA_EET2_RT_T0_T1_SB_, symObjAddr: 0x20610, symBinAddr: 0x100035874, symSize: 0x12C }
  - { offsetInCU: 0x2A96A, offset: 0x55542, size: 0x8, addend: 0x0, symName: __ZNSt3__14swapB8ue170006IPNS_12basic_stringIcNS_11char_traitsIcEENS_9allocatorIcEEEEEENS_9enable_ifIXaasr21is_move_constructibleIT_EE5valuesr18is_move_assignableIS9_EE5valueEvE4typeERS9_SC_, symObjAddr: 0x20788, symBinAddr: 0x1000359EC, symSize: 0x3C }
  - { offsetInCU: 0x2A9BB, offset: 0x55593, size: 0x8, addend: 0x0, symName: __ZNSt3__122__make_exception_guardB8ue170006INS_29_AllocatorDestroyRangeReverseINS_9allocatorINS_12basic_stringIcNS_11char_traitsIcEENS2_IcEEEEEENS_16reverse_iteratorIPS7_EEEEEENS_28__exception_guard_exceptionsIT_EESE_, symObjAddr: 0x2088C, symBinAddr: 0x100035AF0, symSize: 0x4C }
  - { offsetInCU: 0x2A9F1, offset: 0x555C9, size: 0x8, addend: 0x0, symName: __ZNSt3__1neB8ue170006IPNS_12basic_stringIcNS_11char_traitsIcEENS_9allocatorIcEEEES7_EEbRKNS_16reverse_iteratorIT_EERKNS8_IT0_EE, symObjAddr: 0x2091C, symBinAddr: 0x100035B80, symSize: 0x48 }
  - { offsetInCU: 0x2AA3D, offset: 0x55615, size: 0x8, addend: 0x0, symName: __ZNSt3__112__to_addressB8ue170006INS_16reverse_iteratorIPNS_12basic_stringIcNS_11char_traitsIcEENS_9allocatorIcEEEEEEvEEu7__decayIDTclsr19__to_address_helperIT_EE6__callclsr3stdE7declvalIRKSA_EEEEESC_, symObjAddr: 0x20994, symBinAddr: 0x100035BF8, symSize: 0x24 }
  - { offsetInCU: 0x2AA73, offset: 0x5564B, size: 0x8, addend: 0x0, symName: __ZNSt3__112construct_atB8ue170006INS_12basic_stringIcNS_11char_traitsIcEENS_9allocatorIcEEEEJS6_EPS6_EEPT_S9_DpOT0_, symObjAddr: 0x20AE4, symBinAddr: 0x100035D48, symSize: 0x3C }
  - { offsetInCU: 0x2AB0C, offset: 0x556E4, size: 0x8, addend: 0x0, symName: __ZNSt3__14prevB8ue170006IPNS_12basic_stringIcNS_11char_traitsIcEENS_9allocatorIcEEEEEENS_9enable_ifIXsr29__has_input_iterator_categoryIT_EE5valueES9_E4typeES9_NS_15iterator_traitsIS9_E15difference_typeE, symObjAddr: 0x20B84, symBinAddr: 0x100035DE8, symSize: 0x3C }
  - { offsetInCU: 0x2AB50, offset: 0x55728, size: 0x8, addend: 0x0, symName: __ZNSt3__19__advanceB8ue170006IPNS_12basic_stringIcNS_11char_traitsIcEENS_9allocatorIcEEEEEEvRT_NS_15iterator_traitsIS8_E15difference_typeENS_26random_access_iterator_tagE, symObjAddr: 0x20BF8, symBinAddr: 0x100035E5C, symSize: 0x30 }
  - { offsetInCU: 0x2AB9A, offset: 0x55772, size: 0x8, addend: 0x0, symName: __ZNSt3__119__allocator_destroyB8ue170006INS_9allocatorINS_12basic_stringIcNS_11char_traitsIcEENS1_IcEEEEEENS_16reverse_iteratorINS8_IPS6_EEEESB_EEvRT_T0_T1_, symObjAddr: 0x20D2C, symBinAddr: 0x100035F90, symSize: 0x70 }
  - { offsetInCU: 0x2ABFE, offset: 0x557D6, size: 0x8, addend: 0x0, symName: __ZNSt3__1neB8ue170006INS_16reverse_iteratorIPNS_12basic_stringIcNS_11char_traitsIcEENS_9allocatorIcEEEEEES9_EEbRKNS1_IT_EERKNS1_IT0_EE, symObjAddr: 0x20DD8, symBinAddr: 0x10003603C, symSize: 0x60 }
  - { offsetInCU: 0x2AC4A, offset: 0x55822, size: 0x8, addend: 0x0, symName: __ZNSt3__112__to_addressB8ue170006INS_16reverse_iteratorINS1_IPNS_12basic_stringIcNS_11char_traitsIcEENS_9allocatorIcEEEEEEEEvEEu7__decayIDTclsr19__to_address_helperIT_EE6__callclsr3stdE7declvalIRKSB_EEEEESD_, symObjAddr: 0x20E38, symBinAddr: 0x10003609C, symSize: 0x24 }
  - { offsetInCU: 0x2ACA9, offset: 0x55881, size: 0x8, addend: 0x0, symName: __ZNSt3__14prevB8ue170006INS_16reverse_iteratorIPNS_12basic_stringIcNS_11char_traitsIcEENS_9allocatorIcEEEEEEEENS_9enable_ifIXsr29__has_input_iterator_categoryIT_EE5valueESB_E4typeESB_NS_15iterator_traitsISB_E15difference_typeE, symObjAddr: 0x20F34, symBinAddr: 0x100036198, symSize: 0x4C }
  - { offsetInCU: 0x2ACEC, offset: 0x558C4, size: 0x8, addend: 0x0, symName: __ZNSt3__19__advanceB8ue170006INS_16reverse_iteratorIPNS_12basic_stringIcNS_11char_traitsIcEENS_9allocatorIcEEEEEEEEvRT_NS_15iterator_traitsISA_E15difference_typeENS_26random_access_iterator_tagE, symObjAddr: 0x20FB8, symBinAddr: 0x10003621C, symSize: 0x2C }
  - { offsetInCU: 0x2AD36, offset: 0x5590E, size: 0x8, addend: 0x0, symName: __ZNSt3__119__throw_regex_errorB8ue170006ILNS_15regex_constants10error_typeE2EEEvv, symObjAddr: 0x212C0, symBinAddr: 0x100036524, symSize: 0x60 }
  - { offsetInCU: 0x2AD5B, offset: 0x55933, size: 0x8, addend: 0x0, symName: __ZNSt3__19make_pairB8ue170006INS_12basic_stringIcNS_11char_traitsIcEENS_9allocatorIcEEEES6_EENS_4pairINS_18__unwrap_ref_decayIT_E4typeENS8_IT0_E4typeEEEOS9_OSC_, symObjAddr: 0x2159C, symBinAddr: 0x100036800, symSize: 0x40 }
  - { offsetInCU: 0x2ADAA, offset: 0x55982, size: 0x8, addend: 0x0, symName: __ZNSt3__119__throw_regex_errorB8ue170006ILNS_15regex_constants10error_typeE9EEEvv, symObjAddr: 0x216DC, symBinAddr: 0x100036940, symSize: 0x60 }
  - { offsetInCU: 0x2ADF4, offset: 0x559CC, size: 0x8, addend: 0x0, symName: __ZNSt3__112construct_atB8ue170006INS_4pairINS_12basic_stringIcNS_11char_traitsIcEENS_9allocatorIcEEEES7_EEJS8_EPS8_EEPT_SB_DpOT0_, symObjAddr: 0x219E8, symBinAddr: 0x100036C4C, symSize: 0x3C }
  - { offsetInCU: 0x2AE64, offset: 0x55A3C, size: 0x8, addend: 0x0, symName: __ZNSt3__119__allocate_at_leastB8ue170006INS_9allocatorINS_4pairINS_12basic_stringIcNS_11char_traitsIcEENS1_IcEEEES7_EEEEEENS_19__allocation_resultINS_16allocator_traitsIT_E7pointerEEERSC_m, symObjAddr: 0x21F14, symBinAddr: 0x100037178, symSize: 0x40 }
  - { offsetInCU: 0x2AEA7, offset: 0x55A7F, size: 0x8, addend: 0x0, symName: __ZNSt3__142__uninitialized_allocator_move_if_noexceptB8ue170006INS_9allocatorINS_4pairINS_12basic_stringIcNS_11char_traitsIcEENS1_IcEEEES7_EEEENS_16reverse_iteratorIPS8_EESC_SC_EET2_RT_T0_T1_SD_, symObjAddr: 0x220CC, symBinAddr: 0x100037330, symSize: 0x12C }
  - { offsetInCU: 0x2AF48, offset: 0x55B20, size: 0x8, addend: 0x0, symName: __ZNSt3__14swapB8ue170006IPNS_4pairINS_12basic_stringIcNS_11char_traitsIcEENS_9allocatorIcEEEES7_EEEENS_9enable_ifIXaasr21is_move_constructibleIT_EE5valuesr18is_move_assignableISB_EE5valueEvE4typeERSB_SE_, symObjAddr: 0x22244, symBinAddr: 0x1000374A8, symSize: 0x3C }
  - { offsetInCU: 0x2AF99, offset: 0x55B71, size: 0x8, addend: 0x0, symName: __ZNSt3__122__make_exception_guardB8ue170006INS_29_AllocatorDestroyRangeReverseINS_9allocatorINS_4pairINS_12basic_stringIcNS_11char_traitsIcEENS2_IcEEEES8_EEEENS_16reverse_iteratorIPS9_EEEEEENS_28__exception_guard_exceptionsIT_EESG_, symObjAddr: 0x22348, symBinAddr: 0x1000375AC, symSize: 0x4C }
  - { offsetInCU: 0x2AFCF, offset: 0x55BA7, size: 0x8, addend: 0x0, symName: __ZNSt3__1neB8ue170006IPNS_4pairINS_12basic_stringIcNS_11char_traitsIcEENS_9allocatorIcEEEES7_EES9_EEbRKNS_16reverse_iteratorIT_EERKNSA_IT0_EE, symObjAddr: 0x223D8, symBinAddr: 0x10003763C, symSize: 0x48 }
  - { offsetInCU: 0x2B01B, offset: 0x55BF3, size: 0x8, addend: 0x0, symName: __ZNSt3__112__to_addressB8ue170006INS_16reverse_iteratorIPNS_4pairINS_12basic_stringIcNS_11char_traitsIcEENS_9allocatorIcEEEES8_EEEEvEEu7__decayIDTclsr19__to_address_helperIT_EE6__callclsr3stdE7declvalIRKSC_EEEEESE_, symObjAddr: 0x22420, symBinAddr: 0x100037684, symSize: 0x24 }
  - { offsetInCU: 0x2B07A, offset: 0x55C52, size: 0x8, addend: 0x0, symName: __ZNSt3__14prevB8ue170006IPNS_4pairINS_12basic_stringIcNS_11char_traitsIcEENS_9allocatorIcEEEES7_EEEENS_9enable_ifIXsr29__has_input_iterator_categoryIT_EE5valueESB_E4typeESB_NS_15iterator_traitsISB_E15difference_typeE, symObjAddr: 0x225D4, symBinAddr: 0x100037838, symSize: 0x3C }
  - { offsetInCU: 0x2B0BE, offset: 0x55C96, size: 0x8, addend: 0x0, symName: __ZNSt3__19__advanceB8ue170006IPNS_4pairINS_12basic_stringIcNS_11char_traitsIcEENS_9allocatorIcEEEES7_EEEEvRT_NS_15iterator_traitsISA_E15difference_typeENS_26random_access_iterator_tagE, symObjAddr: 0x22648, symBinAddr: 0x1000378AC, symSize: 0x30 }
  - { offsetInCU: 0x2B108, offset: 0x55CE0, size: 0x8, addend: 0x0, symName: __ZNSt3__119__allocator_destroyB8ue170006INS_9allocatorINS_4pairINS_12basic_stringIcNS_11char_traitsIcEENS1_IcEEEES7_EEEENS_16reverse_iteratorINSA_IPS8_EEEESD_EEvRT_T0_T1_, symObjAddr: 0x2277C, symBinAddr: 0x1000379E0, symSize: 0x70 }
  - { offsetInCU: 0x2B16C, offset: 0x55D44, size: 0x8, addend: 0x0, symName: __ZNSt3__1neB8ue170006INS_16reverse_iteratorIPNS_4pairINS_12basic_stringIcNS_11char_traitsIcEENS_9allocatorIcEEEES8_EEEESB_EEbRKNS1_IT_EERKNS1_IT0_EE, symObjAddr: 0x22828, symBinAddr: 0x100037A8C, symSize: 0x60 }
  - { offsetInCU: 0x2B1B8, offset: 0x55D90, size: 0x8, addend: 0x0, symName: __ZNSt3__112__to_addressB8ue170006INS_16reverse_iteratorINS1_IPNS_4pairINS_12basic_stringIcNS_11char_traitsIcEENS_9allocatorIcEEEES8_EEEEEEvEEu7__decayIDTclsr19__to_address_helperIT_EE6__callclsr3stdE7declvalIRKSD_EEEEESF_, symObjAddr: 0x22888, symBinAddr: 0x100037AEC, symSize: 0x24 }
  - { offsetInCU: 0x2B217, offset: 0x55DEF, size: 0x8, addend: 0x0, symName: __ZNSt3__14prevB8ue170006INS_16reverse_iteratorIPNS_4pairINS_12basic_stringIcNS_11char_traitsIcEENS_9allocatorIcEEEES8_EEEEEENS_9enable_ifIXsr29__has_input_iterator_categoryIT_EE5valueESD_E4typeESD_NS_15iterator_traitsISD_E15difference_typeE, symObjAddr: 0x22984, symBinAddr: 0x100037BE8, symSize: 0x4C }
  - { offsetInCU: 0x2B25A, offset: 0x55E32, size: 0x8, addend: 0x0, symName: __ZNSt3__19__advanceB8ue170006INS_16reverse_iteratorIPNS_4pairINS_12basic_stringIcNS_11char_traitsIcEENS_9allocatorIcEEEES8_EEEEEEvRT_NS_15iterator_traitsISC_E15difference_typeENS_26random_access_iterator_tagE, symObjAddr: 0x22A08, symBinAddr: 0x100037C6C, symSize: 0x2C }
  - { offsetInCU: 0x2B2A4, offset: 0x55E7C, size: 0x8, addend: 0x0, symName: __ZNSt3__19make_pairB8ue170006IccEENS_4pairINS_18__unwrap_ref_decayIT_E4typeENS2_IT0_E4typeEEEOS3_OS6_, symObjAddr: 0x22DFC, symBinAddr: 0x100038060, symSize: 0x34 }
  - { offsetInCU: 0x2B2F3, offset: 0x55ECB, size: 0x8, addend: 0x0, symName: __ZNSt3__19make_pairB8ue170006IRcS1_EENS_4pairINS_18__unwrap_ref_decayIT_E4typeENS3_IT0_E4typeEEEOS4_OS7_, symObjAddr: 0x22E30, symBinAddr: 0x100038094, symSize: 0x34 }
  - { offsetInCU: 0x2B368, offset: 0x55F40, size: 0x8, addend: 0x0, symName: __ZNSt3__112construct_atB8ue170006INS_4pairIccEEJS2_EPS2_EEPT_S5_DpOT0_, symObjAddr: 0x23108, symBinAddr: 0x10003836C, symSize: 0x2C }
  - { offsetInCU: 0x2B3D7, offset: 0x55FAF, size: 0x8, addend: 0x0, symName: __ZNSt3__119__allocate_at_leastB8ue170006INS_9allocatorINS_4pairIccEEEEEENS_19__allocation_resultINS_16allocator_traitsIT_E7pointerEEERS7_m, symObjAddr: 0x2359C, symBinAddr: 0x100038800, symSize: 0x40 }
  - { offsetInCU: 0x2B41A, offset: 0x55FF2, size: 0x8, addend: 0x0, symName: __ZNSt3__142__uninitialized_allocator_move_if_noexceptB8ue170006INS_9allocatorINS_4pairIccEEEENS_16reverse_iteratorIPS3_EES7_S7_EET2_RT_T0_T1_S8_, symObjAddr: 0x23750, symBinAddr: 0x1000389B4, symSize: 0x12C }
  - { offsetInCU: 0x2B4BB, offset: 0x56093, size: 0x8, addend: 0x0, symName: __ZNSt3__14swapB8ue170006IPNS_4pairIccEEEENS_9enable_ifIXaasr21is_move_constructibleIT_EE5valuesr18is_move_assignableIS5_EE5valueEvE4typeERS5_S8_, symObjAddr: 0x238C8, symBinAddr: 0x100038B2C, symSize: 0x3C }
  - { offsetInCU: 0x2B50C, offset: 0x560E4, size: 0x8, addend: 0x0, symName: __ZNSt3__122__make_exception_guardB8ue170006INS_29_AllocatorDestroyRangeReverseINS_9allocatorINS_4pairIccEEEENS_16reverse_iteratorIPS4_EEEEEENS_28__exception_guard_exceptionsIT_EESB_, symObjAddr: 0x239B0, symBinAddr: 0x100038C14, symSize: 0x4C }
  - { offsetInCU: 0x2B542, offset: 0x5611A, size: 0x8, addend: 0x0, symName: __ZNSt3__1neB8ue170006IPNS_4pairIccEES3_EEbRKNS_16reverse_iteratorIT_EERKNS4_IT0_EE, symObjAddr: 0x23A40, symBinAddr: 0x100038CA4, symSize: 0x48 }
  - { offsetInCU: 0x2B58E, offset: 0x56166, size: 0x8, addend: 0x0, symName: __ZNSt3__112__to_addressB8ue170006INS_16reverse_iteratorIPNS_4pairIccEEEEvEEu7__decayIDTclsr19__to_address_helperIT_EE6__callclsr3stdE7declvalIRKS6_EEEEES8_, symObjAddr: 0x23A88, symBinAddr: 0x100038CEC, symSize: 0x24 }
  - { offsetInCU: 0x2B5ED, offset: 0x561C5, size: 0x8, addend: 0x0, symName: __ZNSt3__14prevB8ue170006IPNS_4pairIccEEEENS_9enable_ifIXsr29__has_input_iterator_categoryIT_EE5valueES5_E4typeES5_NS_15iterator_traitsIS5_E15difference_typeE, symObjAddr: 0x23C3C, symBinAddr: 0x100038EA0, symSize: 0x3C }
  - { offsetInCU: 0x2B631, offset: 0x56209, size: 0x8, addend: 0x0, symName: __ZNSt3__19__advanceB8ue170006IPNS_4pairIccEEEEvRT_NS_15iterator_traitsIS4_E15difference_typeENS_26random_access_iterator_tagE, symObjAddr: 0x23CB0, symBinAddr: 0x100038F14, symSize: 0x28 }
  - { offsetInCU: 0x2B67B, offset: 0x56253, size: 0x8, addend: 0x0, symName: __ZNSt3__119__allocator_destroyB8ue170006INS_9allocatorINS_4pairIccEEEENS_16reverse_iteratorINS5_IPS3_EEEES8_EEvRT_T0_T1_, symObjAddr: 0x23DDC, symBinAddr: 0x100039040, symSize: 0x70 }
  - { offsetInCU: 0x2B6DF, offset: 0x562B7, size: 0x8, addend: 0x0, symName: __ZNSt3__1neB8ue170006INS_16reverse_iteratorIPNS_4pairIccEEEES5_EEbRKNS1_IT_EERKNS1_IT0_EE, symObjAddr: 0x23E88, symBinAddr: 0x1000390EC, symSize: 0x60 }
  - { offsetInCU: 0x2B72B, offset: 0x56303, size: 0x8, addend: 0x0, symName: __ZNSt3__112__to_addressB8ue170006INS_16reverse_iteratorINS1_IPNS_4pairIccEEEEEEvEEu7__decayIDTclsr19__to_address_helperIT_EE6__callclsr3stdE7declvalIRKS7_EEEEES9_, symObjAddr: 0x23EE8, symBinAddr: 0x10003914C, symSize: 0x24 }
  - { offsetInCU: 0x2B78A, offset: 0x56362, size: 0x8, addend: 0x0, symName: __ZNSt3__14prevB8ue170006INS_16reverse_iteratorIPNS_4pairIccEEEEEENS_9enable_ifIXsr29__has_input_iterator_categoryIT_EE5valueES7_E4typeES7_NS_15iterator_traitsIS7_E15difference_typeE, symObjAddr: 0x23FE4, symBinAddr: 0x100039248, symSize: 0x4C }
  - { offsetInCU: 0x2B7CD, offset: 0x563A5, size: 0x8, addend: 0x0, symName: __ZNSt3__19__advanceB8ue170006INS_16reverse_iteratorIPNS_4pairIccEEEEEEvRT_NS_15iterator_traitsIS6_E15difference_typeENS_26random_access_iterator_tagE, symObjAddr: 0x24068, symBinAddr: 0x1000392CC, symSize: 0x2C }
  - { offsetInCU: 0x2B925, offset: 0x564FD, size: 0x8, addend: 0x0, symName: __ZNSt3__119__throw_regex_errorB8ue170006ILNS_15regex_constants10error_typeE8EEEvv, symObjAddr: 0x24BD4, symBinAddr: 0x100039E38, symSize: 0x60 }
  - { offsetInCU: 0x2B94A, offset: 0x56522, size: 0x8, addend: 0x0, symName: __ZNSt3__119__throw_regex_errorB8ue170006ILNS_15regex_constants10error_typeE7EEEvv, symObjAddr: 0x24C34, symBinAddr: 0x100039E98, symSize: 0x60 }
  - { offsetInCU: 0x2C297, offset: 0x56E6F, size: 0x8, addend: 0x0, symName: __ZNSt3__119__throw_regex_errorB8ue170006ILNS_15regex_constants10error_typeE15EEEvv, symObjAddr: 0x25C70, symBinAddr: 0x10003AED4, symSize: 0x60 }
  - { offsetInCU: 0x2C331, offset: 0x56F09, size: 0x8, addend: 0x0, symName: __ZNSt3__14findB8ue170006IPKccEET_S3_S3_RKT0_, symObjAddr: 0x273A8, symBinAddr: 0x10003C60C, symSize: 0x60 }
  - { offsetInCU: 0x2C39A, offset: 0x56F72, size: 0x8, addend: 0x0, symName: __ZNSt3__113__rewrap_iterB8ue170006IPKcS2_NS_18__unwrap_iter_implIS2_Lb1EEEEET_S5_T0_, symObjAddr: 0x27408, symBinAddr: 0x10003C66C, symSize: 0x3C }
  - { offsetInCU: 0x2C3EF, offset: 0x56FC7, size: 0x8, addend: 0x0, symName: __ZNSt3__17getlineB8ue170006IcNS_11char_traitsIcEENS_9allocatorIcEEEERNS_13basic_istreamIT_T0_EES9_RNS_12basic_stringIS6_S7_T1_EES6_, symObjAddr: 0x2748C, symBinAddr: 0x10003C6F0, symSize: 0x238 }
  - { offsetInCU: 0x2C4AD, offset: 0x57085, size: 0x8, addend: 0x0, symName: __ZNSt3__111regex_matchB8ue170006INS_11__wrap_iterIPKcEENS_9allocatorINS_9sub_matchIS4_EEEEcNS_12regex_traitsIcEEEEbT_SB_RNS_13match_resultsISB_T0_EERKNS_11basic_regexIT1_T2_EENS_15regex_constants15match_flag_typeE, symObjAddr: 0x27B94, symBinAddr: 0x10003CDF8, symSize: 0xD0 }
  - { offsetInCU: 0x2C54A, offset: 0x57122, size: 0x8, addend: 0x0, symName: __ZNSt3__112regex_searchB8ue170006IPKcNS_9allocatorINS_9sub_matchINS_11__wrap_iterIS2_EEEEEEcNS_12regex_traitsIcEEEEbNS5_IT_EESC_RNS_13match_resultsISC_T0_EERKNS_11basic_regexIT1_T2_EENS_15regex_constants15match_flag_typeE, symObjAddr: 0x27D04, symBinAddr: 0x10003CF68, symSize: 0x124 }
  - { offsetInCU: 0x2C99E, offset: 0x57576, size: 0x8, addend: 0x0, symName: __ZNSt3__14swapB8ue170006IPPNS_7__stateIcEEEENS_9enable_ifIXaasr21is_move_constructibleIT_EE5valuesr18is_move_assignableIS6_EE5valueEvE4typeERS6_S9_, symObjAddr: 0x2B6FC, symBinAddr: 0x10004093C, symSize: 0x3C }
  - { offsetInCU: 0x2C9EF, offset: 0x575C7, size: 0x8, addend: 0x0, symName: __ZNSt3__14moveB8ue170006IPPNS_7__stateIcEES4_EET0_T_S6_S5_, symObjAddr: 0x2B82C, symBinAddr: 0x100040A6C, symSize: 0x40 }
  - { offsetInCU: 0x2CA4A, offset: 0x57622, size: 0x8, addend: 0x0, symName: __ZNSt3__112__to_addressB8ue170006IPNS_7__stateIcEEEEPT_S5_, symObjAddr: 0x2B930, symBinAddr: 0x100040B70, symSize: 0x14 }
  - { offsetInCU: 0x2CA7E, offset: 0x57656, size: 0x8, addend: 0x0, symName: __ZNSt3__16__moveB8ue170006INS_17_ClassicAlgPolicyEPPNS_7__stateIcEES5_S5_EENS_4pairIT0_T2_EES7_T1_S8_, symObjAddr: 0x2B944, symBinAddr: 0x100040B84, symSize: 0x44 }
  - { offsetInCU: 0x2CAEA, offset: 0x576C2, size: 0x8, addend: 0x0, symName: __ZNSt3__123__dispatch_copy_or_moveB8ue170006INS_17_ClassicAlgPolicyENS_11__move_loopIS1_EENS_14__move_trivialEPPNS_7__stateIcEES8_S8_EENS_4pairIT2_T4_EESA_T3_SB_, symObjAddr: 0x2B988, symBinAddr: 0x100040BC8, symSize: 0x44 }
  - { offsetInCU: 0x2CB68, offset: 0x57740, size: 0x8, addend: 0x0, symName: __ZNSt3__121__unwrap_and_dispatchB8ue170006INS_10__overloadINS_11__move_loopINS_17_ClassicAlgPolicyEEENS_14__move_trivialEEEPPNS_7__stateIcEESA_SA_Li0EEENS_4pairIT0_T2_EESC_T1_SD_, symObjAddr: 0x2B9CC, symBinAddr: 0x100040C0C, symSize: 0xB4 }
  - { offsetInCU: 0x2CBF8, offset: 0x577D0, size: 0x8, addend: 0x0, symName: __ZNSt3__114__unwrap_rangeB8ue170006IPPNS_7__stateIcEES4_EEDaT_T0_, symObjAddr: 0x2BA80, symBinAddr: 0x100040CC0, symSize: 0x3C }
  - { offsetInCU: 0x2CDBC, offset: 0x57994, size: 0x8, addend: 0x0, symName: __ZNSt3__113__unwrap_iterB8ue170006IPPNS_7__stateIcEENS_18__unwrap_iter_implIS4_Lb1EEELi0EEEDTclsrT0_8__unwrapclsr3stdE7declvalIT_EEEES8_, symObjAddr: 0x2BB04, symBinAddr: 0x100040D44, symSize: 0x24 }
  - { offsetInCU: 0x2CE00, offset: 0x579D8, size: 0x8, addend: 0x0, symName: __ZNSt3__19make_pairB8ue170006IPPNS_7__stateIcEES4_EENS_4pairINS_18__unwrap_ref_decayIT_E4typeENS6_IT0_E4typeEEEOS7_OSA_, symObjAddr: 0x2BB28, symBinAddr: 0x100040D68, symSize: 0x38 }
  - { offsetInCU: 0x2CE4F, offset: 0x57A27, size: 0x8, addend: 0x0, symName: __ZNSt3__114__rewrap_rangeB8ue170006IPPNS_7__stateIcEES4_S4_EET0_S5_T1_, symObjAddr: 0x2BB60, symBinAddr: 0x100040DA0, symSize: 0x2C }
  - { offsetInCU: 0x2CEA4, offset: 0x57A7C, size: 0x8, addend: 0x0, symName: __ZNSt3__113__rewrap_iterB8ue170006IPPNS_7__stateIcEES4_NS_18__unwrap_iter_implIS4_Lb1EEEEET_S7_T0_, symObjAddr: 0x2BB8C, symBinAddr: 0x100040DCC, symSize: 0x3C }
  - { offsetInCU: 0x2CF49, offset: 0x57B21, size: 0x8, addend: 0x0, symName: __ZNSt3__119__copy_trivial_implB8ue170006IPNS_7__stateIcEES3_EENS_4pairIPT_PT0_EES6_S6_S8_, symObjAddr: 0x2BC90, symBinAddr: 0x100040ED0, symSize: 0x80 }
  - { offsetInCU: 0x2CFB2, offset: 0x57B8A, size: 0x8, addend: 0x0, symName: __ZNSt3__119__constexpr_memmoveB8ue170006IPNS_7__stateIcEES3_Li0EEEPT_S5_PT0_NS_15__element_countE, symObjAddr: 0x2BD10, symBinAddr: 0x100040F50, symSize: 0x64 }
  - { offsetInCU: 0x2D021, offset: 0x57BF9, size: 0x8, addend: 0x0, symName: __ZNSt3__19make_pairB8ue170006IRPPNS_7__stateIcEES4_EENS_4pairINS_18__unwrap_ref_decayIT_E4typeENS7_IT0_E4typeEEEOS8_OSB_, symObjAddr: 0x2BD74, symBinAddr: 0x100040FB4, symSize: 0x38 }
  - { offsetInCU: 0x2D0C3, offset: 0x57C9B, size: 0x8, addend: 0x0, symName: __ZNSt3__18distanceB8ue170006INS_13move_iteratorIPPNS_7__stateIcEEEEEENS_15iterator_traitsIT_E15difference_typeES8_S8_, symObjAddr: 0x2BF98, symBinAddr: 0x1000411D8, symSize: 0x3C }
  - { offsetInCU: 0x2D12C, offset: 0x57D04, size: 0x8, addend: 0x0, symName: __ZNSt3__112construct_atB8ue170006IPNS_7__stateIcEEJS3_EPS3_EEPT_S6_DpOT0_, symObjAddr: 0x2C124, symBinAddr: 0x100041364, symSize: 0x2C }
  - { offsetInCU: 0x2D19B, offset: 0x57D73, size: 0x8, addend: 0x0, symName: __ZNSt3__110__distanceB8ue170006INS_13move_iteratorIPPNS_7__stateIcEEEEEENS_15iterator_traitsIT_E15difference_typeES8_S8_NS_26random_access_iterator_tagE, symObjAddr: 0x2C1CC, symBinAddr: 0x10004140C, symSize: 0x30 }
  - { offsetInCU: 0x2D1E9, offset: 0x57DC1, size: 0x8, addend: 0x0, symName: __ZNSt3__1miB8ue170006IPPNS_7__stateIcEES4_EEDTmicldtfp_4baseEcldtfp0_4baseEERKNS_13move_iteratorIT_EERKNS6_IT0_EE, symObjAddr: 0x2C1FC, symBinAddr: 0x10004143C, symSize: 0x4C }
  - { offsetInCU: 0x2D239, offset: 0x57E11, size: 0x8, addend: 0x0, symName: __ZNSt3__112construct_atB8ue170006IPNS_7__stateIcEEJRKS3_EPS3_EEPT_S8_DpOT0_, symObjAddr: 0x2C27C, symBinAddr: 0x1000414BC, symSize: 0x2C }
  - { offsetInCU: 0x2D2A8, offset: 0x57E80, size: 0x8, addend: 0x0, symName: __ZNSt3__113move_backwardB8ue170006IPPNS_7__stateIcEES4_EET0_T_S6_S5_, symObjAddr: 0x2C308, symBinAddr: 0x100041548, symSize: 0x40 }
  - { offsetInCU: 0x2D302, offset: 0x57EDA, size: 0x8, addend: 0x0, symName: __ZNSt3__115__move_backwardB8ue170006INS_17_ClassicAlgPolicyEPPNS_7__stateIcEES5_S5_EENS_4pairIT0_T2_EES7_T1_S8_, symObjAddr: 0x2C348, symBinAddr: 0x100041588, symSize: 0x44 }
  - { offsetInCU: 0x2D36E, offset: 0x57F46, size: 0x8, addend: 0x0, symName: __ZNSt3__123__dispatch_copy_or_moveB8ue170006INS_17_ClassicAlgPolicyENS_20__move_backward_loopIS1_EENS_23__move_backward_trivialEPPNS_7__stateIcEES8_S8_EENS_4pairIT2_T4_EESA_T3_SB_, symObjAddr: 0x2C38C, symBinAddr: 0x1000415CC, symSize: 0x44 }
  - { offsetInCU: 0x2D3EC, offset: 0x57FC4, size: 0x8, addend: 0x0, symName: __ZNSt3__121__unwrap_and_dispatchB8ue170006INS_10__overloadINS_20__move_backward_loopINS_17_ClassicAlgPolicyEEENS_23__move_backward_trivialEEEPPNS_7__stateIcEESA_SA_Li0EEENS_4pairIT0_T2_EESC_T1_SD_, symObjAddr: 0x2C3D0, symBinAddr: 0x100041610, symSize: 0xB4 }
  - { offsetInCU: 0x2D4C2, offset: 0x5809A, size: 0x8, addend: 0x0, symName: __ZNSt3__128__copy_backward_trivial_implB8ue170006IPNS_7__stateIcEES3_EENS_4pairIPT_PT0_EES6_S6_S8_, symObjAddr: 0x2C4CC, symBinAddr: 0x10004170C, symSize: 0x90 }
  - { offsetInCU: 0x2D52B, offset: 0x58103, size: 0x8, addend: 0x0, symName: __ZNSt3__19make_pairB8ue170006IRPPNS_7__stateIcEES5_EENS_4pairINS_18__unwrap_ref_decayIT_E4typeENS7_IT0_E4typeEEEOS8_OSB_, symObjAddr: 0x2C55C, symBinAddr: 0x10004179C, symSize: 0x38 }
  - { offsetInCU: 0x2D57A, offset: 0x58152, size: 0x8, addend: 0x0, symName: __ZNSt3__119__allocate_at_leastB8ue170006INS_9allocatorIPNS_7__stateIcEEEEEENS_19__allocation_resultINS_16allocator_traitsIT_E7pointerEEERS8_m, symObjAddr: 0x2C790, symBinAddr: 0x1000419D0, symSize: 0x40 }
  - { offsetInCU: 0x2D5BD, offset: 0x58195, size: 0x8, addend: 0x0, symName: __ZNSt3__110destroy_atB8ue170006IPNS_7__stateIcEELi0EEEvPT_, symObjAddr: 0x2CDB0, symBinAddr: 0x100041FF0, symSize: 0x24 }
  - { offsetInCU: 0x2D5F5, offset: 0x581CD, size: 0x8, addend: 0x0, symName: __ZNSt3__112__destroy_atB8ue170006IPNS_7__stateIcEELi0EEEvPT_, symObjAddr: 0x2CDD4, symBinAddr: 0x100042014, symSize: 0x10 }
  - { offsetInCU: 0x2D62B, offset: 0x58203, size: 0x8, addend: 0x0, symName: __ZNSt3__1neB8ue170006ERKNS_16__deque_iteratorINS_7__stateIcEEPS2_RS2_PS3_lLl42EEES8_, symObjAddr: 0x2D328, symBinAddr: 0x100042568, symSize: 0x34 }
  - { offsetInCU: 0x2D668, offset: 0x58240, size: 0x8, addend: 0x0, symName: __ZNSt3__1eqB8ue170006ERKNS_16__deque_iteratorINS_7__stateIcEEPS2_RS2_PS3_lLl42EEES8_, symObjAddr: 0x2D3CC, symBinAddr: 0x10004260C, symSize: 0x30 }
  - { offsetInCU: 0x2D6A5, offset: 0x5827D, size: 0x8, addend: 0x0, symName: __ZNSt3__18distanceB8ue170006IPNS_9sub_matchIPKcEEEENS_15iterator_traitsIT_E15difference_typeES7_S7_, symObjAddr: 0x2E230, symBinAddr: 0x100043470, symSize: 0x2C }
  - { offsetInCU: 0x2D6E8, offset: 0x582C0, size: 0x8, addend: 0x0, symName: __ZNSt3__14nextB8ue170006IPNS_9sub_matchIPKcEEEENS_9enable_ifIXsr29__has_input_iterator_categoryIT_EE5valueES7_E4typeES7_NS_15iterator_traitsIS7_E15difference_typeE, symObjAddr: 0x2E25C, symBinAddr: 0x10004349C, symSize: 0x34 }
  - { offsetInCU: 0x2D72B, offset: 0x58303, size: 0x8, addend: 0x0, symName: __ZNSt3__14copyB8ue170006IPNS_9sub_matchIPKcEES5_EET0_T_S7_S6_, symObjAddr: 0x2E290, symBinAddr: 0x1000434D0, symSize: 0x40 }
  - { offsetInCU: 0x2D785, offset: 0x5835D, size: 0x8, addend: 0x0, symName: __ZNSt3__16__copyB8ue170006INS_17_ClassicAlgPolicyEPNS_9sub_matchIPKcEES6_S6_EENS_4pairIT0_T2_EES8_T1_S9_, symObjAddr: 0x2E2D0, symBinAddr: 0x100043510, symSize: 0x44 }
  - { offsetInCU: 0x2D7F1, offset: 0x583C9, size: 0x8, addend: 0x0, symName: __ZNSt3__123__dispatch_copy_or_moveB8ue170006INS_17_ClassicAlgPolicyENS_11__copy_loopIS1_EENS_14__copy_trivialEPNS_9sub_matchIPKcEES9_S9_EENS_4pairIT2_T4_EESB_T3_SC_, symObjAddr: 0x2E314, symBinAddr: 0x100043554, symSize: 0x44 }
  - { offsetInCU: 0x2D86F, offset: 0x58447, size: 0x8, addend: 0x0, symName: __ZNSt3__121__unwrap_and_dispatchB8ue170006INS_10__overloadINS_11__copy_loopINS_17_ClassicAlgPolicyEEENS_14__copy_trivialEEEPNS_9sub_matchIPKcEESB_SB_Li0EEENS_4pairIT0_T2_EESD_T1_SE_, symObjAddr: 0x2E358, symBinAddr: 0x100043598, symSize: 0xB4 }
  - { offsetInCU: 0x2D990, offset: 0x58568, size: 0x8, addend: 0x0, symName: __ZNSt3__19make_pairB8ue170006IPNS_9sub_matchIPKcEES5_EENS_4pairINS_18__unwrap_ref_decayIT_E4typeENS7_IT0_E4typeEEEOS8_OSB_, symObjAddr: 0x2E494, symBinAddr: 0x1000436D4, symSize: 0x38 }
  - { offsetInCU: 0x2D9DF, offset: 0x585B7, size: 0x8, addend: 0x0, symName: __ZNSt3__114__rewrap_rangeB8ue170006IPNS_9sub_matchIPKcEES5_S5_EET0_S6_T1_, symObjAddr: 0x2E4CC, symBinAddr: 0x10004370C, symSize: 0x2C }
  - { offsetInCU: 0x2DA35, offset: 0x5860D, size: 0x8, addend: 0x0, symName: __ZNSt3__110__distanceB8ue170006IPNS_9sub_matchIPKcEEEENS_15iterator_traitsIT_E15difference_typeES7_S7_NS_26random_access_iterator_tagE, symObjAddr: 0x2E524, symBinAddr: 0x100043764, symSize: 0x28 }
  - { offsetInCU: 0x2DA82, offset: 0x5865A, size: 0x8, addend: 0x0, symName: __ZNSt3__18distanceB8ue170006IPNS_4pairImPKcEEEENS_15iterator_traitsIT_E15difference_typeES7_S7_, symObjAddr: 0x2E74C, symBinAddr: 0x10004398C, symSize: 0x2C }
  - { offsetInCU: 0x2DAC5, offset: 0x5869D, size: 0x8, addend: 0x0, symName: __ZNSt3__14nextB8ue170006IPNS_4pairImPKcEEEENS_9enable_ifIXsr29__has_input_iterator_categoryIT_EE5valueES7_E4typeES7_NS_15iterator_traitsIS7_E15difference_typeE, symObjAddr: 0x2E778, symBinAddr: 0x1000439B8, symSize: 0x34 }
  - { offsetInCU: 0x2DB08, offset: 0x586E0, size: 0x8, addend: 0x0, symName: __ZNSt3__14copyB8ue170006IPNS_4pairImPKcEES5_EET0_T_S7_S6_, symObjAddr: 0x2E7AC, symBinAddr: 0x1000439EC, symSize: 0x40 }
  - { offsetInCU: 0x2DB62, offset: 0x5873A, size: 0x8, addend: 0x0, symName: __ZNSt3__16__copyB8ue170006INS_17_ClassicAlgPolicyEPNS_4pairImPKcEES6_S6_EENS2_IT0_T2_EES7_T1_S8_, symObjAddr: 0x2E7EC, symBinAddr: 0x100043A2C, symSize: 0x44 }
  - { offsetInCU: 0x2DBCE, offset: 0x587A6, size: 0x8, addend: 0x0, symName: __ZNSt3__123__dispatch_copy_or_moveB8ue170006INS_17_ClassicAlgPolicyENS_11__copy_loopIS1_EENS_14__copy_trivialEPNS_4pairImPKcEES9_S9_EENS5_IT2_T4_EESA_T3_SB_, symObjAddr: 0x2E8C4, symBinAddr: 0x100043B04, symSize: 0x44 }
  - { offsetInCU: 0x2DC4C, offset: 0x58824, size: 0x8, addend: 0x0, symName: __ZNSt3__121__unwrap_and_dispatchB8ue170006INS_10__overloadINS_11__copy_loopINS_17_ClassicAlgPolicyEEENS_14__copy_trivialEEEPNS_4pairImPKcEESB_SB_Li0EEENS7_IT0_T2_EESC_T1_SD_, symObjAddr: 0x2E908, symBinAddr: 0x100043B48, symSize: 0xB4 }
  - { offsetInCU: 0x2DCDC, offset: 0x588B4, size: 0x8, addend: 0x0, symName: __ZNSt3__19make_pairB8ue170006IPNS_4pairImPKcEES5_EENS1_INS_18__unwrap_ref_decayIT_E4typeENS6_IT0_E4typeEEEOS7_OSA_, symObjAddr: 0x2EA44, symBinAddr: 0x100043C84, symSize: 0x38 }
  - { offsetInCU: 0x2DD2B, offset: 0x58903, size: 0x8, addend: 0x0, symName: __ZNSt3__114__rewrap_rangeB8ue170006IPNS_4pairImPKcEES5_S5_EET0_S6_T1_, symObjAddr: 0x2EA7C, symBinAddr: 0x100043CBC, symSize: 0x2C }
  - { offsetInCU: 0x2DD81, offset: 0x58959, size: 0x8, addend: 0x0, symName: __ZNSt3__110__distanceB8ue170006IPNS_4pairImPKcEEEENS_15iterator_traitsIT_E15difference_typeES7_S7_NS_26random_access_iterator_tagE, symObjAddr: 0x2EB48, symBinAddr: 0x100043D88, symSize: 0x28 }
  - { offsetInCU: 0x2DDCE, offset: 0x589A6, size: 0x8, addend: 0x0, symName: __ZNSt3__14nextB8ue170006INS_11__wrap_iterIPKcEEEENS_9enable_ifIXsr29__has_input_iterator_categoryIT_EE5valueES6_E4typeES6_NS_15iterator_traitsIS6_E15difference_typeE, symObjAddr: 0x2EC50, symBinAddr: 0x100043E90, symSize: 0x3C }
  - { offsetInCU: 0x2DE36, offset: 0x58A0E, size: 0x8, addend: 0x0, symName: __ZNSt3__112construct_atB8ue170006INS_9sub_matchINS_11__wrap_iterIPKcEEEEJEPS6_EEPT_S9_DpOT0_, symObjAddr: 0x2F32C, symBinAddr: 0x10004456C, symSize: 0x34 }
  - { offsetInCU: 0x2DE92, offset: 0x58A6A, size: 0x8, addend: 0x0, symName: __ZNSt3__119__allocate_at_leastB8ue170006INS_9allocatorINS_9sub_matchINS_11__wrap_iterIPKcEEEEEEEENS_19__allocation_resultINS_16allocator_traitsIT_E7pointerEEERSB_m, symObjAddr: 0x2F5A0, symBinAddr: 0x1000447E0, symSize: 0x40 }
  - { offsetInCU: 0x2DED5, offset: 0x58AAD, size: 0x8, addend: 0x0, symName: __ZNSt3__142__uninitialized_allocator_move_if_noexceptB8ue170006INS_9allocatorINS_9sub_matchINS_11__wrap_iterIPKcEEEEEENS_16reverse_iteratorIPS7_EESB_SB_EET2_RT_T0_T1_SC_, symObjAddr: 0x2F82C, symBinAddr: 0x100044A6C, symSize: 0x12C }
  - { offsetInCU: 0x2DF76, offset: 0x58B4E, size: 0x8, addend: 0x0, symName: __ZNSt3__14swapB8ue170006IPNS_9sub_matchINS_11__wrap_iterIPKcEEEEEENS_9enable_ifIXaasr21is_move_constructibleIT_EE5valuesr18is_move_assignableIS9_EE5valueEvE4typeERS9_SC_, symObjAddr: 0x2F9A4, symBinAddr: 0x100044BE4, symSize: 0x3C }
  - { offsetInCU: 0x2DFC7, offset: 0x58B9F, size: 0x8, addend: 0x0, symName: __ZNSt3__122__make_exception_guardB8ue170006INS_29_AllocatorDestroyRangeReverseINS_9allocatorINS_9sub_matchINS_11__wrap_iterIPKcEEEEEENS_16reverse_iteratorIPS8_EEEEEENS_28__exception_guard_exceptionsIT_EESF_, symObjAddr: 0x2FAA8, symBinAddr: 0x100044CE8, symSize: 0x4C }
  - { offsetInCU: 0x2DFFD, offset: 0x58BD5, size: 0x8, addend: 0x0, symName: __ZNSt3__1neB8ue170006IPNS_9sub_matchINS_11__wrap_iterIPKcEEEES7_EEbRKNS_16reverse_iteratorIT_EERKNS8_IT0_EE, symObjAddr: 0x2FB38, symBinAddr: 0x100044D78, symSize: 0x48 }
  - { offsetInCU: 0x2E049, offset: 0x58C21, size: 0x8, addend: 0x0, symName: __ZNSt3__112__to_addressB8ue170006INS_16reverse_iteratorIPNS_9sub_matchINS_11__wrap_iterIPKcEEEEEEvEEu7__decayIDTclsr19__to_address_helperIT_EE6__callclsr3stdE7declvalIRKSA_EEEEESC_, symObjAddr: 0x2FBB0, symBinAddr: 0x100044DF0, symSize: 0x24 }
  - { offsetInCU: 0x2E080, offset: 0x58C58, size: 0x8, addend: 0x0, symName: __ZNSt3__112construct_atB8ue170006INS_9sub_matchINS_11__wrap_iterIPKcEEEEJS6_EPS6_EEPT_S9_DpOT0_, symObjAddr: 0x2FD00, symBinAddr: 0x100044F40, symSize: 0x34 }
  - { offsetInCU: 0x2E118, offset: 0x58CF0, size: 0x8, addend: 0x0, symName: __ZNSt3__14prevB8ue170006IPNS_9sub_matchINS_11__wrap_iterIPKcEEEEEENS_9enable_ifIXsr29__has_input_iterator_categoryIT_EE5valueES9_E4typeES9_NS_15iterator_traitsIS9_E15difference_typeE, symObjAddr: 0x2FD98, symBinAddr: 0x100044FD8, symSize: 0x3C }
  - { offsetInCU: 0x2E15C, offset: 0x58D34, size: 0x8, addend: 0x0, symName: __ZNSt3__19__advanceB8ue170006IPNS_9sub_matchINS_11__wrap_iterIPKcEEEEEEvRT_NS_15iterator_traitsIS8_E15difference_typeENS_26random_access_iterator_tagE, symObjAddr: 0x2FE0C, symBinAddr: 0x10004504C, symSize: 0x30 }
  - { offsetInCU: 0x2E1A6, offset: 0x58D7E, size: 0x8, addend: 0x0, symName: __ZNSt3__119__allocator_destroyB8ue170006INS_9allocatorINS_9sub_matchINS_11__wrap_iterIPKcEEEEEENS_16reverse_iteratorINS9_IPS7_EEEESC_EEvRT_T0_T1_, symObjAddr: 0x2FF40, symBinAddr: 0x100045180, symSize: 0x70 }
  - { offsetInCU: 0x2E20A, offset: 0x58DE2, size: 0x8, addend: 0x0, symName: __ZNSt3__1neB8ue170006INS_16reverse_iteratorIPNS_9sub_matchINS_11__wrap_iterIPKcEEEEEES9_EEbRKNS1_IT_EERKNS1_IT0_EE, symObjAddr: 0x2FFEC, symBinAddr: 0x10004522C, symSize: 0x60 }
  - { offsetInCU: 0x2E256, offset: 0x58E2E, size: 0x8, addend: 0x0, symName: __ZNSt3__112__to_addressB8ue170006INS_16reverse_iteratorINS1_IPNS_9sub_matchINS_11__wrap_iterIPKcEEEEEEEEvEEu7__decayIDTclsr19__to_address_helperIT_EE6__callclsr3stdE7declvalIRKSB_EEEEESD_, symObjAddr: 0x3004C, symBinAddr: 0x10004528C, symSize: 0x24 }
  - { offsetInCU: 0x2E2B5, offset: 0x58E8D, size: 0x8, addend: 0x0, symName: __ZNSt3__14prevB8ue170006INS_16reverse_iteratorIPNS_9sub_matchINS_11__wrap_iterIPKcEEEEEEEENS_9enable_ifIXsr29__has_input_iterator_categoryIT_EE5valueESB_E4typeESB_NS_15iterator_traitsISB_E15difference_typeE, symObjAddr: 0x30148, symBinAddr: 0x100045388, symSize: 0x4C }
  - { offsetInCU: 0x2E2F8, offset: 0x58ED0, size: 0x8, addend: 0x0, symName: __ZNSt3__19__advanceB8ue170006INS_16reverse_iteratorIPNS_9sub_matchINS_11__wrap_iterIPKcEEEEEEEEvRT_NS_15iterator_traitsISA_E15difference_typeENS_26random_access_iterator_tagE, symObjAddr: 0x301CC, symBinAddr: 0x10004540C, symSize: 0x2C }
  - { offsetInCU: 0x2E342, offset: 0x58F1A, size: 0x8, addend: 0x0, symName: __ZNSt3__19__advanceB8ue170006INS_11__wrap_iterIPKcEEEEvRT_NS_15iterator_traitsIS5_E15difference_typeENS_26random_access_iterator_tagE, symObjAddr: 0x30590, symBinAddr: 0x1000457D0, symSize: 0x2C }
  - { offsetInCU: 0x2E38C, offset: 0x58F64, size: 0x8, addend: 0x0, symName: __ZNSt3__18distanceB8ue170006INS_11__wrap_iterIPKcEEEENS_15iterator_traitsIT_E15difference_typeES6_S6_, symObjAddr: 0x30790, symBinAddr: 0x1000459D0, symSize: 0x3C }
  - { offsetInCU: 0x2E3CF, offset: 0x58FA7, size: 0x8, addend: 0x0, symName: __ZNSt3__110__distanceB8ue170006INS_11__wrap_iterIPKcEEEENS_15iterator_traitsIT_E15difference_typeES6_S6_NS_26random_access_iterator_tagE, symObjAddr: 0x30918, symBinAddr: 0x100045B58, symSize: 0x30 }
  - { offsetInCU: 0x2E41D, offset: 0x58FF5, size: 0x8, addend: 0x0, symName: __ZNSt3__1miB8ue170006IPKcS2_EEDTmicldtfp_4baseEcldtfp0_4baseEERKNS_11__wrap_iterIT_EERKNS4_IT0_EE, symObjAddr: 0x30948, symBinAddr: 0x100045B88, symSize: 0x40 }
  - { offsetInCU: 0x3050D, offset: 0x5B0E5, size: 0x8, addend: 0x0, symName: __ZNSt3__16vectorIcNS_9allocatorIcEEE26__swap_out_circular_bufferERNS_14__split_bufferIcRS2_EE, symObjAddr: 0x2330, symBinAddr: 0x10001ABCC, symSize: 0x110 }
  - { offsetInCU: 0x30C9F, offset: 0x5B877, size: 0x8, addend: 0x0, symName: __ZNSt3__16vectorINS_7__stateIcEENS_9allocatorIS2_EEE26__swap_out_circular_bufferERNS_14__split_bufferIS2_RS4_EE, symObjAddr: 0x107E8, symBinAddr: 0x100025A4C, symSize: 0x110 }
  - { offsetInCU: 0x30D44, offset: 0x5B91C, size: 0x8, addend: 0x0, symName: __ZNSt3__16vectorINS_9sub_matchIPKcEENS_9allocatorIS4_EEE26__swap_out_circular_bufferERNS_14__split_bufferIS4_RS6_EE, symObjAddr: 0x12570, symBinAddr: 0x1000277D4, symSize: 0x110 }
  - { offsetInCU: 0x30DE3, offset: 0x5B9BB, size: 0x8, addend: 0x0, symName: __ZNSt3__16vectorINS_4pairImPKcEENS_9allocatorIS4_EEE26__swap_out_circular_bufferERNS_14__split_bufferIS4_RS6_EE, symObjAddr: 0x13914, symBinAddr: 0x100028B78, symSize: 0x110 }
  - { offsetInCU: 0x31453, offset: 0x5C02B, size: 0x8, addend: 0x0, symName: __ZNSt3__16vectorINS_12basic_stringIcNS_11char_traitsIcEENS_9allocatorIcEEEENS4_IS6_EEE26__swap_out_circular_bufferERNS_14__split_bufferIS6_RS7_EE, symObjAddr: 0x200FC, symBinAddr: 0x100035360, symSize: 0x110 }
  - { offsetInCU: 0x314F2, offset: 0x5C0CA, size: 0x8, addend: 0x0, symName: __ZNSt3__16vectorINS_4pairINS_12basic_stringIcNS_11char_traitsIcEENS_9allocatorIcEEEES7_EENS5_IS8_EEE26__swap_out_circular_bufferERNS_14__split_bufferIS8_RS9_EE, symObjAddr: 0x21BB8, symBinAddr: 0x100036E1C, symSize: 0x110 }
  - { offsetInCU: 0x31591, offset: 0x5C169, size: 0x8, addend: 0x0, symName: __ZNSt3__16vectorINS_4pairIccEENS_9allocatorIS2_EEE26__swap_out_circular_bufferERNS_14__split_bufferIS2_RS4_EE, symObjAddr: 0x2324C, symBinAddr: 0x1000384B0, symSize: 0x110 }
  - { offsetInCU: 0x316DD, offset: 0x5C2B5, size: 0x8, addend: 0x0, symName: __ZNSt3__16vectorINS_9sub_matchINS_11__wrap_iterIPKcEEEENS_9allocatorIS6_EEE26__swap_out_circular_bufferERNS_14__split_bufferIS6_RS8_EE, symObjAddr: 0x2F0DC, symBinAddr: 0x10004431C, symSize: 0x110 }
  - { offsetInCU: 0x33D56, offset: 0x5E92E, size: 0x8, addend: 0x0, symName: __ZN9Simulator3runEv, symObjAddr: 0x0, symBinAddr: 0x1000189E0, symSize: 0x68C }
  - { offsetInCU: 0x33DE3, offset: 0x5E9BB, size: 0x8, addend: 0x0, symName: __ZNSt3__16vectorIcNS_9allocatorIcEEEC1B8ue170006Ev, symObjAddr: 0x6A4, symBinAddr: 0x100019084, symSize: 0x2C }
  - { offsetInCU: 0x33E0D, offset: 0x5E9E5, size: 0x8, addend: 0x0, symName: __ZNSt3__16vectorIcNS_9allocatorIcEEE7reserveEm, symObjAddr: 0x6D0, symBinAddr: 0x1000190B0, symSize: 0xE8 }
  - { offsetInCU: 0x33E69, offset: 0x5EA41, size: 0x8, addend: 0x0, symName: __ZNSt3__16vectorIcNS_9allocatorIcEEE9push_backB8ue170006EOc, symObjAddr: 0x7B8, symBinAddr: 0x100019198, symSize: 0x6C }
  - { offsetInCU: 0x33EA0, offset: 0x5EA78, size: 0x8, addend: 0x0, symName: __ZN9Simulator15decreaseBatteryEv, symObjAddr: 0x824, symBinAddr: 0x100019204, symSize: 0xA4 }
  - { offsetInCU: 0x33EC8, offset: 0x5EAA0, size: 0x8, addend: 0x0, symName: __ZN9Simulator6chargeEv, symObjAddr: 0x8C8, symBinAddr: 0x1000192A8, symSize: 0x6C }
  - { offsetInCU: 0x33FA1, offset: 0x5EB79, size: 0x8, addend: 0x0, symName: __ZNSt3__114basic_ofstreamIcNS_11char_traitsIcEEEC1ERKNS_12basic_stringIcS2_NS_9allocatorIcEEEEj, symObjAddr: 0x934, symBinAddr: 0x100019314, symSize: 0x16C }
  - { offsetInCU: 0x33FEB, offset: 0x5EBC3, size: 0x8, addend: 0x0, symName: __ZNKSt3__19basic_iosIcNS_11char_traitsIcEEEntB8ue170006Ev, symObjAddr: 0xAA0, symBinAddr: 0x100019480, symSize: 0x28 }
  - { offsetInCU: 0x34011, offset: 0x5EBE9, size: 0x8, addend: 0x0, symName: __ZNKSt3__16vectorIcNS_9allocatorIcEEE4sizeB8ue170006Ev, symObjAddr: 0xB94, symBinAddr: 0x1000194A8, symSize: 0x20 }
  - { offsetInCU: 0x34037, offset: 0x5EC0F, size: 0x8, addend: 0x0, symName: __ZNSt3__16vectorIcNS_9allocatorIcEEEixB8ue170006Em, symObjAddr: 0xBE8, symBinAddr: 0x1000194FC, symSize: 0x24 }
  - { offsetInCU: 0x3406E, offset: 0x5EC46, size: 0x8, addend: 0x0, symName: __ZNSt3__114basic_ofstreamIcNS_11char_traitsIcEEE5closeEv, symObjAddr: 0xC0C, symBinAddr: 0x100019520, symSize: 0x58 }
  - { offsetInCU: 0x3409C, offset: 0x5EC74, size: 0x8, addend: 0x0, symName: __ZNSt3__114basic_ofstreamIcNS_11char_traitsIcEEED1Ev, symObjAddr: 0xC64, symBinAddr: 0x100019578, symSize: 0x40 }
  - { offsetInCU: 0x340C9, offset: 0x5ECA1, size: 0x8, addend: 0x0, symName: __ZNSt3__16vectorIcNS_9allocatorIcEEED1B8ue170006Ev, symObjAddr: 0xCA4, symBinAddr: 0x1000195B8, symSize: 0x2C }
  - { offsetInCU: 0x340F3, offset: 0x5ECCB, size: 0x8, addend: 0x0, symName: __ZN9Simulator13readHouseFileENSt3__112basic_stringIcNS0_11char_traitsIcEENS0_9allocatorIcEEEE, symObjAddr: 0xCD0, symBinAddr: 0x1000195E4, symSize: 0xB24 }
  - { offsetInCU: 0x3434A, offset: 0x5EF22, size: 0x8, addend: 0x0, symName: __ZNSt3__114basic_ifstreamIcNS_11char_traitsIcEEEC1ERKNS_12basic_stringIcS2_NS_9allocatorIcEEEEj, symObjAddr: 0x17F4, symBinAddr: 0x10001A108, symSize: 0x16C }
  - { offsetInCU: 0x34394, offset: 0x5EF6C, size: 0x8, addend: 0x0, symName: __ZNSt3__114basic_ifstreamIcNS_11char_traitsIcEEE5closeEv, symObjAddr: 0x19AC, symBinAddr: 0x10001A2C0, symSize: 0x58 }
  - { offsetInCU: 0x343BC, offset: 0x5EF94, size: 0x8, addend: 0x0, symName: __ZNSt3__112basic_stringIcNS_11char_traitsIcEENS_9allocatorIcEEEC1B8ue170006Ev, symObjAddr: 0x1A04, symBinAddr: 0x10001A318, symSize: 0x2C }
  - { offsetInCU: 0x343E6, offset: 0x5EFBE, size: 0x8, addend: 0x0, symName: __ZNSt3__111basic_regexIcNS_12regex_traitsIcEEEC1B8ue170006EPKcNS_15regex_constants18syntax_option_typeE, symObjAddr: 0x1A30, symBinAddr: 0x10001A344, symSize: 0x3C }
  - { offsetInCU: 0x34434, offset: 0x5F00C, size: 0x8, addend: 0x0, symName: __ZNSt3__111basic_regexIcNS_12regex_traitsIcEEEC1ERKS3_, symObjAddr: 0x1A6C, symBinAddr: 0x10001A380, symSize: 0x34 }
  - { offsetInCU: 0x344A2, offset: 0x5F07A, size: 0x8, addend: 0x0, symName: __ZNSt3__113match_resultsINS_11__wrap_iterIPKcEENS_9allocatorINS_9sub_matchIS4_EEEEEC1Ev, symObjAddr: 0x1AFC, symBinAddr: 0x10001A410, symSize: 0x40 }
  - { offsetInCU: 0x344CC, offset: 0x5F0A4, size: 0x8, addend: 0x0, symName: __ZNKSt3__113match_resultsINS_11__wrap_iterIPKcEENS_9allocatorINS_9sub_matchIS4_EEEEEixB8ue170006Em, symObjAddr: 0x1B98, symBinAddr: 0x10001A4AC, symSize: 0x70 }
  - { offsetInCU: 0x34501, offset: 0x5F0D9, size: 0x8, addend: 0x0, symName: __ZNKSt3__19sub_matchINS_11__wrap_iterIPKcEEEcvNS_12basic_stringIcNS_11char_traitsIcEENS_9allocatorIcEEEEB8ue170006Ev, symObjAddr: 0x1C08, symBinAddr: 0x10001A51C, symSize: 0x2C }
  - { offsetInCU: 0x3452D, offset: 0x5F105, size: 0x8, addend: 0x0, symName: __ZNSt3__113match_resultsINS_11__wrap_iterIPKcEENS_9allocatorINS_9sub_matchIS4_EEEEED1Ev, symObjAddr: 0x1C40, symBinAddr: 0x10001A548, symSize: 0x2C }
  - { offsetInCU: 0x3455A, offset: 0x5F132, size: 0x8, addend: 0x0, symName: __ZNKSt3__19basic_iosIcNS_11char_traitsIcEEEcvbB8ue170006Ev, symObjAddr: 0x1C6C, symBinAddr: 0x10001A574, symSize: 0x2C }
  - { offsetInCU: 0x34580, offset: 0x5F158, size: 0x8, addend: 0x0, symName: __ZNKSt3__112basic_stringIcNS_11char_traitsIcEENS_9allocatorIcEEE6lengthB8ue170006Ev, symObjAddr: 0x1C98, symBinAddr: 0x10001A5A0, symSize: 0x24 }
  - { offsetInCU: 0x345A6, offset: 0x5F17E, size: 0x8, addend: 0x0, symName: __ZNSt3__112basic_stringIcNS_11char_traitsIcEENS_9allocatorIcEEEixB8ue170006Em, symObjAddr: 0x1CBC, symBinAddr: 0x10001A5C4, symSize: 0x30 }
  - { offsetInCU: 0x345DB, offset: 0x5F1B3, size: 0x8, addend: 0x0, symName: __ZN5House6MatrixD1Ev, symObjAddr: 0x1CEC, symBinAddr: 0x10001A5F4, symSize: 0x2C }
  - { offsetInCU: 0x34607, offset: 0x5F1DF, size: 0x8, addend: 0x0, symName: __ZNSt3__111basic_regexIcNS_12regex_traitsIcEEED1Ev, symObjAddr: 0x1D18, symBinAddr: 0x10001A620, symSize: 0x2C }
  - { offsetInCU: 0x3463A, offset: 0x5F212, size: 0x8, addend: 0x0, symName: __ZNSt3__114basic_ifstreamIcNS_11char_traitsIcEEED1Ev, symObjAddr: 0x1D44, symBinAddr: 0x10001A64C, symSize: 0x40 }
  - { offsetInCU: 0x34667, offset: 0x5F23F, size: 0x8, addend: 0x0, symName: __ZN9Simulator12setAlgorithmEO9Algorithm, symObjAddr: 0x1D84, symBinAddr: 0x10001A68C, symSize: 0x74 }
  - { offsetInCU: 0x346AE, offset: 0x5F286, size: 0x8, addend: 0x0, symName: __ZN9AlgorithmaSERKS_, symObjAddr: 0x1DF8, symBinAddr: 0x10001A700, symSize: 0x88 }
  - { offsetInCU: 0x346DF, offset: 0x5F2B7, size: 0x8, addend: 0x0, symName: __ZN9Simulator15SimulatorSensorC2ERS_, symObjAddr: 0x1E80, symBinAddr: 0x10001A788, symSize: 0x20 }
  - { offsetInCU: 0x34719, offset: 0x5F2F1, size: 0x8, addend: 0x0, symName: __ZN9Simulator15SimulatorSensorC1ERS_, symObjAddr: 0x1EA0, symBinAddr: 0x10001A7A8, symSize: 0x34 }
  - { offsetInCU: 0x34753, offset: 0x5F32B, size: 0x8, addend: 0x0, symName: __ZNK9Simulator16HouseWallsSensor6isWallE9Direction, symObjAddr: 0x1ED4, symBinAddr: 0x10001A7DC, symSize: 0x54 }
  - { offsetInCU: 0x34789, offset: 0x5F361, size: 0x8, addend: 0x0, symName: __ZNK9Simulator17HouseBatteryMeter15getBatteryStateEv, symObjAddr: 0x1F28, symBinAddr: 0x10001A830, symSize: 0x20 }
  - { offsetInCU: 0x347B1, offset: 0x5F389, size: 0x8, addend: 0x0, symName: __ZNK9Simulator15HouseDirtSensor9dirtLevelEv, symObjAddr: 0x1F48, symBinAddr: 0x10001A850, symSize: 0x38 }
  - { offsetInCU: 0x347DF, offset: 0x5F3B7, size: 0x8, addend: 0x0, symName: __ZN9Simulator16HouseWallsSensorD1Ev, symObjAddr: 0x1FAC, symBinAddr: 0x10001A8B4, symSize: 0x2C }
  - { offsetInCU: 0x3480B, offset: 0x5F3E3, size: 0x8, addend: 0x0, symName: __ZN9Simulator16HouseWallsSensorD0Ev, symObjAddr: 0x1FD8, symBinAddr: 0x10001A8E0, symSize: 0x30 }
  - { offsetInCU: 0x3483D, offset: 0x5F415, size: 0x8, addend: 0x0, symName: __ZN9Simulator17HouseBatteryMeterD1Ev, symObjAddr: 0x2008, symBinAddr: 0x10001A910, symSize: 0x2C }
  - { offsetInCU: 0x34869, offset: 0x5F441, size: 0x8, addend: 0x0, symName: __ZN9Simulator17HouseBatteryMeterD0Ev, symObjAddr: 0x2034, symBinAddr: 0x10001A93C, symSize: 0x30 }
  - { offsetInCU: 0x3489B, offset: 0x5F473, size: 0x8, addend: 0x0, symName: __ZN9Simulator15HouseDirtSensorD1Ev, symObjAddr: 0x2064, symBinAddr: 0x10001A96C, symSize: 0x2C }
  - { offsetInCU: 0x348C7, offset: 0x5F49F, size: 0x8, addend: 0x0, symName: __ZN9Simulator15HouseDirtSensorD0Ev, symObjAddr: 0x2090, symBinAddr: 0x10001A998, symSize: 0x30 }
  - { offsetInCU: 0x348F3, offset: 0x5F4CB, size: 0x8, addend: 0x0, symName: __ZNSt3__16vectorIcNS_9allocatorIcEEEC2B8ue170006Ev, symObjAddr: 0x20C0, symBinAddr: 0x10001A9C8, symSize: 0x4C }
  - { offsetInCU: 0x34929, offset: 0x5F501, size: 0x8, addend: 0x0, symName: __ZNSt3__117__compressed_pairIPcNS_9allocatorIcEEEC1B8ue170006IDnNS_18__default_init_tagEEEOT_OT0_, symObjAddr: 0x210C, symBinAddr: 0x10001AA14, symSize: 0x3C }
  - { offsetInCU: 0x34981, offset: 0x5F559, size: 0x8, addend: 0x0, symName: __ZNSt3__117__compressed_pairIPcNS_9allocatorIcEEEC2B8ue170006IDnNS_18__default_init_tagEEEOT_OT0_, symObjAddr: 0x2148, symBinAddr: 0x10001AA50, symSize: 0x40 }
  - { offsetInCU: 0x349D9, offset: 0x5F5B1, size: 0x8, addend: 0x0, symName: __ZNSt3__122__compressed_pair_elemIPcLi0ELb0EEC2B8ue170006IDnvEEOT_, symObjAddr: 0x2188, symBinAddr: 0x10001AA90, symSize: 0x1C }
  - { offsetInCU: 0x34A1B, offset: 0x5F5F3, size: 0x8, addend: 0x0, symName: __ZNKSt3__16vectorIcNS_9allocatorIcEEE8capacityB8ue170006Ev, symObjAddr: 0x2210, symBinAddr: 0x10001AAAC, symSize: 0x38 }
  - { offsetInCU: 0x34A41, offset: 0x5F619, size: 0x8, addend: 0x0, symName: __ZNKSt3__16vectorIcNS_9allocatorIcEEE8max_sizeEv, symObjAddr: 0x2248, symBinAddr: 0x10001AAE4, symSize: 0x60 }
  - { offsetInCU: 0x34A69, offset: 0x5F641, size: 0x8, addend: 0x0, symName: __ZNKSt3__16vectorIcNS_9allocatorIcEEE20__throw_length_errorB8ue170006Ev, symObjAddr: 0x22A8, symBinAddr: 0x10001AB44, symSize: 0x1C }
  - { offsetInCU: 0x34A8F, offset: 0x5F667, size: 0x8, addend: 0x0, symName: __ZNSt3__16vectorIcNS_9allocatorIcEEE7__allocB8ue170006Ev, symObjAddr: 0x22C4, symBinAddr: 0x10001AB60, symSize: 0x28 }
  - { offsetInCU: 0x34AB5, offset: 0x5F68D, size: 0x8, addend: 0x0, symName: __ZNSt3__114__split_bufferIcRNS_9allocatorIcEEEC1EmmS3_, symObjAddr: 0x22EC, symBinAddr: 0x10001AB88, symSize: 0x44 }
  - { offsetInCU: 0x34B0B, offset: 0x5F6E3, size: 0x8, addend: 0x0, symName: __ZNSt3__114__split_bufferIcRNS_9allocatorIcEEED1Ev, symObjAddr: 0x2440, symBinAddr: 0x10001ACDC, symSize: 0x2C }
  - { offsetInCU: 0x34B37, offset: 0x5F70F, size: 0x8, addend: 0x0, symName: __ZNKSt3__16vectorIcNS_9allocatorIcEEE9__end_capB8ue170006Ev, symObjAddr: 0x246C, symBinAddr: 0x10001AD08, symSize: 0x28 }
  - { offsetInCU: 0x34B5D, offset: 0x5F735, size: 0x8, addend: 0x0, symName: __ZNKSt3__117__compressed_pairIPcNS_9allocatorIcEEE5firstB8ue170006Ev, symObjAddr: 0x2494, symBinAddr: 0x10001AD30, symSize: 0x24 }
  - { offsetInCU: 0x34B83, offset: 0x5F75B, size: 0x8, addend: 0x0, symName: __ZNKSt3__122__compressed_pair_elemIPcLi0ELb0EE5__getB8ue170006Ev, symObjAddr: 0x24B8, symBinAddr: 0x10001AD54, symSize: 0x14 }
  - { offsetInCU: 0x34BB4, offset: 0x5F78C, size: 0x8, addend: 0x0, symName: __ZNSt3__116allocator_traitsINS_9allocatorIcEEE8max_sizeB8ue170006IS2_vvEEmRKS2_, symObjAddr: 0x24F8, symBinAddr: 0x10001AD68, symSize: 0x28 }
  - { offsetInCU: 0x34BE0, offset: 0x5F7B8, size: 0x8, addend: 0x0, symName: __ZNKSt3__16vectorIcNS_9allocatorIcEEE7__allocB8ue170006Ev, symObjAddr: 0x2520, symBinAddr: 0x10001AD90, symSize: 0x28 }
  - { offsetInCU: 0x34C11, offset: 0x5F7E9, size: 0x8, addend: 0x0, symName: __ZNKSt3__117__compressed_pairIPcNS_9allocatorIcEEE6secondB8ue170006Ev, symObjAddr: 0x2600, symBinAddr: 0x10001ADB8, symSize: 0x24 }
  - { offsetInCU: 0x34C37, offset: 0x5F80F, size: 0x8, addend: 0x0, symName: __ZNKSt3__122__compressed_pair_elemINS_9allocatorIcEELi1ELb1EE5__getB8ue170006Ev, symObjAddr: 0x2624, symBinAddr: 0x10001ADDC, symSize: 0x14 }
  - { offsetInCU: 0x34C5D, offset: 0x5F835, size: 0x8, addend: 0x0, symName: __ZNSt3__117__compressed_pairIPcNS_9allocatorIcEEE6secondB8ue170006Ev, symObjAddr: 0x2724, symBinAddr: 0x10001ADF0, symSize: 0x24 }
  - { offsetInCU: 0x34C83, offset: 0x5F85B, size: 0x8, addend: 0x0, symName: __ZNSt3__122__compressed_pair_elemINS_9allocatorIcEELi1ELb1EE5__getB8ue170006Ev, symObjAddr: 0x2748, symBinAddr: 0x10001AE14, symSize: 0x14 }
  - { offsetInCU: 0x34CA9, offset: 0x5F881, size: 0x8, addend: 0x0, symName: __ZNSt3__114__split_bufferIcRNS_9allocatorIcEEEC2EmmS3_, symObjAddr: 0x275C, symBinAddr: 0x10001AE28, symSize: 0xD4 }
  - { offsetInCU: 0x34D1C, offset: 0x5F8F4, size: 0x8, addend: 0x0, symName: __ZNSt3__117__compressed_pairIPcRNS_9allocatorIcEEEC1B8ue170006IDnS4_EEOT_OT0_, symObjAddr: 0x2830, symBinAddr: 0x10001AEFC, symSize: 0x3C }
  - { offsetInCU: 0x34D74, offset: 0x5F94C, size: 0x8, addend: 0x0, symName: __ZNSt3__114__split_bufferIcRNS_9allocatorIcEEE7__allocB8ue170006Ev, symObjAddr: 0x28AC, symBinAddr: 0x10001AF78, symSize: 0x28 }
  - { offsetInCU: 0x34D9A, offset: 0x5F972, size: 0x8, addend: 0x0, symName: __ZNSt3__114__split_bufferIcRNS_9allocatorIcEEE9__end_capB8ue170006Ev, symObjAddr: 0x28D4, symBinAddr: 0x10001AFA0, symSize: 0x28 }
  - { offsetInCU: 0x34DC0, offset: 0x5F998, size: 0x8, addend: 0x0, symName: __ZNSt3__117__compressed_pairIPcRNS_9allocatorIcEEEC2B8ue170006IDnS4_EEOT_OT0_, symObjAddr: 0x28FC, symBinAddr: 0x10001AFC8, symSize: 0x48 }
  - { offsetInCU: 0x34E18, offset: 0x5F9F0, size: 0x8, addend: 0x0, symName: __ZNSt3__122__compressed_pair_elemIRNS_9allocatorIcEELi1ELb0EEC2B8ue170006IS3_vEEOT_, symObjAddr: 0x2944, symBinAddr: 0x10001B010, symSize: 0x20 }
  - { offsetInCU: 0x34E5A, offset: 0x5FA32, size: 0x8, addend: 0x0, symName: __ZNSt3__19allocatorIcE8allocateB8ue170006Em, symObjAddr: 0x2964, symBinAddr: 0x10001B030, symSize: 0x58 }
  - { offsetInCU: 0x34E8E, offset: 0x5FA66, size: 0x8, addend: 0x0, symName: __ZNSt3__117__compressed_pairIPcRNS_9allocatorIcEEE6secondB8ue170006Ev, symObjAddr: 0x2AC0, symBinAddr: 0x10001B088, symSize: 0x28 }
  - { offsetInCU: 0x34EB4, offset: 0x5FA8C, size: 0x8, addend: 0x0, symName: __ZNSt3__122__compressed_pair_elemIRNS_9allocatorIcEELi1ELb0EE5__getB8ue170006Ev, symObjAddr: 0x2AE8, symBinAddr: 0x10001B0B0, symSize: 0x18 }
  - { offsetInCU: 0x34EDA, offset: 0x5FAB2, size: 0x8, addend: 0x0, symName: __ZNSt3__117__compressed_pairIPcRNS_9allocatorIcEEE5firstB8ue170006Ev, symObjAddr: 0x2B00, symBinAddr: 0x10001B0C8, symSize: 0x24 }
  - { offsetInCU: 0x34F00, offset: 0x5FAD8, size: 0x8, addend: 0x0, symName: __ZNSt3__122__compressed_pair_elemIPcLi0ELb0EE5__getB8ue170006Ev, symObjAddr: 0x2B24, symBinAddr: 0x10001B0EC, symSize: 0x14 }
  - { offsetInCU: 0x34F26, offset: 0x5FAFE, size: 0x8, addend: 0x0, symName: __ZNKSt3__16vectorIcNS_9allocatorIcEEE17__annotate_deleteB8ue170006Ev, symObjAddr: 0x2B38, symBinAddr: 0x10001B100, symSize: 0xB8 }
  - { offsetInCU: 0x34F4C, offset: 0x5FB24, size: 0x8, addend: 0x0, symName: __ZNSt3__116reverse_iteratorIPcEC1B8ue170006ES1_, symObjAddr: 0x2C68, symBinAddr: 0x10001B230, symSize: 0x34 }
  - { offsetInCU: 0x34F84, offset: 0x5FB5C, size: 0x8, addend: 0x0, symName: __ZNKSt3__116reverse_iteratorIPcE4baseB8ue170006Ev, symObjAddr: 0x2C9C, symBinAddr: 0x10001B264, symSize: 0x18 }
  - { offsetInCU: 0x34FAA, offset: 0x5FB82, size: 0x8, addend: 0x0, symName: __ZNSt3__16vectorIcNS_9allocatorIcEEE9__end_capB8ue170006Ev, symObjAddr: 0x2CF0, symBinAddr: 0x10001B2B8, symSize: 0x28 }
  - { offsetInCU: 0x34FD0, offset: 0x5FBA8, size: 0x8, addend: 0x0, symName: __ZNKSt3__16vectorIcNS_9allocatorIcEEE14__annotate_newB8ue170006Em, symObjAddr: 0x2D18, symBinAddr: 0x10001B2E0, symSize: 0xAC }
  - { offsetInCU: 0x35005, offset: 0x5FBDD, size: 0x8, addend: 0x0, symName: __ZNKSt3__16vectorIcNS_9allocatorIcEEE31__annotate_contiguous_containerB8ue170006EPKvS5_S5_S5_, symObjAddr: 0x2DC4, symBinAddr: 0x10001B38C, symSize: 0x20 }
  - { offsetInCU: 0x3505B, offset: 0x5FC33, size: 0x8, addend: 0x0, symName: __ZNKSt3__16vectorIcNS_9allocatorIcEEE4dataB8ue170006Ev, symObjAddr: 0x2DE4, symBinAddr: 0x10001B3AC, symSize: 0x28 }
  - { offsetInCU: 0x350A9, offset: 0x5FC81, size: 0x8, addend: 0x0, symName: __ZNKSt3__111__move_loopINS_17_ClassicAlgPolicyEEclB8ue170006INS_16reverse_iteratorIPcEES6_S6_EENS_4pairIT_T1_EES8_T0_S9_, symObjAddr: 0x30D8, symBinAddr: 0x10001B68C, symSize: 0xA0 }
  - { offsetInCU: 0x35114, offset: 0x5FCEC, size: 0x8, addend: 0x0, symName: __ZNSt3__119__unwrap_range_implINS_16reverse_iteratorIPcEES3_E8__unwrapB8ue170006ES3_S3_, symObjAddr: 0x32C4, symBinAddr: 0x10001B878, symSize: 0x84 }
  - { offsetInCU: 0x3514B, offset: 0x5FD23, size: 0x8, addend: 0x0, symName: __ZNSt3__14pairINS_16reverse_iteratorIPcEES3_EC1B8ue170006IS3_S3_LPv0EEEOT_OT0_, symObjAddr: 0x3348, symBinAddr: 0x10001B8FC, symSize: 0x3C }
  - { offsetInCU: 0x351A9, offset: 0x5FD81, size: 0x8, addend: 0x0, symName: __ZNSt3__14pairINS_16reverse_iteratorIPcEES3_EC2B8ue170006IS3_S3_LPv0EEEOT_OT0_, symObjAddr: 0x3384, symBinAddr: 0x10001B938, symSize: 0x34 }
  - { offsetInCU: 0x3520D, offset: 0x5FDE5, size: 0x8, addend: 0x0, symName: __ZNSt3__18_IterOpsINS_17_ClassicAlgPolicyEE11__iter_moveB8ue170006IRNS_16reverse_iteratorIPcEEEENS_9enable_ifIXsr12is_referenceIDTdeclsr3stdE7declvalIRT_EEEEE5valueEDTclsr3stdE4movedeclsr3stdE7declvalISA_EEEEE4typeEOS9_, symObjAddr: 0x3400, symBinAddr: 0x10001B9B4, symSize: 0x28 }
  - { offsetInCU: 0x35239, offset: 0x5FE11, size: 0x8, addend: 0x0, symName: __ZNKSt3__116reverse_iteratorIPcEdeB8ue170006Ev, symObjAddr: 0x3428, symBinAddr: 0x10001B9DC, symSize: 0x28 }
  - { offsetInCU: 0x3526E, offset: 0x5FE46, size: 0x8, addend: 0x0, symName: __ZNSt3__116reverse_iteratorIPcEppB8ue170006Ev, symObjAddr: 0x3450, symBinAddr: 0x10001BA04, symSize: 0x20 }
  - { offsetInCU: 0x35294, offset: 0x5FE6C, size: 0x8, addend: 0x0, symName: __ZNSt3__18_IterOpsINS_17_ClassicAlgPolicyEE25__validate_iter_referenceB8ue170006IRNS_16reverse_iteratorIPcEEEEvv, symObjAddr: 0x3470, symBinAddr: 0x10001BA24, symSize: 0x4 }
  - { offsetInCU: 0x352B2, offset: 0x5FE8A, size: 0x8, addend: 0x0, symName: __ZNSt3__118__unwrap_iter_implINS_16reverse_iteratorIPcEELb0EE8__unwrapB8ue170006ES3_, symObjAddr: 0x3474, symBinAddr: 0x10001BA28, symSize: 0x24 }
  - { offsetInCU: 0x352D5, offset: 0x5FEAD, size: 0x8, addend: 0x0, symName: __ZNSt3__119__unwrap_range_implINS_16reverse_iteratorIPcEES3_E8__rewrapB8ue170006ES3_S3_, symObjAddr: 0x3498, symBinAddr: 0x10001BA4C, symSize: 0x5C }
  - { offsetInCU: 0x35306, offset: 0x5FEDE, size: 0x8, addend: 0x0, symName: __ZNSt3__118__unwrap_iter_implINS_16reverse_iteratorIPcEELb0EE8__rewrapB8ue170006ES3_S3_, symObjAddr: 0x34F4, symBinAddr: 0x10001BAA8, symSize: 0x2C }
  - { offsetInCU: 0x35334, offset: 0x5FF0C, size: 0x8, addend: 0x0, symName: __ZNSt3__116reverse_iteratorIPcEC2B8ue170006ES1_, symObjAddr: 0x3520, symBinAddr: 0x10001BAD4, symSize: 0x28 }
  - { offsetInCU: 0x3536C, offset: 0x5FF44, size: 0x8, addend: 0x0, symName: __ZNSt3__117__compressed_pairIPcNS_9allocatorIcEEE5firstB8ue170006Ev, symObjAddr: 0x3548, symBinAddr: 0x10001BAFC, symSize: 0x24 }
  - { offsetInCU: 0x35392, offset: 0x5FF6A, size: 0x8, addend: 0x0, symName: __ZNSt3__114__split_bufferIcRNS_9allocatorIcEEED2Ev, symObjAddr: 0x356C, symBinAddr: 0x10001BB20, symSize: 0x8C }
  - { offsetInCU: 0x353BE, offset: 0x5FF96, size: 0x8, addend: 0x0, symName: __ZNSt3__114__split_bufferIcRNS_9allocatorIcEEE5clearB8ue170006Ev, symObjAddr: 0x35F8, symBinAddr: 0x10001BBAC, symSize: 0x28 }
  - { offsetInCU: 0x353E4, offset: 0x5FFBC, size: 0x8, addend: 0x0, symName: __ZNSt3__116allocator_traitsINS_9allocatorIcEEE10deallocateB8ue170006ERS2_Pcm, symObjAddr: 0x3620, symBinAddr: 0x10001BBD4, symSize: 0x34 }
  - { offsetInCU: 0x35426, offset: 0x5FFFE, size: 0x8, addend: 0x0, symName: __ZNKSt3__114__split_bufferIcRNS_9allocatorIcEEE8capacityB8ue170006Ev, symObjAddr: 0x3654, symBinAddr: 0x10001BC08, symSize: 0x38 }
  - { offsetInCU: 0x3544C, offset: 0x60024, size: 0x8, addend: 0x0, symName: __ZNSt3__114__split_bufferIcRNS_9allocatorIcEEE17__destruct_at_endB8ue170006EPc, symObjAddr: 0x368C, symBinAddr: 0x10001BC40, symSize: 0x2C }
  - { offsetInCU: 0x35480, offset: 0x60058, size: 0x8, addend: 0x0, symName: __ZNSt3__114__split_bufferIcRNS_9allocatorIcEEE17__destruct_at_endB8ue170006EPcNS_17integral_constantIbLb0EEE, symObjAddr: 0x36B8, symBinAddr: 0x10001BC6C, symSize: 0x80 }
  - { offsetInCU: 0x354C1, offset: 0x60099, size: 0x8, addend: 0x0, symName: __ZNSt3__116allocator_traitsINS_9allocatorIcEEE7destroyB8ue170006IcvvEEvRS2_PT_, symObjAddr: 0x3738, symBinAddr: 0x10001BCEC, symSize: 0x28 }
  - { offsetInCU: 0x354FC, offset: 0x600D4, size: 0x8, addend: 0x0, symName: __ZNSt3__19allocatorIcE10deallocateB8ue170006EPcm, symObjAddr: 0x3794, symBinAddr: 0x10001BD48, symSize: 0x40 }
  - { offsetInCU: 0x3553E, offset: 0x60116, size: 0x8, addend: 0x0, symName: __ZNKSt3__114__split_bufferIcRNS_9allocatorIcEEE9__end_capB8ue170006Ev, symObjAddr: 0x38DC, symBinAddr: 0x10001BD88, symSize: 0x28 }
  - { offsetInCU: 0x35564, offset: 0x6013C, size: 0x8, addend: 0x0, symName: __ZNKSt3__117__compressed_pairIPcRNS_9allocatorIcEEE5firstB8ue170006Ev, symObjAddr: 0x3904, symBinAddr: 0x10001BDB0, symSize: 0x24 }
  - { offsetInCU: 0x3558A, offset: 0x60162, size: 0x8, addend: 0x0, symName: __ZNSt3__16vectorIcNS_9allocatorIcEEE22__construct_one_at_endB8ue170006IJcEEEvDpOT_, symObjAddr: 0x3928, symBinAddr: 0x10001BDD4, symSize: 0x90 }
  - { offsetInCU: 0x355D9, offset: 0x601B1, size: 0x8, addend: 0x0, symName: __ZNSt3__16vectorIcNS_9allocatorIcEEE21__push_back_slow_pathIcEEvOT_, symObjAddr: 0x39B8, symBinAddr: 0x10001BE64, symSize: 0xD8 }
  - { offsetInCU: 0x35653, offset: 0x6022B, size: 0x8, addend: 0x0, symName: __ZNSt3__16vectorIcNS_9allocatorIcEEE21_ConstructTransactionC1B8ue170006ERS3_m, symObjAddr: 0x3A90, symBinAddr: 0x10001BF3C, symSize: 0x3C }
  - { offsetInCU: 0x3569B, offset: 0x60273, size: 0x8, addend: 0x0, symName: __ZNSt3__116allocator_traitsINS_9allocatorIcEEE9constructB8ue170006IcJcEvvEEvRS2_PT_DpOT0_, symObjAddr: 0x3ACC, symBinAddr: 0x10001BF78, symSize: 0x30 }
  - { offsetInCU: 0x356F0, offset: 0x602C8, size: 0x8, addend: 0x0, symName: __ZNSt3__16vectorIcNS_9allocatorIcEEE21_ConstructTransactionD1B8ue170006Ev, symObjAddr: 0x3AFC, symBinAddr: 0x10001BFA8, symSize: 0x2C }
  - { offsetInCU: 0x3571A, offset: 0x602F2, size: 0x8, addend: 0x0, symName: __ZNSt3__16vectorIcNS_9allocatorIcEEE21_ConstructTransactionC2B8ue170006ERS3_m, symObjAddr: 0x3B28, symBinAddr: 0x10001BFD4, symSize: 0x44 }
  - { offsetInCU: 0x35762, offset: 0x6033A, size: 0x8, addend: 0x0, symName: __ZNSt3__16vectorIcNS_9allocatorIcEEE21_ConstructTransactionD2B8ue170006Ev, symObjAddr: 0x3B98, symBinAddr: 0x10001C044, symSize: 0x20 }
  - { offsetInCU: 0x3578C, offset: 0x60364, size: 0x8, addend: 0x0, symName: __ZNKSt3__16vectorIcNS_9allocatorIcEEE11__recommendB8ue170006Em, symObjAddr: 0x3BB8, symBinAddr: 0x10001C064, symSize: 0xB4 }
  - { offsetInCU: 0x357E1, offset: 0x603B9, size: 0x8, addend: 0x0, symName: __ZNSt3__114basic_ofstreamIcNS_11char_traitsIcEEED2Ev, symObjAddr: 0x3CEC, symBinAddr: 0x10001C118, symSize: 0x64 }
  - { offsetInCU: 0x3581B, offset: 0x603F3, size: 0x8, addend: 0x0, symName: __ZTv0_n24_NSt3__114basic_ofstreamIcNS_11char_traitsIcEEED1Ev, symObjAddr: 0x3D50, symBinAddr: 0x10001C17C, symSize: 0x28 }
  - { offsetInCU: 0x35832, offset: 0x6040A, size: 0x8, addend: 0x0, symName: __ZNSt3__16vectorIcNS_9allocatorIcEEED2B8ue170006Ev, symObjAddr: 0x3D78, symBinAddr: 0x10001C1A4, symSize: 0x44 }
  - { offsetInCU: 0x3585C, offset: 0x60434, size: 0x8, addend: 0x0, symName: __ZNSt3__16vectorIcNS_9allocatorIcEEE16__destroy_vectorC1B8ue170006ERS3_, symObjAddr: 0x3DBC, symBinAddr: 0x10001C1E8, symSize: 0x34 }
  - { offsetInCU: 0x35895, offset: 0x6046D, size: 0x8, addend: 0x0, symName: __ZNSt3__16vectorIcNS_9allocatorIcEEE16__destroy_vectorclB8ue170006Ev, symObjAddr: 0x3DF0, symBinAddr: 0x10001C21C, symSize: 0x90 }
  - { offsetInCU: 0x358BB, offset: 0x60493, size: 0x8, addend: 0x0, symName: __ZNSt3__16vectorIcNS_9allocatorIcEEE16__destroy_vectorC2B8ue170006ERS3_, symObjAddr: 0x3E80, symBinAddr: 0x10001C2AC, symSize: 0x20 }
  - { offsetInCU: 0x358F4, offset: 0x604CC, size: 0x8, addend: 0x0, symName: __ZNSt3__16vectorIcNS_9allocatorIcEEE7__clearB8ue170006Ev, symObjAddr: 0x3EA0, symBinAddr: 0x10001C2CC, symSize: 0x28 }
  - { offsetInCU: 0x3591A, offset: 0x604F2, size: 0x8, addend: 0x0, symName: __ZNSt3__16vectorIcNS_9allocatorIcEEE22__base_destruct_at_endB8ue170006EPc, symObjAddr: 0x3EC8, symBinAddr: 0x10001C2F4, symSize: 0x8C }
  - { offsetInCU: 0x3595E, offset: 0x60536, size: 0x8, addend: 0x0, symName: __ZNSt3__112basic_stringIcNS_11char_traitsIcEENS_9allocatorIcEEEC2B8ue170006Ev, symObjAddr: 0x3F54, symBinAddr: 0x10001C380, symSize: 0x48 }
  - { offsetInCU: 0x35988, offset: 0x60560, size: 0x8, addend: 0x0, symName: __ZNSt3__112basic_stringIcNS_11char_traitsIcEENS_9allocatorIcEEE14__default_initB8ue170006Ev, symObjAddr: 0x3FD8, symBinAddr: 0x10001C3C8, symSize: 0x40 }
  - { offsetInCU: 0x359AE, offset: 0x60586, size: 0x8, addend: 0x0, symName: __ZNSt3__111basic_regexIcNS_12regex_traitsIcEEEC2ERKS3_, symObjAddr: 0x40A0, symBinAddr: 0x10001C408, symSize: 0x60 }
  - { offsetInCU: 0x359E4, offset: 0x605BC, size: 0x8, addend: 0x0, symName: __ZNSt3__112regex_traitsIcEC1ERKS1_, symObjAddr: 0x4100, symBinAddr: 0x10001C468, symSize: 0x34 }
  - { offsetInCU: 0x35A1A, offset: 0x605F2, size: 0x8, addend: 0x0, symName: __ZNSt3__110shared_ptrINS_13__empty_stateIcEEEC1B8ue170006ERKS3_, symObjAddr: 0x4134, symBinAddr: 0x10001C49C, symSize: 0x34 }
  - { offsetInCU: 0x35A53, offset: 0x6062B, size: 0x8, addend: 0x0, symName: __ZNSt3__112regex_traitsIcEC2ERKS1_, symObjAddr: 0x4168, symBinAddr: 0x10001C4D0, symSize: 0x40 }
  - { offsetInCU: 0x35A89, offset: 0x60661, size: 0x8, addend: 0x0, symName: __ZNSt3__110shared_ptrINS_13__empty_stateIcEEEC2B8ue170006ERKS3_, symObjAddr: 0x41A8, symBinAddr: 0x10001C510, symSize: 0x70 }
  - { offsetInCU: 0x35AC2, offset: 0x6069A, size: 0x8, addend: 0x0, symName: __ZNSt3__119__shared_weak_count12__add_sharedB8ue170006Ev, symObjAddr: 0x4218, symBinAddr: 0x10001C580, symSize: 0x24 }
  - { offsetInCU: 0x35AE8, offset: 0x606C0, size: 0x8, addend: 0x0, symName: __ZNSt3__114__shared_count12__add_sharedB8ue170006Ev, symObjAddr: 0x423C, symBinAddr: 0x10001C5A4, symSize: 0x28 }
  - { offsetInCU: 0x35B0E, offset: 0x606E6, size: 0x8, addend: 0x0, symName: __ZNSt3__113match_resultsINS_11__wrap_iterIPKcEENS_9allocatorINS_9sub_matchIS4_EEEEED2Ev, symObjAddr: 0x4294, symBinAddr: 0x10001C5FC, symSize: 0x2C }
  - { offsetInCU: 0x35B3B, offset: 0x60713, size: 0x8, addend: 0x0, symName: __ZNSt3__16vectorINS_9sub_matchINS_11__wrap_iterIPKcEEEENS_9allocatorIS6_EEED1B8ue170006Ev, symObjAddr: 0x42C0, symBinAddr: 0x10001C628, symSize: 0x2C }
  - { offsetInCU: 0x35B65, offset: 0x6073D, size: 0x8, addend: 0x0, symName: __ZNSt3__16vectorINS_9sub_matchINS_11__wrap_iterIPKcEEEENS_9allocatorIS6_EEED2B8ue170006Ev, symObjAddr: 0x42EC, symBinAddr: 0x10001C654, symSize: 0x44 }
  - { offsetInCU: 0x35B8F, offset: 0x60767, size: 0x8, addend: 0x0, symName: __ZNSt3__16vectorINS_9sub_matchINS_11__wrap_iterIPKcEEEENS_9allocatorIS6_EEE16__destroy_vectorC1B8ue170006ERS9_, symObjAddr: 0x4330, symBinAddr: 0x10001C698, symSize: 0x34 }
  - { offsetInCU: 0x35BC8, offset: 0x607A0, size: 0x8, addend: 0x0, symName: __ZNSt3__16vectorINS_9sub_matchINS_11__wrap_iterIPKcEEEENS_9allocatorIS6_EEE16__destroy_vectorclB8ue170006Ev, symObjAddr: 0x4364, symBinAddr: 0x10001C6CC, symSize: 0x90 }
  - { offsetInCU: 0x35BEE, offset: 0x607C6, size: 0x8, addend: 0x0, symName: __ZNSt3__16vectorINS_9sub_matchINS_11__wrap_iterIPKcEEEENS_9allocatorIS6_EEE16__destroy_vectorC2B8ue170006ERS9_, symObjAddr: 0x43F4, symBinAddr: 0x10001C75C, symSize: 0x20 }
  - { offsetInCU: 0x35C27, offset: 0x607FF, size: 0x8, addend: 0x0, symName: __ZNSt3__16vectorINS_9sub_matchINS_11__wrap_iterIPKcEEEENS_9allocatorIS6_EEE7__clearB8ue170006Ev, symObjAddr: 0x4414, symBinAddr: 0x10001C77C, symSize: 0x28 }
  - { offsetInCU: 0x35C4D, offset: 0x60825, size: 0x8, addend: 0x0, symName: __ZNKSt3__16vectorINS_9sub_matchINS_11__wrap_iterIPKcEEEENS_9allocatorIS6_EEE17__annotate_deleteB8ue170006Ev, symObjAddr: 0x443C, symBinAddr: 0x10001C7A4, symSize: 0xD4 }
  - { offsetInCU: 0x35C73, offset: 0x6084B, size: 0x8, addend: 0x0, symName: __ZNSt3__116allocator_traitsINS_9allocatorINS_9sub_matchINS_11__wrap_iterIPKcEEEEEEE10deallocateB8ue170006ERS8_PS7_m, symObjAddr: 0x4510, symBinAddr: 0x10001C878, symSize: 0x34 }
  - { offsetInCU: 0x35CB5, offset: 0x6088D, size: 0x8, addend: 0x0, symName: __ZNSt3__16vectorINS_9sub_matchINS_11__wrap_iterIPKcEEEENS_9allocatorIS6_EEE7__allocB8ue170006Ev, symObjAddr: 0x4544, symBinAddr: 0x10001C8AC, symSize: 0x28 }
  - { offsetInCU: 0x35CDB, offset: 0x608B3, size: 0x8, addend: 0x0, symName: __ZNKSt3__16vectorINS_9sub_matchINS_11__wrap_iterIPKcEEEENS_9allocatorIS6_EEE8capacityB8ue170006Ev, symObjAddr: 0x456C, symBinAddr: 0x10001C8D4, symSize: 0x40 }
  - { offsetInCU: 0x35D01, offset: 0x608D9, size: 0x8, addend: 0x0, symName: __ZNSt3__16vectorINS_9sub_matchINS_11__wrap_iterIPKcEEEENS_9allocatorIS6_EEE22__base_destruct_at_endB8ue170006EPS6_, symObjAddr: 0x45AC, symBinAddr: 0x10001C914, symSize: 0x8C }
  - { offsetInCU: 0x35D45, offset: 0x6091D, size: 0x8, addend: 0x0, symName: __ZNSt3__116allocator_traitsINS_9allocatorINS_9sub_matchINS_11__wrap_iterIPKcEEEEEEE7destroyB8ue170006IS7_vvEEvRS8_PT_, symObjAddr: 0x4638, symBinAddr: 0x10001C9A0, symSize: 0x28 }
  - { offsetInCU: 0x35D80, offset: 0x60958, size: 0x8, addend: 0x0, symName: __ZNKSt3__16vectorINS_9sub_matchINS_11__wrap_iterIPKcEEEENS_9allocatorIS6_EEE31__annotate_contiguous_containerB8ue170006EPKvSB_SB_SB_, symObjAddr: 0x46A8, symBinAddr: 0x10001CA10, symSize: 0x20 }
  - { offsetInCU: 0x35DD6, offset: 0x609AE, size: 0x8, addend: 0x0, symName: __ZNKSt3__16vectorINS_9sub_matchINS_11__wrap_iterIPKcEEEENS_9allocatorIS6_EEE4dataB8ue170006Ev, symObjAddr: 0x46C8, symBinAddr: 0x10001CA30, symSize: 0x28 }
  - { offsetInCU: 0x35DFC, offset: 0x609D4, size: 0x8, addend: 0x0, symName: __ZNKSt3__16vectorINS_9sub_matchINS_11__wrap_iterIPKcEEEENS_9allocatorIS6_EEE4sizeB8ue170006Ev, symObjAddr: 0x46F0, symBinAddr: 0x10001CA58, symSize: 0x28 }
  - { offsetInCU: 0x35E22, offset: 0x609FA, size: 0x8, addend: 0x0, symName: __ZNSt3__19allocatorINS_9sub_matchINS_11__wrap_iterIPKcEEEEE10deallocateB8ue170006EPS6_m, symObjAddr: 0x4718, symBinAddr: 0x10001CA80, symSize: 0x44 }
  - { offsetInCU: 0x35E64, offset: 0x60A3C, size: 0x8, addend: 0x0, symName: __ZNSt3__117__compressed_pairIPNS_9sub_matchINS_11__wrap_iterIPKcEEEENS_9allocatorIS6_EEE6secondB8ue170006Ev, symObjAddr: 0x475C, symBinAddr: 0x10001CAC4, symSize: 0x24 }
  - { offsetInCU: 0x35E8A, offset: 0x60A62, size: 0x8, addend: 0x0, symName: __ZNSt3__122__compressed_pair_elemINS_9allocatorINS_9sub_matchINS_11__wrap_iterIPKcEEEEEELi1ELb1EE5__getB8ue170006Ev, symObjAddr: 0x4780, symBinAddr: 0x10001CAE8, symSize: 0x14 }
  - { offsetInCU: 0x35EB0, offset: 0x60A88, size: 0x8, addend: 0x0, symName: __ZNKSt3__16vectorINS_9sub_matchINS_11__wrap_iterIPKcEEEENS_9allocatorIS6_EEE9__end_capB8ue170006Ev, symObjAddr: 0x4794, symBinAddr: 0x10001CAFC, symSize: 0x28 }
  - { offsetInCU: 0x35ED6, offset: 0x60AAE, size: 0x8, addend: 0x0, symName: __ZNKSt3__117__compressed_pairIPNS_9sub_matchINS_11__wrap_iterIPKcEEEENS_9allocatorIS6_EEE5firstB8ue170006Ev, symObjAddr: 0x47BC, symBinAddr: 0x10001CB24, symSize: 0x24 }
  - { offsetInCU: 0x35EFC, offset: 0x60AD4, size: 0x8, addend: 0x0, symName: __ZNKSt3__122__compressed_pair_elemIPNS_9sub_matchINS_11__wrap_iterIPKcEEEELi0ELb0EE5__getB8ue170006Ev, symObjAddr: 0x47E0, symBinAddr: 0x10001CB48, symSize: 0x14 }
  - { offsetInCU: 0x35F22, offset: 0x60AFA, size: 0x8, addend: 0x0, symName: __ZNKSt3__112basic_stringIcNS_11char_traitsIcEENS_9allocatorIcEEE4sizeB8ue170006Ev, symObjAddr: 0x47F4, symBinAddr: 0x10001CB5C, symSize: 0x54 }
  - { offsetInCU: 0x35F48, offset: 0x60B20, size: 0x8, addend: 0x0, symName: __ZNKSt3__112basic_stringIcNS_11char_traitsIcEENS_9allocatorIcEEE15__get_long_sizeB8ue170006Ev, symObjAddr: 0x4880, symBinAddr: 0x10001CBB0, symSize: 0x28 }
  - { offsetInCU: 0x35F6E, offset: 0x60B46, size: 0x8, addend: 0x0, symName: __ZNKSt3__112basic_stringIcNS_11char_traitsIcEENS_9allocatorIcEEE16__get_short_sizeB8ue170006Ev, symObjAddr: 0x48A8, symBinAddr: 0x10001CBD8, symSize: 0x34 }
  - { offsetInCU: 0x35F94, offset: 0x60B6C, size: 0x8, addend: 0x0, symName: __ZN5House6MatrixD2Ev, symObjAddr: 0x49CC, symBinAddr: 0x10001CC0C, symSize: 0x2C }
  - { offsetInCU: 0x35FC0, offset: 0x60B98, size: 0x8, addend: 0x0, symName: __ZNSt3__111basic_regexIcNS_12regex_traitsIcEEED2Ev, symObjAddr: 0x4F0C, symBinAddr: 0x10001CC38, symSize: 0x38 }
  - { offsetInCU: 0x35FED, offset: 0x60BC5, size: 0x8, addend: 0x0, symName: __ZNSt3__110shared_ptrINS_13__empty_stateIcEEED1B8ue170006Ev, symObjAddr: 0x4F44, symBinAddr: 0x10001CC70, symSize: 0x2C }
  - { offsetInCU: 0x36017, offset: 0x60BEF, size: 0x8, addend: 0x0, symName: __ZNSt3__112regex_traitsIcED1Ev, symObjAddr: 0x4F70, symBinAddr: 0x10001CC9C, symSize: 0x2C }
  - { offsetInCU: 0x36044, offset: 0x60C1C, size: 0x8, addend: 0x0, symName: __ZNSt3__110shared_ptrINS_13__empty_stateIcEEED2B8ue170006Ev, symObjAddr: 0x4F9C, symBinAddr: 0x10001CCC8, symSize: 0x54 }
  - { offsetInCU: 0x3606E, offset: 0x60C46, size: 0x8, addend: 0x0, symName: __ZNSt3__119__shared_weak_count16__release_sharedB8ue170006Ev, symObjAddr: 0x4FF0, symBinAddr: 0x10001CD1C, symSize: 0x3C }
  - { offsetInCU: 0x36094, offset: 0x60C6C, size: 0x8, addend: 0x0, symName: __ZNSt3__114__shared_count16__release_sharedB8ue170006Ev, symObjAddr: 0x502C, symBinAddr: 0x10001CD58, symSize: 0x7C }
  - { offsetInCU: 0x360BA, offset: 0x60C92, size: 0x8, addend: 0x0, symName: __ZNSt3__112regex_traitsIcED2Ev, symObjAddr: 0x50D8, symBinAddr: 0x10001CE04, symSize: 0x2C }
  - { offsetInCU: 0x360E7, offset: 0x60CBF, size: 0x8, addend: 0x0, symName: __ZNSt3__114basic_ifstreamIcNS_11char_traitsIcEEED2Ev, symObjAddr: 0x5104, symBinAddr: 0x10001CE30, symSize: 0x64 }
  - { offsetInCU: 0x36121, offset: 0x60CF9, size: 0x8, addend: 0x0, symName: __ZTv0_n24_NSt3__114basic_ifstreamIcNS_11char_traitsIcEEED1Ev, symObjAddr: 0x5168, symBinAddr: 0x10001CE94, symSize: 0x28 }
  - { offsetInCU: 0x36149, offset: 0x60D21, size: 0x8, addend: 0x0, symName: __ZN17AbstractAlgorithmaSERKS_, symObjAddr: 0x5190, symBinAddr: 0x10001CEBC, symSize: 0x18 }
  - { offsetInCU: 0x3617A, offset: 0x60D52, size: 0x8, addend: 0x0, symName: __ZNSt3__16vectorI6CoordsNS_9allocatorIS1_EEEaSB8ue170006ERKS4_, symObjAddr: 0x51A8, symBinAddr: 0x10001CED4, symSize: 0x68 }
  - { offsetInCU: 0x361B1, offset: 0x60D89, size: 0x8, addend: 0x0, symName: __ZNSt3__113unordered_mapI6CoordsfNS_4hashIS1_EENS_8equal_toIS1_EENS_9allocatorINS_4pairIKS1_fEEEEEaSB8ue170006ERKSB_, symObjAddr: 0x5210, symBinAddr: 0x10001CF3C, symSize: 0x34 }
  - { offsetInCU: 0x361E6, offset: 0x60DBE, size: 0x8, addend: 0x0, symName: __ZNSt3__16vectorI6CoordsNS_9allocatorIS1_EEE19__copy_assign_allocB8ue170006ERKS4_, symObjAddr: 0x5244, symBinAddr: 0x10001CF70, symSize: 0x2C }
  - { offsetInCU: 0x3621B, offset: 0x60DF3, size: 0x8, addend: 0x0, symName: __ZNSt3__16vectorI6CoordsNS_9allocatorIS1_EEE6assignIPS1_Li0EEEvT_S7_, symObjAddr: 0x5270, symBinAddr: 0x10001CF9C, symSize: 0x5C }
  - { offsetInCU: 0x36270, offset: 0x60E48, size: 0x8, addend: 0x0, symName: __ZNSt3__16vectorI6CoordsNS_9allocatorIS1_EEE19__copy_assign_allocB8ue170006ERKS4_NS_17integral_constantIbLb0EEE, symObjAddr: 0x52CC, symBinAddr: 0x10001CFF8, symSize: 0x14 }
  - { offsetInCU: 0x362AE, offset: 0x60E86, size: 0x8, addend: 0x0, symName: __ZNSt3__16vectorI6CoordsNS_9allocatorIS1_EEE18__assign_with_sizeB8ue170006IPS1_S6_EEvT_T0_l, symObjAddr: 0x52E0, symBinAddr: 0x10001D00C, symSize: 0x164 }
  - { offsetInCU: 0x3637A, offset: 0x60F52, size: 0x8, addend: 0x0, symName: __ZNSt3__112__hash_tableINS_17__hash_value_typeI6CoordsfEENS_22__unordered_map_hasherIS2_S3_NS_4hashIS2_EENS_8equal_toIS2_EELb1EEENS_21__unordered_map_equalIS2_S3_S8_S6_Lb1EEENS_9allocatorIS3_EEEaSERKSE_, symObjAddr: 0x66A8, symBinAddr: 0x10001D26C, symSize: 0xB8 }
  - { offsetInCU: 0x363B1, offset: 0x60F89, size: 0x8, addend: 0x0, symName: __ZNSt3__112__hash_tableINS_17__hash_value_typeI6CoordsfEENS_22__unordered_map_hasherIS2_S3_NS_4hashIS2_EENS_8equal_toIS2_EELb1EEENS_21__unordered_map_equalIS2_S3_S8_S6_Lb1EEENS_9allocatorIS3_EEE19__copy_assign_allocB8ue170006ERKSE_, symObjAddr: 0x6760, symBinAddr: 0x10001D324, symSize: 0x2C }
  - { offsetInCU: 0x363E6, offset: 0x60FBE, size: 0x8, addend: 0x0, symName: __ZNKSt3__112__hash_tableINS_17__hash_value_typeI6CoordsfEENS_22__unordered_map_hasherIS2_S3_NS_4hashIS2_EENS_8equal_toIS2_EELb1EEENS_21__unordered_map_equalIS2_S3_S8_S6_Lb1EEENS_9allocatorIS3_EEE13hash_functionB8ue170006Ev, symObjAddr: 0x678C, symBinAddr: 0x10001D350, symSize: 0x28 }
  - { offsetInCU: 0x3640C, offset: 0x60FE4, size: 0x8, addend: 0x0, symName: __ZNKSt3__112__hash_tableINS_17__hash_value_typeI6CoordsfEENS_22__unordered_map_hasherIS2_S3_NS_4hashIS2_EENS_8equal_toIS2_EELb1EEENS_21__unordered_map_equalIS2_S3_S8_S6_Lb1EEENS_9allocatorIS3_EEE6key_eqB8ue170006Ev, symObjAddr: 0x67DC, symBinAddr: 0x10001D378, symSize: 0x28 }
  - { offsetInCU: 0x36432, offset: 0x6100A, size: 0x8, addend: 0x0, symName: __ZNKSt3__112__hash_tableINS_17__hash_value_typeI6CoordsfEENS_22__unordered_map_hasherIS2_S3_NS_4hashIS2_EENS_8equal_toIS2_EELb1EEENS_21__unordered_map_equalIS2_S3_S8_S6_Lb1EEENS_9allocatorIS3_EEE15max_load_factorB8ue170006Ev, symObjAddr: 0x682C, symBinAddr: 0x10001D3A0, symSize: 0x2C }
  - { offsetInCU: 0x36458, offset: 0x61030, size: 0x8, addend: 0x0, symName: __ZNSt3__112__hash_tableINS_17__hash_value_typeI6CoordsfEENS_22__unordered_map_hasherIS2_S3_NS_4hashIS2_EENS_8equal_toIS2_EELb1EEENS_21__unordered_map_equalIS2_S3_S8_S6_Lb1EEENS_9allocatorIS3_EEE14__assign_multiINS_21__hash_const_iteratorIPNS_11__hash_nodeIS3_PvEEEEEEvT_SM_, symObjAddr: 0x6880, symBinAddr: 0x10001D3CC, symSize: 0x1B8 }
  - { offsetInCU: 0x364D9, offset: 0x610B1, size: 0x8, addend: 0x0, symName: __ZNKSt3__112__hash_tableINS_17__hash_value_typeI6CoordsfEENS_22__unordered_map_hasherIS2_S3_NS_4hashIS2_EENS_8equal_toIS2_EELb1EEENS_21__unordered_map_equalIS2_S3_S8_S6_Lb1EEENS_9allocatorIS3_EEE5beginEv, symObjAddr: 0x6A38, symBinAddr: 0x10001D584, symSize: 0x38 }
  - { offsetInCU: 0x36501, offset: 0x610D9, size: 0x8, addend: 0x0, symName: __ZNKSt3__112__hash_tableINS_17__hash_value_typeI6CoordsfEENS_22__unordered_map_hasherIS2_S3_NS_4hashIS2_EENS_8equal_toIS2_EELb1EEENS_21__unordered_map_equalIS2_S3_S8_S6_Lb1EEENS_9allocatorIS3_EEE3endEv, symObjAddr: 0x6A70, symBinAddr: 0x10001D5BC, symSize: 0x2C }
  - { offsetInCU: 0x36529, offset: 0x61101, size: 0x8, addend: 0x0, symName: __ZNSt3__112__hash_tableINS_17__hash_value_typeI6CoordsfEENS_22__unordered_map_hasherIS2_S3_NS_4hashIS2_EENS_8equal_toIS2_EELb1EEENS_21__unordered_map_equalIS2_S3_S8_S6_Lb1EEENS_9allocatorIS3_EEE19__copy_assign_allocB8ue170006ERKSE_NS_17integral_constantIbLb0EEE, symObjAddr: 0x6A9C, symBinAddr: 0x10001D5E8, symSize: 0x14 }
  - { offsetInCU: 0x36567, offset: 0x6113F, size: 0x8, addend: 0x0, symName: __ZNKSt3__117__compressed_pairImNS_22__unordered_map_hasherI6CoordsNS_17__hash_value_typeIS2_fEENS_4hashIS2_EENS_8equal_toIS2_EELb1EEEE6secondB8ue170006Ev, symObjAddr: 0x6AB0, symBinAddr: 0x10001D5FC, symSize: 0x24 }
  - { offsetInCU: 0x3658D, offset: 0x61165, size: 0x8, addend: 0x0, symName: __ZNKSt3__122__compressed_pair_elemINS_22__unordered_map_hasherI6CoordsNS_17__hash_value_typeIS2_fEENS_4hashIS2_EENS_8equal_toIS2_EELb1EEELi1ELb1EE5__getB8ue170006Ev, symObjAddr: 0x6AD4, symBinAddr: 0x10001D620, symSize: 0x14 }
  - { offsetInCU: 0x365B3, offset: 0x6118B, size: 0x8, addend: 0x0, symName: __ZNKSt3__117__compressed_pairIfNS_21__unordered_map_equalI6CoordsNS_17__hash_value_typeIS2_fEENS_8equal_toIS2_EENS_4hashIS2_EELb1EEEE6secondB8ue170006Ev, symObjAddr: 0x6B20, symBinAddr: 0x10001D634, symSize: 0x24 }
  - { offsetInCU: 0x365D9, offset: 0x611B1, size: 0x8, addend: 0x0, symName: __ZNKSt3__122__compressed_pair_elemINS_21__unordered_map_equalI6CoordsNS_17__hash_value_typeIS2_fEENS_8equal_toIS2_EENS_4hashIS2_EELb1EEELi1ELb1EE5__getB8ue170006Ev, symObjAddr: 0x6B44, symBinAddr: 0x10001D658, symSize: 0x14 }
  - { offsetInCU: 0x365FF, offset: 0x611D7, size: 0x8, addend: 0x0, symName: __ZNKSt3__117__compressed_pairIfNS_21__unordered_map_equalI6CoordsNS_17__hash_value_typeIS2_fEENS_8equal_toIS2_EENS_4hashIS2_EELb1EEEE5firstB8ue170006Ev, symObjAddr: 0x6B90, symBinAddr: 0x10001D66C, symSize: 0x24 }
  - { offsetInCU: 0x36625, offset: 0x611FD, size: 0x8, addend: 0x0, symName: __ZNKSt3__122__compressed_pair_elemIfLi0ELb0EE5__getB8ue170006Ev, symObjAddr: 0x6BB4, symBinAddr: 0x10001D690, symSize: 0x14 }
  - { offsetInCU: 0x3664B, offset: 0x61223, size: 0x8, addend: 0x0, symName: __ZNSt3__112__hash_tableINS_17__hash_value_typeI6CoordsfEENS_22__unordered_map_hasherIS2_S3_NS_4hashIS2_EENS_8equal_toIS2_EELb1EEENS_21__unordered_map_equalIS2_S3_S8_S6_Lb1EEENS_9allocatorIS3_EEE8__detachEv, symObjAddr: 0x6C28, symBinAddr: 0x10001D6A4, symSize: 0xB4 }
  - { offsetInCU: 0x366A6, offset: 0x6127E, size: 0x8, addend: 0x0, symName: __ZNKSt3__121__hash_const_iteratorIPNS_11__hash_nodeINS_17__hash_value_typeI6CoordsfEEPvEEEdeB8ue170006Ev, symObjAddr: 0x6D10, symBinAddr: 0x10001D78C, symSize: 0x2C }
  - { offsetInCU: 0x366CC, offset: 0x612A4, size: 0x8, addend: 0x0, symName: __ZNSt3__117__hash_value_typeI6CoordsfEaSB8ue170006ERKS2_, symObjAddr: 0x6D60, symBinAddr: 0x10001D7B8, symSize: 0x60 }
  - { offsetInCU: 0x36701, offset: 0x612D9, size: 0x8, addend: 0x0, symName: __ZNSt3__112__hash_tableINS_17__hash_value_typeI6CoordsfEENS_22__unordered_map_hasherIS2_S3_NS_4hashIS2_EENS_8equal_toIS2_EELb1EEENS_21__unordered_map_equalIS2_S3_S8_S6_Lb1EEENS_9allocatorIS3_EEE19__node_insert_multiEPNS_11__hash_nodeIS3_PvEE, symObjAddr: 0x6DC0, symBinAddr: 0x10001D818, symSize: 0x8C }
  - { offsetInCU: 0x36747, offset: 0x6131F, size: 0x8, addend: 0x0, symName: __ZNSt3__121__hash_const_iteratorIPNS_11__hash_nodeINS_17__hash_value_typeI6CoordsfEEPvEEEppB8ue170006Ev, symObjAddr: 0x6E4C, symBinAddr: 0x10001D8A4, symSize: 0x20 }
  - { offsetInCU: 0x3676D, offset: 0x61345, size: 0x8, addend: 0x0, symName: __ZNSt3__112__hash_tableINS_17__hash_value_typeI6CoordsfEENS_22__unordered_map_hasherIS2_S3_NS_4hashIS2_EENS_8equal_toIS2_EELb1EEENS_21__unordered_map_equalIS2_S3_S8_S6_Lb1EEENS_9allocatorIS3_EEE14__insert_multiB8ue170006IRKNS_4pairIKS2_fEEEENS_15__hash_iteratorIPNS_11__hash_nodeIS3_PvEEEEOT_, symObjAddr: 0x6F14, symBinAddr: 0x10001D8C4, symSize: 0x34 }
  - { offsetInCU: 0x367AB, offset: 0x61383, size: 0x8, addend: 0x0, symName: __ZNSt3__122__hash_key_value_typesINS_17__hash_value_typeI6CoordsfEEE11__get_valueB8ue170006IKS3_EENS_9enable_ifIXsr17__is_same_uncvrefIT_S3_EE5valueERKNS_4pairIKS2_fEEE4typeERS8_, symObjAddr: 0x6F48, symBinAddr: 0x10001D8F8, symSize: 0x24 }
  - { offsetInCU: 0x367D7, offset: 0x613AF, size: 0x8, addend: 0x0, symName: __ZNSt3__117__hash_value_typeI6CoordsfE5__refB8ue170006Ev, symObjAddr: 0x7198, symBinAddr: 0x10001D94C, symSize: 0x44 }
  - { offsetInCU: 0x3680C, offset: 0x613E4, size: 0x8, addend: 0x0, symName: __ZNSt3__14pairIR6CoordsRfEaSB8ue170006IKS1_fLPv0EEERS4_RKNS0_IT_T0_EE, symObjAddr: 0x71DC, symBinAddr: 0x10001D990, symSize: 0x38 }
  - { offsetInCU: 0x36859, offset: 0x61431, size: 0x8, addend: 0x0, symName: __ZNSt3__14pairIR6CoordsRfEC1B8ue170006ILb1ELPv0EEES2_S3_, symObjAddr: 0x7270, symBinAddr: 0x10001D9C8, symSize: 0x3C }
  - { offsetInCU: 0x368AF, offset: 0x61487, size: 0x8, addend: 0x0, symName: __ZNSt3__14pairIR6CoordsRfEC2B8ue170006ILb1ELPv0EEES2_S3_, symObjAddr: 0x72E4, symBinAddr: 0x10001DA04, symSize: 0x2C }
  - { offsetInCU: 0x36905, offset: 0x614DD, size: 0x8, addend: 0x0, symName: __ZNKSt3__122__unordered_map_hasherI6CoordsNS_17__hash_value_typeIS1_fEENS_4hashIS1_EENS_8equal_toIS1_EELb1EEclB8ue170006ERKS3_, symObjAddr: 0x7310, symBinAddr: 0x10001DA30, symSize: 0x3C }
  - { offsetInCU: 0x3693A, offset: 0x61512, size: 0x8, addend: 0x0, symName: __ZNSt3__112__hash_tableINS_17__hash_value_typeI6CoordsfEENS_22__unordered_map_hasherIS2_S3_NS_4hashIS2_EENS_8equal_toIS2_EELb1EEENS_21__unordered_map_equalIS2_S3_S8_S6_Lb1EEENS_9allocatorIS3_EEE27__node_insert_multi_prepareEmRS3_, symObjAddr: 0x734C, symBinAddr: 0x10001DA6C, symSize: 0x29C }
  - { offsetInCU: 0x369CB, offset: 0x615A3, size: 0x8, addend: 0x0, symName: __ZNSt3__112__hash_tableINS_17__hash_value_typeI6CoordsfEENS_22__unordered_map_hasherIS2_S3_NS_4hashIS2_EENS_8equal_toIS2_EELb1EEENS_21__unordered_map_equalIS2_S3_S8_S6_Lb1EEENS_9allocatorIS3_EEE27__node_insert_multi_performEPNS_11__hash_nodeIS3_PvEEPNS_16__hash_node_baseISI_EE, symObjAddr: 0x7600, symBinAddr: 0x10001DD08, symSize: 0x1B8 }
  - { offsetInCU: 0x36A4C, offset: 0x61624, size: 0x8, addend: 0x0, symName: __ZNSt3__112__hash_tableINS_17__hash_value_typeI6CoordsfEENS_22__unordered_map_hasherIS2_S3_NS_4hashIS2_EENS_8equal_toIS2_EELb1EEENS_21__unordered_map_equalIS2_S3_S8_S6_Lb1EEENS_9allocatorIS3_EEE14__rehash_multiB8ue170006Em, symObjAddr: 0x7810, symBinAddr: 0x10001DEC0, symSize: 0x2C }
  - { offsetInCU: 0x36A81, offset: 0x61659, size: 0x8, addend: 0x0, symName: __ZNKSt3__121__unordered_map_equalI6CoordsNS_17__hash_value_typeIS1_fEENS_8equal_toIS1_EENS_4hashIS1_EELb1EEclB8ue170006ERKS3_SA_, symObjAddr: 0x793C, symBinAddr: 0x10001DEEC, symSize: 0x54 }
  - { offsetInCU: 0x36AC5, offset: 0x6169D, size: 0x8, addend: 0x0, symName: __ZNSt3__112__hash_tableINS_17__hash_value_typeI6CoordsfEENS_22__unordered_map_hasherIS2_S3_NS_4hashIS2_EENS_8equal_toIS2_EELb1EEENS_21__unordered_map_equalIS2_S3_S8_S6_Lb1EEENS_9allocatorIS3_EEE8__rehashILb0EEEvm, symObjAddr: 0x7990, symBinAddr: 0x10001DF40, symSize: 0x1A8 }
  - { offsetInCU: 0x36B15, offset: 0x616ED, size: 0x8, addend: 0x0, symName: __ZNSt3__112__hash_tableINS_17__hash_value_typeI6CoordsfEENS_22__unordered_map_hasherIS2_S3_NS_4hashIS2_EENS_8equal_toIS2_EELb1EEENS_21__unordered_map_equalIS2_S3_S8_S6_Lb1EEENS_9allocatorIS3_EEE11__do_rehashILb0EEEvm, symObjAddr: 0x7B38, symBinAddr: 0x10001E0E8, symSize: 0x310 }
  - { offsetInCU: 0x36BF8, offset: 0x617D0, size: 0x8, addend: 0x0, symName: __ZNSt3__112__hash_tableINS_17__hash_value_typeI6CoordsfEENS_22__unordered_map_hasherIS2_S3_NS_4hashIS2_EENS_8equal_toIS2_EELb1EEENS_21__unordered_map_equalIS2_S3_S8_S6_Lb1EEENS_9allocatorIS3_EEE15__emplace_multiIJRKNS_4pairIKS2_fEEEEENS_15__hash_iteratorIPNS_11__hash_nodeIS3_PvEEEEDpOT_, symObjAddr: 0x83A4, symBinAddr: 0x10001E3F8, symSize: 0x94 }
  - { offsetInCU: 0x36C58, offset: 0x61830, size: 0x8, addend: 0x0, symName: __ZNSt3__112__hash_tableINS_17__hash_value_typeI6CoordsfEENS_22__unordered_map_hasherIS2_S3_NS_4hashIS2_EENS_8equal_toIS2_EELb1EEENS_21__unordered_map_equalIS2_S3_S8_S6_Lb1EEENS_9allocatorIS3_EEE16__construct_nodeIJRKNS_4pairIKS2_fEEEEENS_10unique_ptrINS_11__hash_nodeIS3_PvEENS_22__hash_node_destructorINSC_ISO_EEEEEEDpOT_, symObjAddr: 0x8438, symBinAddr: 0x10001E48C, symSize: 0x160 }
  - { offsetInCU: 0x36CB9, offset: 0x61891, size: 0x8, addend: 0x0, symName: __ZNSt3__116allocator_traitsINS_9allocatorINS_11__hash_nodeINS_17__hash_value_typeI6CoordsfEEPvEEEEE9constructB8ue170006INS_4pairIKS4_fEEJRKSD_EvvEEvRS8_PT_DpOT0_, symObjAddr: 0x86E0, symBinAddr: 0x10001E5EC, symSize: 0x30 }
  - { offsetInCU: 0x36D19, offset: 0x618F1, size: 0x8, addend: 0x0, symName: __ZNKSt3__117__compressed_pairINS_16__hash_node_baseIPNS_11__hash_nodeINS_17__hash_value_typeI6CoordsfEEPvEEEENS_9allocatorIS7_EEE5firstB8ue170006Ev, symObjAddr: 0x8B40, symBinAddr: 0x10001E650, symSize: 0x24 }
  - { offsetInCU: 0x36D3F, offset: 0x61917, size: 0x8, addend: 0x0, symName: __ZNSt3__121__hash_const_iteratorIPNS_11__hash_nodeINS_17__hash_value_typeI6CoordsfEEPvEEEC1B8ue170006EPNS_16__hash_node_baseIS7_EE, symObjAddr: 0x8B64, symBinAddr: 0x10001E674, symSize: 0x34 }
  - { offsetInCU: 0x36D78, offset: 0x61950, size: 0x8, addend: 0x0, symName: __ZNKSt3__122__compressed_pair_elemINS_16__hash_node_baseIPNS_11__hash_nodeINS_17__hash_value_typeI6CoordsfEEPvEEEELi0ELb0EE5__getB8ue170006Ev, symObjAddr: 0x8B98, symBinAddr: 0x10001E6A8, symSize: 0x14 }
  - { offsetInCU: 0x36D9E, offset: 0x61976, size: 0x8, addend: 0x0, symName: __ZNSt3__121__hash_const_iteratorIPNS_11__hash_nodeINS_17__hash_value_typeI6CoordsfEEPvEEEC2B8ue170006EPNS_16__hash_node_baseIS7_EE, symObjAddr: 0x8BAC, symBinAddr: 0x10001E6BC, symSize: 0x20 }
  - { offsetInCU: 0x36DD7, offset: 0x619AF, size: 0x8, addend: 0x0, symName: __ZNKSt3__16__lessIvvEclB8ue170006IffEEbRKT_RKT0_, symObjAddr: 0x8C20, symBinAddr: 0x10001E730, symSize: 0x34 }
  - { offsetInCU: 0x36E2B, offset: 0x61A03, size: 0x8, addend: 0x0, symName: __ZN9Simulator16HouseWallsSensorD2Ev, symObjAddr: 0x8C54, symBinAddr: 0x10001E764, symSize: 0x2C }
  - { offsetInCU: 0x36E57, offset: 0x61A2F, size: 0x8, addend: 0x0, symName: __ZN11WallsSensorD2Ev, symObjAddr: 0x8C80, symBinAddr: 0x10001E790, symSize: 0x14 }
  - { offsetInCU: 0x36E81, offset: 0x61A59, size: 0x8, addend: 0x0, symName: __ZN9Simulator17HouseBatteryMeterD2Ev, symObjAddr: 0x8C94, symBinAddr: 0x10001E7A4, symSize: 0x2C }
  - { offsetInCU: 0x36EAD, offset: 0x61A85, size: 0x8, addend: 0x0, symName: __ZN12BatteryMeterD2Ev, symObjAddr: 0x8CC0, symBinAddr: 0x10001E7D0, symSize: 0x14 }
  - { offsetInCU: 0x36ED7, offset: 0x61AAF, size: 0x8, addend: 0x0, symName: __ZN9Simulator15HouseDirtSensorD2Ev, symObjAddr: 0x8CD4, symBinAddr: 0x10001E7E4, symSize: 0x2C }
  - { offsetInCU: 0x36F03, offset: 0x61ADB, size: 0x8, addend: 0x0, symName: __ZN10DirtSensorD2Ev, symObjAddr: 0x8D00, symBinAddr: 0x10001E810, symSize: 0x14 }
  - { offsetInCU: 0x36F2D, offset: 0x61B05, size: 0x8, addend: 0x0, symName: __ZNSt3__19basic_iosIcNS_11char_traitsIcEEEC2B8ue170006Ev, symObjAddr: 0x8D14, symBinAddr: 0x10001E824, symSize: 0x44 }
  - { offsetInCU: 0x36F57, offset: 0x61B2F, size: 0x8, addend: 0x0, symName: __ZNSt3__113basic_ostreamIcNS_11char_traitsIcEEEC2B8ue170006EPNS_15basic_streambufIcS2_EE, symObjAddr: 0x8D58, symBinAddr: 0x10001E868, symSize: 0x60 }
  - { offsetInCU: 0x36F9C, offset: 0x61B74, size: 0x8, addend: 0x0, symName: __ZNSt3__113basic_filebufIcNS_11char_traitsIcEEE4openERKNS_12basic_stringIcS2_NS_9allocatorIcEEEEj, symObjAddr: 0x8DB8, symBinAddr: 0x10001E8C8, symSize: 0x44 }
  - { offsetInCU: 0x36FE0, offset: 0x61BB8, size: 0x8, addend: 0x0, symName: __ZNSt3__18ios_baseC2B8ue170006Ev, symObjAddr: 0x8E28, symBinAddr: 0x10001E90C, symSize: 0x24 }
  - { offsetInCU: 0x3700A, offset: 0x61BE2, size: 0x8, addend: 0x0, symName: __ZNSt3__19basic_iosIcNS_11char_traitsIcEEE4initB8ue170006EPNS_15basic_streambufIcS2_EE, symObjAddr: 0x8E4C, symBinAddr: 0x10001E930, symSize: 0x44 }
  - { offsetInCU: 0x37041, offset: 0x61C19, size: 0x8, addend: 0x0, symName: __ZNKSt3__112basic_stringIcNS_11char_traitsIcEENS_9allocatorIcEEE5c_strB8ue170006Ev, symObjAddr: 0x8E98, symBinAddr: 0x10001E974, symSize: 0x24 }
  - { offsetInCU: 0x37067, offset: 0x61C3F, size: 0x8, addend: 0x0, symName: __ZNKSt3__112basic_stringIcNS_11char_traitsIcEENS_9allocatorIcEEE4dataB8ue170006Ev, symObjAddr: 0x8EBC, symBinAddr: 0x10001E998, symSize: 0x28 }
  - { offsetInCU: 0x3708D, offset: 0x61C65, size: 0x8, addend: 0x0, symName: __ZNKSt3__112basic_stringIcNS_11char_traitsIcEENS_9allocatorIcEEE13__get_pointerB8ue170006Ev, symObjAddr: 0x8EF8, symBinAddr: 0x10001E9D4, symSize: 0x54 }
  - { offsetInCU: 0x370B3, offset: 0x61C8B, size: 0x8, addend: 0x0, symName: __ZNKSt3__112basic_stringIcNS_11char_traitsIcEENS_9allocatorIcEEE18__get_long_pointerB8ue170006Ev, symObjAddr: 0x8F4C, symBinAddr: 0x10001EA28, symSize: 0x28 }
  - { offsetInCU: 0x370D9, offset: 0x61CB1, size: 0x8, addend: 0x0, symName: __ZNKSt3__112basic_stringIcNS_11char_traitsIcEENS_9allocatorIcEEE19__get_short_pointerB8ue170006Ev, symObjAddr: 0x8F74, symBinAddr: 0x10001EA50, symSize: 0x28 }
  - { offsetInCU: 0x370FF, offset: 0x61CD7, size: 0x8, addend: 0x0, symName: __ZNSt3__114pointer_traitsIPKcE10pointer_toB8ue170006ERS1_, symObjAddr: 0x8F9C, symBinAddr: 0x10001EA78, symSize: 0x14 }
  - { offsetInCU: 0x37122, offset: 0x61CFA, size: 0x8, addend: 0x0, symName: __ZNKSt3__19basic_iosIcNS_11char_traitsIcEEE4failB8ue170006Ev, symObjAddr: 0x8FE4, symBinAddr: 0x10001EA8C, symSize: 0x28 }
  - { offsetInCU: 0x37148, offset: 0x61D20, size: 0x8, addend: 0x0, symName: __ZNKSt3__18ios_base4failB8ue170006Ev, symObjAddr: 0x900C, symBinAddr: 0x10001EAB4, symSize: 0x28 }
  - { offsetInCU: 0x37193, offset: 0x61D6B, size: 0x8, addend: 0x0, symName: __ZNSt3__113basic_istreamIcNS_11char_traitsIcEEEC2B8ue170006EPNS_15basic_streambufIcS2_EE, symObjAddr: 0x9878, symBinAddr: 0x10001EADC, symSize: 0x64 }
  - { offsetInCU: 0x371D8, offset: 0x61DB0, size: 0x8, addend: 0x0, symName: __ZNSt3__111basic_regexIcNS_12regex_traitsIcEEEC2B8ue170006EPKcNS_15regex_constants18syntax_option_typeE, symObjAddr: 0x98DC, symBinAddr: 0x10001EB40, symSize: 0xC8 }
  - { offsetInCU: 0x37220, offset: 0x61DF8, size: 0x8, addend: 0x0, symName: __ZNSt3__112regex_traitsIcEC1Ev, symObjAddr: 0x99A4, symBinAddr: 0x10001EC08, symSize: 0x2C }
  - { offsetInCU: 0x3724C, offset: 0x61E24, size: 0x8, addend: 0x0, symName: __ZNSt3__110shared_ptrINS_13__empty_stateIcEEEC1B8ue170006Ev, symObjAddr: 0x99D0, symBinAddr: 0x10001EC34, symSize: 0x2C }
  - { offsetInCU: 0x37276, offset: 0x61E4E, size: 0x8, addend: 0x0, symName: __ZNSt3__111basic_regexIcNS_12regex_traitsIcEEE6__initIPKcEEvT_S7_, symObjAddr: 0x99FC, symBinAddr: 0x10001EC60, symSize: 0x88 }
  - { offsetInCU: 0x372D4, offset: 0x61EAC, size: 0x8, addend: 0x0, symName: __ZNSt3__112regex_traitsIcE6lengthB8ue170006EPKc, symObjAddr: 0x9A84, symBinAddr: 0x10001ECE8, symSize: 0x24 }
  - { offsetInCU: 0x372F8, offset: 0x61ED0, size: 0x8, addend: 0x0, symName: __ZNSt3__112regex_traitsIcEC2Ev, symObjAddr: 0x9AA8, symBinAddr: 0x10001ED0C, symSize: 0x5C }
  - { offsetInCU: 0x37324, offset: 0x61EFC, size: 0x8, addend: 0x0, symName: __ZNSt3__112regex_traitsIcE6__initEv, symObjAddr: 0x9B04, symBinAddr: 0x10001ED68, symSize: 0x40 }
  - { offsetInCU: 0x3734C, offset: 0x61F24, size: 0x8, addend: 0x0, symName: __ZNSt3__110shared_ptrINS_13__empty_stateIcEEEC2B8ue170006Ev, symObjAddr: 0x9B70, symBinAddr: 0x10001EDD4, symSize: 0x1C }
  - { offsetInCU: 0x37376, offset: 0x61F4E, size: 0x8, addend: 0x0, symName: __ZNSt3__111basic_regexIcNS_12regex_traitsIcEEE7__parseIPKcEET_S7_S7_, symObjAddr: 0x9BE0, symBinAddr: 0x10001EE44, symSize: 0x21C }
  - { offsetInCU: 0x373F1, offset: 0x61FC9, size: 0x8, addend: 0x0, symName: __ZNSt3__111__end_stateIcEC1B8ue170006Ev, symObjAddr: 0x9E7C, symBinAddr: 0x10001F0E0, symSize: 0x2C }
  - { offsetInCU: 0x374BC, offset: 0x62094, size: 0x8, addend: 0x0, symName: __ZNSt3__110unique_ptrINS_6__nodeIcEENS_14default_deleteIS2_EEEC1B8ue170006ILb1EvEEPS2_, symObjAddr: 0x9EA8, symBinAddr: 0x10001F10C, symSize: 0x34 }
  - { offsetInCU: 0x37505, offset: 0x620DD, size: 0x8, addend: 0x0, symName: __ZNSt3__110shared_ptrINS_13__empty_stateIcEEE5resetB8ue170006IS2_vEEvPT_, symObjAddr: 0x9EDC, symBinAddr: 0x10001F140, symSize: 0x4C }
  - { offsetInCU: 0x37544, offset: 0x6211C, size: 0x8, addend: 0x0, symName: __ZNKSt3__110unique_ptrINS_6__nodeIcEENS_14default_deleteIS2_EEE3getB8ue170006Ev, symObjAddr: 0x9F28, symBinAddr: 0x10001F18C, symSize: 0x28 }
  - { offsetInCU: 0x3756A, offset: 0x62142, size: 0x8, addend: 0x0, symName: __ZNSt3__113__empty_stateIcEC1B8ue170006EPNS_6__nodeIcEE, symObjAddr: 0x9F50, symBinAddr: 0x10001F1B4, symSize: 0x34 }
  - { offsetInCU: 0x375A3, offset: 0x6217B, size: 0x8, addend: 0x0, symName: __ZNSt3__110unique_ptrINS_6__nodeIcEENS_14default_deleteIS2_EEE7releaseB8ue170006Ev, symObjAddr: 0x9F84, symBinAddr: 0x10001F1E8, symSize: 0x44 }
  - { offsetInCU: 0x375D8, offset: 0x621B0, size: 0x8, addend: 0x0, symName: __ZNKSt3__110shared_ptrINS_13__empty_stateIcEEE3getB8ue170006Ev, symObjAddr: 0x9FC8, symBinAddr: 0x10001F22C, symSize: 0x18 }
  - { offsetInCU: 0x375FE, offset: 0x621D6, size: 0x8, addend: 0x0, symName: __ZNSt3__110unique_ptrINS_6__nodeIcEENS_14default_deleteIS2_EEED1B8ue170006Ev, symObjAddr: 0x9FE0, symBinAddr: 0x10001F244, symSize: 0x2C }
  - { offsetInCU: 0x37628, offset: 0x62200, size: 0x8, addend: 0x0, symName: __ZNSt3__111basic_regexIcNS_12regex_traitsIcEEE16__parse_ecma_expIPKcEET_S7_S7_, symObjAddr: 0xA00C, symBinAddr: 0x10001F270, symSize: 0x124 }
  - { offsetInCU: 0x376B2, offset: 0x6228A, size: 0x8, addend: 0x0, symName: __ZNSt3__111basic_regexIcNS_12regex_traitsIcEEE21__parse_basic_reg_expIPKcEET_S7_S7_, symObjAddr: 0xA130, symBinAddr: 0x10001F394, symSize: 0x13C }
  - { offsetInCU: 0x3771E, offset: 0x622F6, size: 0x8, addend: 0x0, symName: __ZNSt3__111basic_regexIcNS_12regex_traitsIcEEE24__parse_extended_reg_expIPKcEET_S7_S7_, symObjAddr: 0xA26C, symBinAddr: 0x10001F4D0, symSize: 0x114 }
  - { offsetInCU: 0x377A8, offset: 0x62380, size: 0x8, addend: 0x0, symName: __ZNSt3__111basic_regexIcNS_12regex_traitsIcEEE12__parse_grepIPKcEET_S7_S7_, symObjAddr: 0xA380, symBinAddr: 0x10001F5E4, symSize: 0x17C }
  - { offsetInCU: 0x37832, offset: 0x6240A, size: 0x8, addend: 0x0, symName: __ZNSt3__111basic_regexIcNS_12regex_traitsIcEEE13__parse_egrepIPKcEET_S7_S7_, symObjAddr: 0xA4FC, symBinAddr: 0x10001F760, symSize: 0x17C }
  - { offsetInCU: 0x378BC, offset: 0x62494, size: 0x8, addend: 0x0, symName: __ZNSt3__111__end_stateIcEC2B8ue170006Ev, symObjAddr: 0xA6D8, symBinAddr: 0x10001F93C, symSize: 0x44 }
  - { offsetInCU: 0x378E6, offset: 0x624BE, size: 0x8, addend: 0x0, symName: __ZNSt3__16__nodeIcEC2B8ue170006Ev, symObjAddr: 0xA71C, symBinAddr: 0x10001F980, symSize: 0x24 }
  - { offsetInCU: 0x37910, offset: 0x624E8, size: 0x8, addend: 0x0, symName: __ZNSt3__111__end_stateIcED1Ev, symObjAddr: 0xA740, symBinAddr: 0x10001F9A4, symSize: 0x2C }
  - { offsetInCU: 0x3793D, offset: 0x62515, size: 0x8, addend: 0x0, symName: __ZNSt3__111__end_stateIcED0Ev, symObjAddr: 0xA76C, symBinAddr: 0x10001F9D0, symSize: 0x30 }
  - { offsetInCU: 0x3796A, offset: 0x62542, size: 0x8, addend: 0x0, symName: __ZNKSt3__111__end_stateIcE6__execERNS_7__stateIcEE, symObjAddr: 0xA79C, symBinAddr: 0x10001FA00, symSize: 0x20 }
  - { offsetInCU: 0x379A1, offset: 0x62579, size: 0x8, addend: 0x0, symName: __ZNKSt3__16__nodeIcE12__exec_splitEbRNS_7__stateIcEE, symObjAddr: 0xA7BC, symBinAddr: 0x10001FA20, symSize: 0x1C }
  - { offsetInCU: 0x379DF, offset: 0x625B7, size: 0x8, addend: 0x0, symName: __ZNSt3__16__nodeIcED1Ev, symObjAddr: 0xA7D8, symBinAddr: 0x10001FA3C, symSize: 0x2C }
  - { offsetInCU: 0x37A09, offset: 0x625E1, size: 0x8, addend: 0x0, symName: __ZNSt3__16__nodeIcED0Ev, symObjAddr: 0xA804, symBinAddr: 0x10001FA68, symSize: 0x30 }
  - { offsetInCU: 0x37A33, offset: 0x6260B, size: 0x8, addend: 0x0, symName: __ZNKSt3__16__nodeIcE6__execERNS_7__stateIcEE, symObjAddr: 0xA834, symBinAddr: 0x10001FA98, symSize: 0x14 }
  - { offsetInCU: 0x37A65, offset: 0x6263D, size: 0x8, addend: 0x0, symName: __ZNSt3__16__nodeIcED2Ev, symObjAddr: 0xA848, symBinAddr: 0x10001FAAC, symSize: 0x14 }
  - { offsetInCU: 0x37A8F, offset: 0x62667, size: 0x8, addend: 0x0, symName: __ZNSt3__111__end_stateIcED2Ev, symObjAddr: 0xA85C, symBinAddr: 0x10001FAC0, symSize: 0x2C }
  - { offsetInCU: 0x37ABC, offset: 0x62694, size: 0x8, addend: 0x0, symName: __ZNSt3__110unique_ptrINS_6__nodeIcEENS_14default_deleteIS2_EEEC2B8ue170006ILb1EvEEPS2_, symObjAddr: 0xA888, symBinAddr: 0x10001FAEC, symSize: 0x44 }
  - { offsetInCU: 0x37B05, offset: 0x626DD, size: 0x8, addend: 0x0, symName: __ZNSt3__117__compressed_pairIPNS_6__nodeIcEENS_14default_deleteIS2_EEEC1B8ue170006IRS3_NS_16__value_init_tagEEEOT_OT0_, symObjAddr: 0xA8CC, symBinAddr: 0x10001FB30, symSize: 0x3C }
  - { offsetInCU: 0x37B5D, offset: 0x62735, size: 0x8, addend: 0x0, symName: __ZNSt3__117__compressed_pairIPNS_6__nodeIcEENS_14default_deleteIS2_EEEC2B8ue170006IRS3_NS_16__value_init_tagEEEOT_OT0_, symObjAddr: 0xA908, symBinAddr: 0x10001FB6C, symSize: 0x40 }
  - { offsetInCU: 0x37BB5, offset: 0x6278D, size: 0x8, addend: 0x0, symName: __ZNSt3__122__compressed_pair_elemIPNS_6__nodeIcEELi0ELb0EEC2B8ue170006IRS3_vEEOT_, symObjAddr: 0xA948, symBinAddr: 0x10001FBAC, symSize: 0x24 }
  - { offsetInCU: 0x37BF7, offset: 0x627CF, size: 0x8, addend: 0x0, symName: __ZNSt3__122__compressed_pair_elemINS_14default_deleteINS_6__nodeIcEEEELi1ELb1EEC2B8ue170006ENS_16__value_init_tagE, symObjAddr: 0xA96C, symBinAddr: 0x10001FBD0, symSize: 0x14 }
  - { offsetInCU: 0x37C2C, offset: 0x62804, size: 0x8, addend: 0x0, symName: __ZNSt3__110shared_ptrINS_13__empty_stateIcEEEC1B8ue170006IS2_vEEPT_, symObjAddr: 0xA980, symBinAddr: 0x10001FBE4, symSize: 0x34 }
  - { offsetInCU: 0x37C6F, offset: 0x62847, size: 0x8, addend: 0x0, symName: __ZNSt3__110shared_ptrINS_13__empty_stateIcEEE4swapB8ue170006ERS3_, symObjAddr: 0xA9B4, symBinAddr: 0x10001FC18, symSize: 0x44 }
  - { offsetInCU: 0x37CA4, offset: 0x6287C, size: 0x8, addend: 0x0, symName: __ZNSt3__110shared_ptrINS_13__empty_stateIcEEEC2B8ue170006IS2_vEEPT_, symObjAddr: 0xA9F8, symBinAddr: 0x10001FC5C, symSize: 0xEC }
  - { offsetInCU: 0x37DA3, offset: 0x6297B, size: 0x8, addend: 0x0, symName: __ZNSt3__110unique_ptrINS_13__empty_stateIcEENS_14default_deleteIS2_EEEC1B8ue170006ILb1EvEEPS2_, symObjAddr: 0xAAE4, symBinAddr: 0x10001FD48, symSize: 0x34 }
  - { offsetInCU: 0x37DF2, offset: 0x629CA, size: 0x8, addend: 0x0, symName: __ZNSt3__19allocatorINS_13__empty_stateIcEEEC1B8ue170006Ev, symObjAddr: 0xAB18, symBinAddr: 0x10001FD7C, symSize: 0x2C }
  - { offsetInCU: 0x37ED4, offset: 0x62AAC, size: 0x8, addend: 0x0, symName: __ZNSt3__120__shared_ptr_pointerIPNS_13__empty_stateIcEENS_10shared_ptrIS2_E27__shared_ptr_default_deleteIS2_S2_EENS_9allocatorIS2_EEEC1B8ue170006ES3_S7_S9_, symObjAddr: 0xAB44, symBinAddr: 0x10001FDA8, symSize: 0x34 }
  - { offsetInCU: 0x37F28, offset: 0x62B00, size: 0x8, addend: 0x0, symName: __ZNSt3__110unique_ptrINS_13__empty_stateIcEENS_14default_deleteIS2_EEE7releaseB8ue170006Ev, symObjAddr: 0xAB78, symBinAddr: 0x10001FDDC, symSize: 0x44 }
  - { offsetInCU: 0x37F5D, offset: 0x62B35, size: 0x8, addend: 0x0, symName: __ZNSt3__110shared_ptrINS_13__empty_stateIcEEE18__enable_weak_thisB8ue170006Ez, symObjAddr: 0xABBC, symBinAddr: 0x10001FE20, symSize: 0x10 }
  - { offsetInCU: 0x37F85, offset: 0x62B5D, size: 0x8, addend: 0x0, symName: __ZNSt3__110unique_ptrINS_13__empty_stateIcEENS_14default_deleteIS2_EEED1B8ue170006Ev, symObjAddr: 0xABCC, symBinAddr: 0x10001FE30, symSize: 0x2C }
  - { offsetInCU: 0x37FAF, offset: 0x62B87, size: 0x8, addend: 0x0, symName: __ZNSt3__110unique_ptrINS_13__empty_stateIcEENS_14default_deleteIS2_EEEC2B8ue170006ILb1EvEEPS2_, symObjAddr: 0xABF8, symBinAddr: 0x10001FE5C, symSize: 0x44 }
  - { offsetInCU: 0x37FF2, offset: 0x62BCA, size: 0x8, addend: 0x0, symName: __ZNSt3__117__compressed_pairIPNS_13__empty_stateIcEENS_14default_deleteIS2_EEEC1B8ue170006IRS3_NS_16__value_init_tagEEEOT_OT0_, symObjAddr: 0xAC3C, symBinAddr: 0x10001FEA0, symSize: 0x3C }
  - { offsetInCU: 0x3804A, offset: 0x62C22, size: 0x8, addend: 0x0, symName: __ZNSt3__117__compressed_pairIPNS_13__empty_stateIcEENS_14default_deleteIS2_EEEC2B8ue170006IRS3_NS_16__value_init_tagEEEOT_OT0_, symObjAddr: 0xAC78, symBinAddr: 0x10001FEDC, symSize: 0x40 }
  - { offsetInCU: 0x380A2, offset: 0x62C7A, size: 0x8, addend: 0x0, symName: __ZNSt3__122__compressed_pair_elemIPNS_13__empty_stateIcEELi0ELb0EEC2B8ue170006IRS3_vEEOT_, symObjAddr: 0xACB8, symBinAddr: 0x10001FF1C, symSize: 0x24 }
  - { offsetInCU: 0x380E4, offset: 0x62CBC, size: 0x8, addend: 0x0, symName: __ZNSt3__122__compressed_pair_elemINS_14default_deleteINS_13__empty_stateIcEEEELi1ELb1EEC2B8ue170006ENS_16__value_init_tagE, symObjAddr: 0xACDC, symBinAddr: 0x10001FF40, symSize: 0x14 }
  - { offsetInCU: 0x38119, offset: 0x62CF1, size: 0x8, addend: 0x0, symName: __ZNSt3__19allocatorINS_13__empty_stateIcEEEC2B8ue170006Ev, symObjAddr: 0xACF0, symBinAddr: 0x10001FF54, symSize: 0x2C }
  - { offsetInCU: 0x38143, offset: 0x62D1B, size: 0x8, addend: 0x0, symName: __ZNSt3__116__non_trivial_ifILb1ENS_9allocatorINS_13__empty_stateIcEEEEEC2B8ue170006Ev, symObjAddr: 0xAD1C, symBinAddr: 0x10001FF80, symSize: 0x14 }
  - { offsetInCU: 0x3816D, offset: 0x62D45, size: 0x8, addend: 0x0, symName: __ZNSt3__120__shared_ptr_pointerIPNS_13__empty_stateIcEENS_10shared_ptrIS2_E27__shared_ptr_default_deleteIS2_S2_EENS_9allocatorIS2_EEEC2B8ue170006ES3_S7_S9_, symObjAddr: 0xAD30, symBinAddr: 0x10001FF94, symSize: 0xA8 }
  - { offsetInCU: 0x381C1, offset: 0x62D99, size: 0x8, addend: 0x0, symName: __ZNSt3__119__shared_weak_countC2B8ue170006El, symObjAddr: 0xADD8, symBinAddr: 0x10002003C, symSize: 0x54 }
  - { offsetInCU: 0x381FF, offset: 0x62DD7, size: 0x8, addend: 0x0, symName: __ZNSt3__117__compressed_pairIPNS_13__empty_stateIcEENS_10shared_ptrIS2_E27__shared_ptr_default_deleteIS2_S2_EEEC1B8ue170006IRS3_S7_EEOT_OT0_, symObjAddr: 0xAE2C, symBinAddr: 0x100020090, symSize: 0x3C }
  - { offsetInCU: 0x38263, offset: 0x62E3B, size: 0x8, addend: 0x0, symName: __ZNSt3__117__compressed_pairINS0_IPNS_13__empty_stateIcEENS_10shared_ptrIS2_E27__shared_ptr_default_deleteIS2_S2_EEEENS_9allocatorIS2_EEEC1B8ue170006IS8_SA_EEOT_OT0_, symObjAddr: 0xAE68, symBinAddr: 0x1000200CC, symSize: 0x3C }
  - { offsetInCU: 0x382BB, offset: 0x62E93, size: 0x8, addend: 0x0, symName: __ZNSt3__120__shared_ptr_pointerIPNS_13__empty_stateIcEENS_10shared_ptrIS2_E27__shared_ptr_default_deleteIS2_S2_EENS_9allocatorIS2_EEED1Ev, symObjAddr: 0xAEA4, symBinAddr: 0x100020108, symSize: 0x2C }
  - { offsetInCU: 0x382E7, offset: 0x62EBF, size: 0x8, addend: 0x0, symName: __ZNSt3__120__shared_ptr_pointerIPNS_13__empty_stateIcEENS_10shared_ptrIS2_E27__shared_ptr_default_deleteIS2_S2_EENS_9allocatorIS2_EEED0Ev, symObjAddr: 0xAED0, symBinAddr: 0x100020134, symSize: 0x30 }
  - { offsetInCU: 0x38313, offset: 0x62EEB, size: 0x8, addend: 0x0, symName: __ZNSt3__120__shared_ptr_pointerIPNS_13__empty_stateIcEENS_10shared_ptrIS2_E27__shared_ptr_default_deleteIS2_S2_EENS_9allocatorIS2_EEE16__on_zero_sharedEv, symObjAddr: 0xAF00, symBinAddr: 0x100020164, symSize: 0x64 }
  - { offsetInCU: 0x3833B, offset: 0x62F13, size: 0x8, addend: 0x0, symName: __ZNKSt3__120__shared_ptr_pointerIPNS_13__empty_stateIcEENS_10shared_ptrIS2_E27__shared_ptr_default_deleteIS2_S2_EENS_9allocatorIS2_EEE13__get_deleterERKSt9type_info, symObjAddr: 0xAF64, symBinAddr: 0x1000201C8, symSize: 0x68 }
  - { offsetInCU: 0x38370, offset: 0x62F48, size: 0x8, addend: 0x0, symName: __ZNSt3__120__shared_ptr_pointerIPNS_13__empty_stateIcEENS_10shared_ptrIS2_E27__shared_ptr_default_deleteIS2_S2_EENS_9allocatorIS2_EEE21__on_zero_shared_weakEv, symObjAddr: 0xAFCC, symBinAddr: 0x100020230, symSize: 0x60 }
  - { offsetInCU: 0x383B3, offset: 0x62F8B, size: 0x8, addend: 0x0, symName: __ZNSt3__114__shared_countC2B8ue170006El, symObjAddr: 0xB02C, symBinAddr: 0x100020290, symSize: 0x30 }
  - { offsetInCU: 0x383EB, offset: 0x62FC3, size: 0x8, addend: 0x0, symName: __ZNSt3__117__compressed_pairIPNS_13__empty_stateIcEENS_10shared_ptrIS2_E27__shared_ptr_default_deleteIS2_S2_EEEC2B8ue170006IRS3_S7_EEOT_OT0_, symObjAddr: 0xB05C, symBinAddr: 0x1000202C0, symSize: 0x44 }
  - { offsetInCU: 0x38443, offset: 0x6301B, size: 0x8, addend: 0x0, symName: __ZNSt3__122__compressed_pair_elemINS_10shared_ptrINS_13__empty_stateIcEEE27__shared_ptr_default_deleteIS3_S3_EELi1ELb1EEC2B8ue170006IS6_vEEOT_, symObjAddr: 0xB0A0, symBinAddr: 0x100020304, symSize: 0x18 }
  - { offsetInCU: 0x38485, offset: 0x6305D, size: 0x8, addend: 0x0, symName: __ZNSt3__117__compressed_pairINS0_IPNS_13__empty_stateIcEENS_10shared_ptrIS2_E27__shared_ptr_default_deleteIS2_S2_EEEENS_9allocatorIS2_EEEC2B8ue170006IS8_SA_EEOT_OT0_, symObjAddr: 0xB0B8, symBinAddr: 0x10002031C, symSize: 0x44 }
  - { offsetInCU: 0x384DD, offset: 0x630B5, size: 0x8, addend: 0x0, symName: __ZNSt3__122__compressed_pair_elemINS_17__compressed_pairIPNS_13__empty_stateIcEENS_10shared_ptrIS3_E27__shared_ptr_default_deleteIS3_S3_EEEELi0ELb0EEC2B8ue170006IS9_vEEOT_, symObjAddr: 0xB0FC, symBinAddr: 0x100020360, symSize: 0x24 }
  - { offsetInCU: 0x3851F, offset: 0x630F7, size: 0x8, addend: 0x0, symName: __ZNSt3__122__compressed_pair_elemINS_9allocatorINS_13__empty_stateIcEEEELi1ELb1EEC2B8ue170006IS4_vEEOT_, symObjAddr: 0xB120, symBinAddr: 0x100020384, symSize: 0x18 }
  - { offsetInCU: 0x38561, offset: 0x63139, size: 0x8, addend: 0x0, symName: __ZNSt3__120__shared_ptr_pointerIPNS_13__empty_stateIcEENS_10shared_ptrIS2_E27__shared_ptr_default_deleteIS2_S2_EENS_9allocatorIS2_EEED2Ev, symObjAddr: 0xB138, symBinAddr: 0x10002039C, symSize: 0x2C }
  - { offsetInCU: 0x3858D, offset: 0x63165, size: 0x8, addend: 0x0, symName: __ZNSt3__117__compressed_pairINS0_IPNS_13__empty_stateIcEENS_10shared_ptrIS2_E27__shared_ptr_default_deleteIS2_S2_EEEENS_9allocatorIS2_EEE5firstB8ue170006Ev, symObjAddr: 0xB164, symBinAddr: 0x1000203C8, symSize: 0x24 }
  - { offsetInCU: 0x385B3, offset: 0x6318B, size: 0x8, addend: 0x0, symName: __ZNSt3__117__compressed_pairIPNS_13__empty_stateIcEENS_10shared_ptrIS2_E27__shared_ptr_default_deleteIS2_S2_EEE6secondB8ue170006Ev, symObjAddr: 0xB188, symBinAddr: 0x1000203EC, symSize: 0x24 }
  - { offsetInCU: 0x385D9, offset: 0x631B1, size: 0x8, addend: 0x0, symName: __ZNKSt3__114default_deleteINS_13__empty_stateIcEEEclB8ue170006EPS2_, symObjAddr: 0xB1AC, symBinAddr: 0x100020410, symSize: 0x4C }
  - { offsetInCU: 0x3860D, offset: 0x631E5, size: 0x8, addend: 0x0, symName: __ZNSt3__117__compressed_pairIPNS_13__empty_stateIcEENS_10shared_ptrIS2_E27__shared_ptr_default_deleteIS2_S2_EEE5firstB8ue170006Ev, symObjAddr: 0xB1F8, symBinAddr: 0x10002045C, symSize: 0x24 }
  - { offsetInCU: 0x38633, offset: 0x6320B, size: 0x8, addend: 0x0, symName: __ZNSt3__122__compressed_pair_elemINS_17__compressed_pairIPNS_13__empty_stateIcEENS_10shared_ptrIS3_E27__shared_ptr_default_deleteIS3_S3_EEEELi0ELb0EE5__getB8ue170006Ev, symObjAddr: 0xB21C, symBinAddr: 0x100020480, symSize: 0x14 }
  - { offsetInCU: 0x38659, offset: 0x63231, size: 0x8, addend: 0x0, symName: __ZNSt3__122__compressed_pair_elemINS_10shared_ptrINS_13__empty_stateIcEEE27__shared_ptr_default_deleteIS3_S3_EELi1ELb1EE5__getB8ue170006Ev, symObjAddr: 0xB230, symBinAddr: 0x100020494, symSize: 0x14 }
  - { offsetInCU: 0x3867F, offset: 0x63257, size: 0x8, addend: 0x0, symName: __ZNSt3__122__compressed_pair_elemIPNS_13__empty_stateIcEELi0ELb0EE5__getB8ue170006Ev, symObjAddr: 0xB244, symBinAddr: 0x1000204A8, symSize: 0x14 }
  - { offsetInCU: 0x386DA, offset: 0x632B2, size: 0x8, addend: 0x0, symName: __ZNKSt9type_infoeqB8ue170006ERKS_, symObjAddr: 0xB258, symBinAddr: 0x1000204BC, symSize: 0xDC }
  - { offsetInCU: 0x38774, offset: 0x6334C, size: 0x8, addend: 0x0, symName: __ZNKSt3__117__compressed_pairINS0_IPNS_13__empty_stateIcEENS_10shared_ptrIS2_E27__shared_ptr_default_deleteIS2_S2_EEEENS_9allocatorIS2_EEE5firstB8ue170006Ev, symObjAddr: 0xB334, symBinAddr: 0x100020598, symSize: 0x24 }
  - { offsetInCU: 0x3879A, offset: 0x63372, size: 0x8, addend: 0x0, symName: __ZNKSt3__117__compressed_pairIPNS_13__empty_stateIcEENS_10shared_ptrIS2_E27__shared_ptr_default_deleteIS2_S2_EEE6secondB8ue170006Ev, symObjAddr: 0xB358, symBinAddr: 0x1000205BC, symSize: 0x24 }
  - { offsetInCU: 0x387C0, offset: 0x63398, size: 0x8, addend: 0x0, symName: __ZNSt27__type_info_implementations30__non_unique_arm_rtti_bit_impl21__is_type_name_uniqueB8ue170006Em, symObjAddr: 0xB37C, symBinAddr: 0x1000205E0, symSize: 0x20 }
  - { offsetInCU: 0x387E4, offset: 0x633BC, size: 0x8, addend: 0x0, symName: __ZNKSt3__122__compressed_pair_elemINS_17__compressed_pairIPNS_13__empty_stateIcEENS_10shared_ptrIS3_E27__shared_ptr_default_deleteIS3_S3_EEEELi0ELb0EE5__getB8ue170006Ev, symObjAddr: 0xB39C, symBinAddr: 0x100020600, symSize: 0x14 }
  - { offsetInCU: 0x3880A, offset: 0x633E2, size: 0x8, addend: 0x0, symName: __ZNKSt3__122__compressed_pair_elemINS_10shared_ptrINS_13__empty_stateIcEEE27__shared_ptr_default_deleteIS3_S3_EELi1ELb1EE5__getB8ue170006Ev, symObjAddr: 0xB3B0, symBinAddr: 0x100020614, symSize: 0x14 }
  - { offsetInCU: 0x38830, offset: 0x63408, size: 0x8, addend: 0x0, symName: __ZNSt3__117__compressed_pairINS0_IPNS_13__empty_stateIcEENS_10shared_ptrIS2_E27__shared_ptr_default_deleteIS2_S2_EEEENS_9allocatorIS2_EEE6secondB8ue170006Ev, symObjAddr: 0xB3C4, symBinAddr: 0x100020628, symSize: 0x24 }
  - { offsetInCU: 0x38868, offset: 0x63440, size: 0x8, addend: 0x0, symName: __ZNSt3__19allocatorINS_20__shared_ptr_pointerIPNS_13__empty_stateIcEENS_10shared_ptrIS3_E27__shared_ptr_default_deleteIS3_S3_EENS0_IS3_EEEEEC1B8ue170006IS3_EERKNS0_IT_EE, symObjAddr: 0xB3E8, symBinAddr: 0x10002064C, symSize: 0x34 }
  - { offsetInCU: 0x388A6, offset: 0x6347E, size: 0x8, addend: 0x0, symName: __ZNSt3__19allocatorINS_20__shared_ptr_pointerIPNS_13__empty_stateIcEENS_10shared_ptrIS3_E27__shared_ptr_default_deleteIS3_S3_EENS0_IS3_EEEEE10deallocateB8ue170006EPSA_m, symObjAddr: 0xB41C, symBinAddr: 0x100020680, symSize: 0x40 }
  - { offsetInCU: 0x388EE, offset: 0x634C6, size: 0x8, addend: 0x0, symName: __ZNSt3__114pointer_traitsIPNS_20__shared_ptr_pointerIPNS_13__empty_stateIcEENS_10shared_ptrIS3_E27__shared_ptr_default_deleteIS3_S3_EENS_9allocatorIS3_EEEEE10pointer_toB8ue170006ERSB_, symObjAddr: 0xB45C, symBinAddr: 0x1000206C0, symSize: 0x14 }
  - { offsetInCU: 0x38911, offset: 0x634E9, size: 0x8, addend: 0x0, symName: __ZNSt3__122__compressed_pair_elemINS_9allocatorINS_13__empty_stateIcEEEELi1ELb1EE5__getB8ue170006Ev, symObjAddr: 0xB470, symBinAddr: 0x1000206D4, symSize: 0x14 }
  - { offsetInCU: 0x38937, offset: 0x6350F, size: 0x8, addend: 0x0, symName: __ZNSt3__19allocatorINS_20__shared_ptr_pointerIPNS_13__empty_stateIcEENS_10shared_ptrIS3_E27__shared_ptr_default_deleteIS3_S3_EENS0_IS3_EEEEEC2B8ue170006IS3_EERKNS0_IT_EE, symObjAddr: 0xB484, symBinAddr: 0x1000206E8, symSize: 0x30 }
  - { offsetInCU: 0x38975, offset: 0x6354D, size: 0x8, addend: 0x0, symName: __ZNSt3__116__non_trivial_ifILb1ENS_9allocatorINS_20__shared_ptr_pointerIPNS_13__empty_stateIcEENS_10shared_ptrIS4_E27__shared_ptr_default_deleteIS4_S4_EENS1_IS4_EEEEEEEC2B8ue170006Ev, symObjAddr: 0xB4B4, symBinAddr: 0x100020718, symSize: 0x14 }
  - { offsetInCU: 0x3899F, offset: 0x63577, size: 0x8, addend: 0x0, symName: __ZNSt3__117__compressed_pairIPNS_13__empty_stateIcEENS_14default_deleteIS2_EEE5firstB8ue170006Ev, symObjAddr: 0xB4C8, symBinAddr: 0x10002072C, symSize: 0x24 }
  - { offsetInCU: 0x389C5, offset: 0x6359D, size: 0x8, addend: 0x0, symName: __ZNSt3__110unique_ptrINS_13__empty_stateIcEENS_14default_deleteIS2_EEED2B8ue170006Ev, symObjAddr: 0xB4EC, symBinAddr: 0x100020750, symSize: 0x30 }
  - { offsetInCU: 0x389EF, offset: 0x635C7, size: 0x8, addend: 0x0, symName: __ZNSt3__110unique_ptrINS_13__empty_stateIcEENS_14default_deleteIS2_EEE5resetB8ue170006EPS2_, symObjAddr: 0xB51C, symBinAddr: 0x100020780, symSize: 0x78 }
  - { offsetInCU: 0x38A33, offset: 0x6360B, size: 0x8, addend: 0x0, symName: __ZNSt3__117__compressed_pairIPNS_13__empty_stateIcEENS_14default_deleteIS2_EEE6secondB8ue170006Ev, symObjAddr: 0xB594, symBinAddr: 0x1000207F8, symSize: 0x24 }
  - { offsetInCU: 0x38A59, offset: 0x63631, size: 0x8, addend: 0x0, symName: __ZNSt3__122__compressed_pair_elemINS_14default_deleteINS_13__empty_stateIcEEEELi1ELb1EE5__getB8ue170006Ev, symObjAddr: 0xB5B8, symBinAddr: 0x10002081C, symSize: 0x14 }
  - { offsetInCU: 0x38A7F, offset: 0x63657, size: 0x8, addend: 0x0, symName: __ZNKSt3__117__compressed_pairIPNS_6__nodeIcEENS_14default_deleteIS2_EEE5firstB8ue170006Ev, symObjAddr: 0xB644, symBinAddr: 0x1000208A8, symSize: 0x24 }
  - { offsetInCU: 0x38AA5, offset: 0x6367D, size: 0x8, addend: 0x0, symName: __ZNKSt3__122__compressed_pair_elemIPNS_6__nodeIcEELi0ELb0EE5__getB8ue170006Ev, symObjAddr: 0xB668, symBinAddr: 0x1000208CC, symSize: 0x14 }
  - { offsetInCU: 0x38ACB, offset: 0x636A3, size: 0x8, addend: 0x0, symName: __ZNSt3__113__empty_stateIcEC2B8ue170006EPNS_6__nodeIcEE, symObjAddr: 0xB67C, symBinAddr: 0x1000208E0, symSize: 0x4C }
  - { offsetInCU: 0x38B04, offset: 0x636DC, size: 0x8, addend: 0x0, symName: __ZNSt3__116__owns_one_stateIcEC2B8ue170006EPNS_6__nodeIcEE, symObjAddr: 0xB6C8, symBinAddr: 0x10002092C, symSize: 0x4C }
  - { offsetInCU: 0x38B3D, offset: 0x63715, size: 0x8, addend: 0x0, symName: __ZNSt3__113__empty_stateIcED1Ev, symObjAddr: 0xB714, symBinAddr: 0x100020978, symSize: 0x2C }
  - { offsetInCU: 0x38B6A, offset: 0x63742, size: 0x8, addend: 0x0, symName: __ZNSt3__113__empty_stateIcED0Ev, symObjAddr: 0xB740, symBinAddr: 0x1000209A4, symSize: 0x30 }
  - { offsetInCU: 0x38B97, offset: 0x6376F, size: 0x8, addend: 0x0, symName: __ZNKSt3__113__empty_stateIcE6__execERNS_7__stateIcEE, symObjAddr: 0xB770, symBinAddr: 0x1000209D4, symSize: 0x3C }
  - { offsetInCU: 0x38BCE, offset: 0x637A6, size: 0x8, addend: 0x0, symName: __ZNSt3__115__has_one_stateIcEC2B8ue170006EPNS_6__nodeIcEE, symObjAddr: 0xB7AC, symBinAddr: 0x100020A10, symSize: 0x50 }
  - { offsetInCU: 0x38C07, offset: 0x637DF, size: 0x8, addend: 0x0, symName: __ZNSt3__116__owns_one_stateIcED1Ev, symObjAddr: 0xB7FC, symBinAddr: 0x100020A60, symSize: 0x2C }
  - { offsetInCU: 0x38C33, offset: 0x6380B, size: 0x8, addend: 0x0, symName: __ZNSt3__116__owns_one_stateIcED0Ev, symObjAddr: 0xB828, symBinAddr: 0x100020A8C, symSize: 0x30 }
  - { offsetInCU: 0x38C5F, offset: 0x63837, size: 0x8, addend: 0x0, symName: __ZNSt3__115__has_one_stateIcED1Ev, symObjAddr: 0xB858, symBinAddr: 0x100020ABC, symSize: 0x2C }
  - { offsetInCU: 0x38C8C, offset: 0x63864, size: 0x8, addend: 0x0, symName: __ZNSt3__115__has_one_stateIcED0Ev, symObjAddr: 0xB884, symBinAddr: 0x100020AE8, symSize: 0x30 }
  - { offsetInCU: 0x38CB9, offset: 0x63891, size: 0x8, addend: 0x0, symName: __ZNSt3__115__has_one_stateIcED2Ev, symObjAddr: 0xB8B4, symBinAddr: 0x100020B18, symSize: 0x2C }
  - { offsetInCU: 0x38CE6, offset: 0x638BE, size: 0x8, addend: 0x0, symName: __ZNSt3__116__owns_one_stateIcED2Ev, symObjAddr: 0xB8E0, symBinAddr: 0x100020B44, symSize: 0x88 }
  - { offsetInCU: 0x38D12, offset: 0x638EA, size: 0x8, addend: 0x0, symName: __ZNSt3__115__has_one_stateIcE5firstB8ue170006Ev, symObjAddr: 0xB968, symBinAddr: 0x100020BCC, symSize: 0x18 }
  - { offsetInCU: 0x38D38, offset: 0x63910, size: 0x8, addend: 0x0, symName: __ZNSt3__113__empty_stateIcED2Ev, symObjAddr: 0xB980, symBinAddr: 0x100020BE4, symSize: 0x2C }
  - { offsetInCU: 0x38D65, offset: 0x6393D, size: 0x8, addend: 0x0, symName: __ZNKSt3__115__has_one_stateIcE5firstB8ue170006Ev, symObjAddr: 0xB9AC, symBinAddr: 0x100020C10, symSize: 0x18 }
  - { offsetInCU: 0x38D8B, offset: 0x63963, size: 0x8, addend: 0x0, symName: __ZNSt3__117__compressed_pairIPNS_6__nodeIcEENS_14default_deleteIS2_EEE5firstB8ue170006Ev, symObjAddr: 0xB9C4, symBinAddr: 0x100020C28, symSize: 0x24 }
  - { offsetInCU: 0x38DB1, offset: 0x63989, size: 0x8, addend: 0x0, symName: __ZNSt3__122__compressed_pair_elemIPNS_6__nodeIcEELi0ELb0EE5__getB8ue170006Ev, symObjAddr: 0xB9E8, symBinAddr: 0x100020C4C, symSize: 0x14 }
  - { offsetInCU: 0x38DD7, offset: 0x639AF, size: 0x8, addend: 0x0, symName: __ZNSt3__110unique_ptrINS_6__nodeIcEENS_14default_deleteIS2_EEED2B8ue170006Ev, symObjAddr: 0xB9FC, symBinAddr: 0x100020C60, symSize: 0x30 }
  - { offsetInCU: 0x38E01, offset: 0x639D9, size: 0x8, addend: 0x0, symName: __ZNSt3__110unique_ptrINS_6__nodeIcEENS_14default_deleteIS2_EEE5resetB8ue170006EPS2_, symObjAddr: 0xBA2C, symBinAddr: 0x100020C90, symSize: 0x78 }
  - { offsetInCU: 0x38E45, offset: 0x63A1D, size: 0x8, addend: 0x0, symName: __ZNSt3__117__compressed_pairIPNS_6__nodeIcEENS_14default_deleteIS2_EEE6secondB8ue170006Ev, symObjAddr: 0xBAA4, symBinAddr: 0x100020D08, symSize: 0x24 }
  - { offsetInCU: 0x38E6B, offset: 0x63A43, size: 0x8, addend: 0x0, symName: __ZNKSt3__114default_deleteINS_6__nodeIcEEEclB8ue170006EPS2_, symObjAddr: 0xBAC8, symBinAddr: 0x100020D2C, symSize: 0x4C }
  - { offsetInCU: 0x38E9F, offset: 0x63A77, size: 0x8, addend: 0x0, symName: __ZNSt3__122__compressed_pair_elemINS_14default_deleteINS_6__nodeIcEEEELi1ELb1EE5__getB8ue170006Ev, symObjAddr: 0xBB14, symBinAddr: 0x100020D78, symSize: 0x14 }
  - { offsetInCU: 0x38EC5, offset: 0x63A9D, size: 0x8, addend: 0x0, symName: __ZNSt3__111basic_regexIcNS_12regex_traitsIcEEE19__parse_alternativeIPKcEET_S7_S7_, symObjAddr: 0xBB28, symBinAddr: 0x100020D8C, symSize: 0x70 }
  - { offsetInCU: 0x38F31, offset: 0x63B09, size: 0x8, addend: 0x0, symName: __ZNSt3__111basic_regexIcNS_12regex_traitsIcEEE12__push_emptyEv, symObjAddr: 0xBB98, symBinAddr: 0x100020DFC, symSize: 0xA0 }
  - { offsetInCU: 0x38F59, offset: 0x63B31, size: 0x8, addend: 0x0, symName: __ZNSt3__111basic_regexIcNS_12regex_traitsIcEEE18__push_alternationEPNS_16__owns_one_stateIcEES6_, symObjAddr: 0xBC38, symBinAddr: 0x100020E9C, symSize: 0x17C }
  - { offsetInCU: 0x38F9F, offset: 0x63B77, size: 0x8, addend: 0x0, symName: __ZNSt3__111basic_regexIcNS_12regex_traitsIcEEE12__parse_termIPKcEET_S7_S7_, symObjAddr: 0xBDB4, symBinAddr: 0x100021018, symSize: 0xD0 }
  - { offsetInCU: 0x39029, offset: 0x63C01, size: 0x8, addend: 0x0, symName: __ZNSt3__111basic_regexIcNS_12regex_traitsIcEEE17__parse_assertionIPKcEET_S7_S7_, symObjAddr: 0xBE84, symBinAddr: 0x1000210E8, symSize: 0x484 }
  - { offsetInCU: 0x390F6, offset: 0x63CCE, size: 0x8, addend: 0x0, symName: __ZNSt3__111basic_regexIcNS_12regex_traitsIcEEE12__parse_atomIPKcEET_S7_S7_, symObjAddr: 0xC308, symBinAddr: 0x10002156C, symSize: 0x2DC }
  - { offsetInCU: 0x3917F, offset: 0x63D57, size: 0x8, addend: 0x0, symName: __ZNSt3__111basic_regexIcNS_12regex_traitsIcEEE23__parse_ERE_dupl_symbolIPKcEET_S7_S7_PNS_16__owns_one_stateIcEEjj, symObjAddr: 0xC5E4, symBinAddr: 0x100021848, symSize: 0x63C }
  - { offsetInCU: 0x39261, offset: 0x63E39, size: 0x8, addend: 0x0, symName: __ZNSt3__111basic_regexIcNS_12regex_traitsIcEEE15__push_l_anchorEv, symObjAddr: 0xCC20, symBinAddr: 0x100021E84, symSize: 0xBC }
  - { offsetInCU: 0x39289, offset: 0x63E61, size: 0x8, addend: 0x0, symName: __ZNSt3__111basic_regexIcNS_12regex_traitsIcEEE15__push_r_anchorEv, symObjAddr: 0xCCDC, symBinAddr: 0x100021F40, symSize: 0xBC }
  - { offsetInCU: 0x392B1, offset: 0x63E89, size: 0x8, addend: 0x0, symName: __ZNSt3__111basic_regexIcNS_12regex_traitsIcEEE20__push_word_boundaryEb, symObjAddr: 0xCDCC, symBinAddr: 0x100022030, symSize: 0xC0 }
  - { offsetInCU: 0x392E8, offset: 0x63EC0, size: 0x8, addend: 0x0, symName: __ZNSt3__111basic_regexIcNS_12regex_traitsIcEEEC1B8ue170006Ev, symObjAddr: 0xCE8C, symBinAddr: 0x1000220F0, symSize: 0x2C }
  - { offsetInCU: 0x39312, offset: 0x63EEA, size: 0x8, addend: 0x0, symName: __ZNSt3__111basic_regexIcNS_12regex_traitsIcEEE16__push_lookaheadERKS3_bj, symObjAddr: 0xCEB8, symBinAddr: 0x10002211C, symSize: 0xD4 }
  - { offsetInCU: 0x39367, offset: 0x63F3F, size: 0x8, addend: 0x0, symName: __ZNKSt3__111basic_regexIcNS_12regex_traitsIcEEE15__use_multilineB8ue170006Ev, symObjAddr: 0xCFEC, symBinAddr: 0x100022250, symSize: 0x6C }
  - { offsetInCU: 0x393A4, offset: 0x63F7C, size: 0x8, addend: 0x0, symName: __ZNSt3__120__l_anchor_multilineIcEC1B8ue170006EbPNS_6__nodeIcEE, symObjAddr: 0xD058, symBinAddr: 0x1000222BC, symSize: 0x48 }
  - { offsetInCU: 0x393EC, offset: 0x63FC4, size: 0x8, addend: 0x0, symName: __ZNSt3__120__l_anchor_multilineIcEC2B8ue170006EbPNS_6__nodeIcEE, symObjAddr: 0xD0C0, symBinAddr: 0x100022324, symSize: 0x64 }
  - { offsetInCU: 0x39434, offset: 0x6400C, size: 0x8, addend: 0x0, symName: __ZNSt3__120__l_anchor_multilineIcED1Ev, symObjAddr: 0xD124, symBinAddr: 0x100022388, symSize: 0x2C }
  - { offsetInCU: 0x39461, offset: 0x64039, size: 0x8, addend: 0x0, symName: __ZNSt3__120__l_anchor_multilineIcED0Ev, symObjAddr: 0xD150, symBinAddr: 0x1000223B4, symSize: 0x30 }
  - { offsetInCU: 0x3948E, offset: 0x64066, size: 0x8, addend: 0x0, symName: __ZNKSt3__120__l_anchor_multilineIcE6__execERNS_7__stateIcEE, symObjAddr: 0xD180, symBinAddr: 0x1000223E4, symSize: 0x114 }
  - { offsetInCU: 0x394C5, offset: 0x6409D, size: 0x8, addend: 0x0, symName: __ZNSt3__120__l_anchor_multilineIcED2Ev, symObjAddr: 0xD294, symBinAddr: 0x1000224F8, symSize: 0x2C }
  - { offsetInCU: 0x39509, offset: 0x640E1, size: 0x8, addend: 0x0, symName: __ZNSt3__120__r_anchor_multilineIcEC1B8ue170006EbPNS_6__nodeIcEE, symObjAddr: 0xD3C4, symBinAddr: 0x100022628, symSize: 0x48 }
  - { offsetInCU: 0x39551, offset: 0x64129, size: 0x8, addend: 0x0, symName: __ZNSt3__120__r_anchor_multilineIcEC2B8ue170006EbPNS_6__nodeIcEE, symObjAddr: 0xD40C, symBinAddr: 0x100022670, symSize: 0x64 }
  - { offsetInCU: 0x39599, offset: 0x64171, size: 0x8, addend: 0x0, symName: __ZNSt3__120__r_anchor_multilineIcED1Ev, symObjAddr: 0xD470, symBinAddr: 0x1000226D4, symSize: 0x2C }
  - { offsetInCU: 0x395C6, offset: 0x6419E, size: 0x8, addend: 0x0, symName: __ZNSt3__120__r_anchor_multilineIcED0Ev, symObjAddr: 0xD49C, symBinAddr: 0x100022700, symSize: 0x30 }
  - { offsetInCU: 0x395F3, offset: 0x641CB, size: 0x8, addend: 0x0, symName: __ZNKSt3__120__r_anchor_multilineIcE6__execERNS_7__stateIcEE, symObjAddr: 0xD4CC, symBinAddr: 0x100022730, symSize: 0xEC }
  - { offsetInCU: 0x3962A, offset: 0x64202, size: 0x8, addend: 0x0, symName: __ZNSt3__120__r_anchor_multilineIcED2Ev, symObjAddr: 0xD5B8, symBinAddr: 0x10002281C, symSize: 0x2C }
  - { offsetInCU: 0x3966E, offset: 0x64246, size: 0x8, addend: 0x0, symName: __ZNSt3__115__word_boundaryIcNS_12regex_traitsIcEEEC1B8ue170006ERKS2_bPNS_6__nodeIcEE, symObjAddr: 0xD5E4, symBinAddr: 0x100022848, symSize: 0x50 }
  - { offsetInCU: 0x396C5, offset: 0x6429D, size: 0x8, addend: 0x0, symName: __ZNSt3__115__word_boundaryIcNS_12regex_traitsIcEEEC2B8ue170006ERKS2_bPNS_6__nodeIcEE, symObjAddr: 0xD634, symBinAddr: 0x100022898, symSize: 0x78 }
  - { offsetInCU: 0x3971C, offset: 0x642F4, size: 0x8, addend: 0x0, symName: __ZNSt3__115__word_boundaryIcNS_12regex_traitsIcEEED1Ev, symObjAddr: 0xD6AC, symBinAddr: 0x100022910, symSize: 0x2C }
  - { offsetInCU: 0x39749, offset: 0x64321, size: 0x8, addend: 0x0, symName: __ZNSt3__115__word_boundaryIcNS_12regex_traitsIcEEED0Ev, symObjAddr: 0xD6D8, symBinAddr: 0x10002293C, symSize: 0x30 }
  - { offsetInCU: 0x39776, offset: 0x6434E, size: 0x8, addend: 0x0, symName: __ZNKSt3__115__word_boundaryIcNS_12regex_traitsIcEEE6__execERNS_7__stateIcEE, symObjAddr: 0xD708, symBinAddr: 0x10002296C, symSize: 0x2E4 }
  - { offsetInCU: 0x39840, offset: 0x64418, size: 0x8, addend: 0x0, symName: __ZNSt3__115__word_boundaryIcNS_12regex_traitsIcEEED2Ev, symObjAddr: 0xD9EC, symBinAddr: 0x100022C50, symSize: 0x48 }
  - { offsetInCU: 0x3986D, offset: 0x64445, size: 0x8, addend: 0x0, symName: __ZNKSt3__112regex_traitsIcE7isctypeEcj, symObjAddr: 0xDA34, symBinAddr: 0x100022C98, symSize: 0xA0 }
  - { offsetInCU: 0x398B3, offset: 0x6448B, size: 0x8, addend: 0x0, symName: __ZNKSt3__15ctypeIcE2isB8ue170006Ejc, symObjAddr: 0xDAD4, symBinAddr: 0x100022D38, symSize: 0x7C }
  - { offsetInCU: 0x398F7, offset: 0x644CF, size: 0x8, addend: 0x0, symName: __Z7isasciii, symObjAddr: 0xDB50, symBinAddr: 0x100022DB4, symSize: 0x24 }
  - { offsetInCU: 0x39923, offset: 0x644FB, size: 0x8, addend: 0x0, symName: __ZNSt3__111basic_regexIcNS_12regex_traitsIcEEEC2B8ue170006Ev, symObjAddr: 0xDB74, symBinAddr: 0x100022DD8, symSize: 0x4C }
  - { offsetInCU: 0x39970, offset: 0x64548, size: 0x8, addend: 0x0, symName: __ZNSt3__111__lookaheadIcNS_12regex_traitsIcEEEC1B8ue170006ERKNS_11basic_regexIcS2_EEbPNS_6__nodeIcEEj, symObjAddr: 0xDBC0, symBinAddr: 0x100022E24, symSize: 0x58 }
  - { offsetInCU: 0x399D6, offset: 0x645AE, size: 0x8, addend: 0x0, symName: __ZNSt3__111__lookaheadIcNS_12regex_traitsIcEEEC2B8ue170006ERKNS_11basic_regexIcS2_EEbPNS_6__nodeIcEEj, symObjAddr: 0xDC18, symBinAddr: 0x100022E7C, symSize: 0x84 }
  - { offsetInCU: 0x39A3C, offset: 0x64614, size: 0x8, addend: 0x0, symName: __ZNSt3__111__lookaheadIcNS_12regex_traitsIcEEED1Ev, symObjAddr: 0xDC9C, symBinAddr: 0x100022F00, symSize: 0x2C }
  - { offsetInCU: 0x39A69, offset: 0x64641, size: 0x8, addend: 0x0, symName: __ZNSt3__111__lookaheadIcNS_12regex_traitsIcEEED0Ev, symObjAddr: 0xDCC8, symBinAddr: 0x100022F2C, symSize: 0x30 }
  - { offsetInCU: 0x39A96, offset: 0x6466E, size: 0x8, addend: 0x0, symName: __ZNKSt3__111__lookaheadIcNS_12regex_traitsIcEEE6__execERNS_7__stateIcEE, symObjAddr: 0xDCF8, symBinAddr: 0x100022F5C, symSize: 0x274 }
  - { offsetInCU: 0x39B0B, offset: 0x646E3, size: 0x8, addend: 0x0, symName: __ZNSt3__111__lookaheadIcNS_12regex_traitsIcEEED2Ev, symObjAddr: 0xDF6C, symBinAddr: 0x1000231D0, symSize: 0x48 }
  - { offsetInCU: 0x39B70, offset: 0x64748, size: 0x8, addend: 0x0, symName: __ZNSt3__113match_resultsIPKcNS_9allocatorINS_9sub_matchIS2_EEEEEC1Ev, symObjAddr: 0xDFB4, symBinAddr: 0x100023218, symSize: 0x40 }
  - { offsetInCU: 0x39B9A, offset: 0x64772, size: 0x8, addend: 0x0, symName: __ZNSt3__113match_resultsIPKcNS_9allocatorINS_9sub_matchIS2_EEEEE6__initEjS2_S2_b, symObjAddr: 0xDFF4, symBinAddr: 0x100023258, symSize: 0xB0 }
  - { offsetInCU: 0x39BFE, offset: 0x647D6, size: 0x8, addend: 0x0, symName: __ZNKSt3__111basic_regexIcNS_12regex_traitsIcEEE10mark_countB8ue170006Ev, symObjAddr: 0xE0A4, symBinAddr: 0x100023308, symSize: 0x18 }
  - { offsetInCU: 0x39C2A, offset: 0x64802, size: 0x8, addend: 0x0, symName: __ZNKSt3__111basic_regexIcNS_12regex_traitsIcEEE21__match_at_start_ecmaINS_9allocatorINS_9sub_matchIPKcEEEEEEbS8_S8_RNS_13match_resultsIS8_T_EENS_15regex_constants15match_flag_typeEb, symObjAddr: 0xE0BC, symBinAddr: 0x100023320, symSize: 0x590 }
  - { offsetInCU: 0x39D4E, offset: 0x64926, size: 0x8, addend: 0x0, symName: __ZNKSt3__113match_resultsIPKcNS_9allocatorINS_9sub_matchIS2_EEEEE4sizeB8ue170006Ev, symObjAddr: 0xE6B0, symBinAddr: 0x100023914, symSize: 0x24 }
  - { offsetInCU: 0x39D74, offset: 0x6494C, size: 0x8, addend: 0x0, symName: __ZNSt3__16vectorINS_9sub_matchIPKcEENS_9allocatorIS4_EEEixB8ue170006Em, symObjAddr: 0xE6D4, symBinAddr: 0x100023938, symSize: 0x2C }
  - { offsetInCU: 0x39DAB, offset: 0x64983, size: 0x8, addend: 0x0, symName: __ZNSt3__19sub_matchIPKcEaSERKS3_, symObjAddr: 0xE700, symBinAddr: 0x100023964, symSize: 0x44 }
  - { offsetInCU: 0x39DE3, offset: 0x649BB, size: 0x8, addend: 0x0, symName: __ZNSt3__113match_resultsIPKcNS_9allocatorINS_9sub_matchIS2_EEEEED1Ev, symObjAddr: 0xE744, symBinAddr: 0x1000239A8, symSize: 0x2C }
  - { offsetInCU: 0x39E10, offset: 0x649E8, size: 0x8, addend: 0x0, symName: __ZNSt3__19allocatorINS_9sub_matchIPKcEEEC1B8ue170006Ev, symObjAddr: 0xE770, symBinAddr: 0x1000239D4, symSize: 0x2C }
  - { offsetInCU: 0x39E3A, offset: 0x64A12, size: 0x8, addend: 0x0, symName: __ZNSt3__113match_resultsIPKcNS_9allocatorINS_9sub_matchIS2_EEEEEC1ERKS6_, symObjAddr: 0xE79C, symBinAddr: 0x100023A00, symSize: 0x34 }
  - { offsetInCU: 0x39E75, offset: 0x64A4D, size: 0x8, addend: 0x0, symName: __ZNSt3__19allocatorINS_9sub_matchIPKcEEEC2B8ue170006Ev, symObjAddr: 0xE7D0, symBinAddr: 0x100023A34, symSize: 0x2C }
  - { offsetInCU: 0x39E9F, offset: 0x64A77, size: 0x8, addend: 0x0, symName: __ZNSt3__116__non_trivial_ifILb1ENS_9allocatorINS_9sub_matchIPKcEEEEEC2B8ue170006Ev, symObjAddr: 0xE7FC, symBinAddr: 0x100023A60, symSize: 0x14 }
  - { offsetInCU: 0x39EC9, offset: 0x64AA1, size: 0x8, addend: 0x0, symName: __ZNSt3__113match_resultsIPKcNS_9allocatorINS_9sub_matchIS2_EEEEEC2ERKS6_, symObjAddr: 0xE810, symBinAddr: 0x100023A74, symSize: 0x90 }
  - { offsetInCU: 0x39F04, offset: 0x64ADC, size: 0x8, addend: 0x0, symName: __ZNSt3__16vectorINS_9sub_matchIPKcEENS_9allocatorIS4_EEEC1B8ue170006ERKS6_, symObjAddr: 0xE8A0, symBinAddr: 0x100023B04, symSize: 0x34 }
  - { offsetInCU: 0x39F3D, offset: 0x64B15, size: 0x8, addend: 0x0, symName: __ZNSt3__19sub_matchIPKcEC1B8ue170006Ev, symObjAddr: 0xE8D4, symBinAddr: 0x100023B38, symSize: 0x2C }
  - { offsetInCU: 0x39F67, offset: 0x64B3F, size: 0x8, addend: 0x0, symName: __ZNSt3__16vectorINS_9sub_matchIPKcEENS_9allocatorIS4_EEED1B8ue170006Ev, symObjAddr: 0xE900, symBinAddr: 0x100023B64, symSize: 0x2C }
  - { offsetInCU: 0x39F91, offset: 0x64B69, size: 0x8, addend: 0x0, symName: __ZNSt3__16vectorINS_9sub_matchIPKcEENS_9allocatorIS4_EEEC2B8ue170006ERKS6_, symObjAddr: 0xE92C, symBinAddr: 0x100023B90, symSize: 0x50 }
  - { offsetInCU: 0x39FCA, offset: 0x64BA2, size: 0x8, addend: 0x0, symName: __ZNSt3__117__compressed_pairIPNS_9sub_matchIPKcEENS_9allocatorIS4_EEEC1B8ue170006IDnRKS7_EEOT_OT0_, symObjAddr: 0xE97C, symBinAddr: 0x100023BE0, symSize: 0x3C }
  - { offsetInCU: 0x3A022, offset: 0x64BFA, size: 0x8, addend: 0x0, symName: __ZNSt3__117__compressed_pairIPNS_9sub_matchIPKcEENS_9allocatorIS4_EEEC2B8ue170006IDnRKS7_EEOT_OT0_, symObjAddr: 0xE9B8, symBinAddr: 0x100023C1C, symSize: 0x44 }
  - { offsetInCU: 0x3A07A, offset: 0x64C52, size: 0x8, addend: 0x0, symName: __ZNSt3__122__compressed_pair_elemIPNS_9sub_matchIPKcEELi0ELb0EEC2B8ue170006IDnvEEOT_, symObjAddr: 0xE9FC, symBinAddr: 0x100023C60, symSize: 0x1C }
  - { offsetInCU: 0x3A0BC, offset: 0x64C94, size: 0x8, addend: 0x0, symName: __ZNSt3__122__compressed_pair_elemINS_9allocatorINS_9sub_matchIPKcEEEELi1ELb1EEC2B8ue170006IRKS6_vEEOT_, symObjAddr: 0xEA18, symBinAddr: 0x100023C7C, symSize: 0x18 }
  - { offsetInCU: 0x3A0FE, offset: 0x64CD6, size: 0x8, addend: 0x0, symName: __ZNSt3__19sub_matchIPKcEC2B8ue170006Ev, symObjAddr: 0xEA30, symBinAddr: 0x100023C94, symSize: 0x30 }
  - { offsetInCU: 0x3A128, offset: 0x64D00, size: 0x8, addend: 0x0, symName: __ZNSt3__14pairIPKcS2_EC2B8ue170006ILb1ELPv0EEEv, symObjAddr: 0xEA60, symBinAddr: 0x100023CC4, symSize: 0x1C }
  - { offsetInCU: 0x3A162, offset: 0x64D3A, size: 0x8, addend: 0x0, symName: __ZNSt3__16vectorINS_9sub_matchIPKcEENS_9allocatorIS4_EEED2B8ue170006Ev, symObjAddr: 0xEA7C, symBinAddr: 0x100023CE0, symSize: 0x44 }
  - { offsetInCU: 0x3A18C, offset: 0x64D64, size: 0x8, addend: 0x0, symName: __ZNSt3__16vectorINS_9sub_matchIPKcEENS_9allocatorIS4_EEE16__destroy_vectorC1B8ue170006ERS7_, symObjAddr: 0xEAC0, symBinAddr: 0x100023D24, symSize: 0x34 }
  - { offsetInCU: 0x3A1C5, offset: 0x64D9D, size: 0x8, addend: 0x0, symName: __ZNSt3__16vectorINS_9sub_matchIPKcEENS_9allocatorIS4_EEE16__destroy_vectorclB8ue170006Ev, symObjAddr: 0xEAF4, symBinAddr: 0x100023D58, symSize: 0x90 }
  - { offsetInCU: 0x3A1EB, offset: 0x64DC3, size: 0x8, addend: 0x0, symName: __ZNSt3__16vectorINS_9sub_matchIPKcEENS_9allocatorIS4_EEE16__destroy_vectorC2B8ue170006ERS7_, symObjAddr: 0xEB84, symBinAddr: 0x100023DE8, symSize: 0x20 }
  - { offsetInCU: 0x3A224, offset: 0x64DFC, size: 0x8, addend: 0x0, symName: __ZNSt3__16vectorINS_9sub_matchIPKcEENS_9allocatorIS4_EEE7__clearB8ue170006Ev, symObjAddr: 0xEBA4, symBinAddr: 0x100023E08, symSize: 0x28 }
  - { offsetInCU: 0x3A24A, offset: 0x64E22, size: 0x8, addend: 0x0, symName: __ZNKSt3__16vectorINS_9sub_matchIPKcEENS_9allocatorIS4_EEE17__annotate_deleteB8ue170006Ev, symObjAddr: 0xEBCC, symBinAddr: 0x100023E30, symSize: 0xD4 }
  - { offsetInCU: 0x3A270, offset: 0x64E48, size: 0x8, addend: 0x0, symName: __ZNSt3__116allocator_traitsINS_9allocatorINS_9sub_matchIPKcEEEEE10deallocateB8ue170006ERS6_PS5_m, symObjAddr: 0xECA0, symBinAddr: 0x100023F04, symSize: 0x34 }
  - { offsetInCU: 0x3A2B2, offset: 0x64E8A, size: 0x8, addend: 0x0, symName: __ZNSt3__16vectorINS_9sub_matchIPKcEENS_9allocatorIS4_EEE7__allocB8ue170006Ev, symObjAddr: 0xECD4, symBinAddr: 0x100023F38, symSize: 0x28 }
  - { offsetInCU: 0x3A2D8, offset: 0x64EB0, size: 0x8, addend: 0x0, symName: __ZNKSt3__16vectorINS_9sub_matchIPKcEENS_9allocatorIS4_EEE8capacityB8ue170006Ev, symObjAddr: 0xECFC, symBinAddr: 0x100023F60, symSize: 0x40 }
  - { offsetInCU: 0x3A2FE, offset: 0x64ED6, size: 0x8, addend: 0x0, symName: __ZNSt3__16vectorINS_9sub_matchIPKcEENS_9allocatorIS4_EEE22__base_destruct_at_endB8ue170006EPS4_, symObjAddr: 0xED3C, symBinAddr: 0x100023FA0, symSize: 0x8C }
  - { offsetInCU: 0x3A342, offset: 0x64F1A, size: 0x8, addend: 0x0, symName: __ZNSt3__116allocator_traitsINS_9allocatorINS_9sub_matchIPKcEEEEE7destroyB8ue170006IS5_vvEEvRS6_PT_, symObjAddr: 0xEDC8, symBinAddr: 0x10002402C, symSize: 0x28 }
  - { offsetInCU: 0x3A37D, offset: 0x64F55, size: 0x8, addend: 0x0, symName: __ZNKSt3__16vectorINS_9sub_matchIPKcEENS_9allocatorIS4_EEE31__annotate_contiguous_containerB8ue170006EPKvS9_S9_S9_, symObjAddr: 0xEE38, symBinAddr: 0x10002409C, symSize: 0x20 }
  - { offsetInCU: 0x3A3D3, offset: 0x64FAB, size: 0x8, addend: 0x0, symName: __ZNKSt3__16vectorINS_9sub_matchIPKcEENS_9allocatorIS4_EEE4dataB8ue170006Ev, symObjAddr: 0xEE58, symBinAddr: 0x1000240BC, symSize: 0x28 }
  - { offsetInCU: 0x3A3F9, offset: 0x64FD1, size: 0x8, addend: 0x0, symName: __ZNKSt3__16vectorINS_9sub_matchIPKcEENS_9allocatorIS4_EEE4sizeB8ue170006Ev, symObjAddr: 0xEE80, symBinAddr: 0x1000240E4, symSize: 0x28 }
  - { offsetInCU: 0x3A41F, offset: 0x64FF7, size: 0x8, addend: 0x0, symName: __ZNSt3__19allocatorINS_9sub_matchIPKcEEE10deallocateB8ue170006EPS4_m, symObjAddr: 0xEEA8, symBinAddr: 0x10002410C, symSize: 0x44 }
  - { offsetInCU: 0x3A461, offset: 0x65039, size: 0x8, addend: 0x0, symName: __ZNSt3__117__compressed_pairIPNS_9sub_matchIPKcEENS_9allocatorIS4_EEE6secondB8ue170006Ev, symObjAddr: 0xEEEC, symBinAddr: 0x100024150, symSize: 0x24 }
  - { offsetInCU: 0x3A487, offset: 0x6505F, size: 0x8, addend: 0x0, symName: __ZNSt3__122__compressed_pair_elemINS_9allocatorINS_9sub_matchIPKcEEEELi1ELb1EE5__getB8ue170006Ev, symObjAddr: 0xEF10, symBinAddr: 0x100024174, symSize: 0x14 }
  - { offsetInCU: 0x3A4AD, offset: 0x65085, size: 0x8, addend: 0x0, symName: __ZNKSt3__16vectorINS_9sub_matchIPKcEENS_9allocatorIS4_EEE9__end_capB8ue170006Ev, symObjAddr: 0xEF24, symBinAddr: 0x100024188, symSize: 0x28 }
  - { offsetInCU: 0x3A4D3, offset: 0x650AB, size: 0x8, addend: 0x0, symName: __ZNKSt3__117__compressed_pairIPNS_9sub_matchIPKcEENS_9allocatorIS4_EEE5firstB8ue170006Ev, symObjAddr: 0xEF4C, symBinAddr: 0x1000241B0, symSize: 0x24 }
  - { offsetInCU: 0x3A4F9, offset: 0x650D1, size: 0x8, addend: 0x0, symName: __ZNKSt3__122__compressed_pair_elemIPNS_9sub_matchIPKcEELi0ELb0EE5__getB8ue170006Ev, symObjAddr: 0xEF70, symBinAddr: 0x1000241D4, symSize: 0x14 }
  - { offsetInCU: 0x3A51F, offset: 0x650F7, size: 0x8, addend: 0x0, symName: __ZNSt3__16vectorINS_9sub_matchIPKcEENS_9allocatorIS4_EEE6assignEmRKS4_, symObjAddr: 0xEF84, symBinAddr: 0x1000241E8, symSize: 0x110 }
  - { offsetInCU: 0x3A582, offset: 0x6515A, size: 0x8, addend: 0x0, symName: __ZNSt3__16vectorINS_9sub_matchIPKcEENS_9allocatorIS4_EEE18__construct_at_endEmRKS4_, symObjAddr: 0xF0D8, symBinAddr: 0x10002433C, symSize: 0xD0 }
  - { offsetInCU: 0x3A603, offset: 0x651DB, size: 0x8, addend: 0x0, symName: __ZNSt3__16vectorINS_9sub_matchIPKcEENS_9allocatorIS4_EEE17__destruct_at_endB8ue170006EPS4_, symObjAddr: 0xF1A8, symBinAddr: 0x10002440C, symSize: 0x4C }
  - { offsetInCU: 0x3A647, offset: 0x6521F, size: 0x8, addend: 0x0, symName: __ZNSt3__16vectorINS_9sub_matchIPKcEENS_9allocatorIS4_EEE13__vdeallocateEv, symObjAddr: 0xF1F4, symBinAddr: 0x100024458, symSize: 0x94 }
  - { offsetInCU: 0x3A66F, offset: 0x65247, size: 0x8, addend: 0x0, symName: __ZNSt3__16vectorINS_9sub_matchIPKcEENS_9allocatorIS4_EEE11__vallocateB8ue170006Em, symObjAddr: 0xF288, symBinAddr: 0x1000244EC, symSize: 0xB4 }
  - { offsetInCU: 0x3A6B3, offset: 0x6528B, size: 0x8, addend: 0x0, symName: __ZNKSt3__16vectorINS_9sub_matchIPKcEENS_9allocatorIS4_EEE11__recommendB8ue170006Em, symObjAddr: 0xF33C, symBinAddr: 0x1000245A0, symSize: 0xB4 }
  - { offsetInCU: 0x3A724, offset: 0x652FC, size: 0x8, addend: 0x0, symName: __ZNSt3__16vectorINS_9sub_matchIPKcEENS_9allocatorIS4_EEE21_ConstructTransactionC1B8ue170006ERS7_m, symObjAddr: 0xF470, symBinAddr: 0x1000246D4, symSize: 0x3C }
  - { offsetInCU: 0x3A76C, offset: 0x65344, size: 0x8, addend: 0x0, symName: __ZNSt3__116allocator_traitsINS_9allocatorINS_9sub_matchIPKcEEEEE9constructB8ue170006IS5_JRKS5_EvvEEvRS6_PT_DpOT0_, symObjAddr: 0xF4AC, symBinAddr: 0x100024710, symSize: 0x30 }
  - { offsetInCU: 0x3A7C1, offset: 0x65399, size: 0x8, addend: 0x0, symName: __ZNSt3__16vectorINS_9sub_matchIPKcEENS_9allocatorIS4_EEE21_ConstructTransactionD1B8ue170006Ev, symObjAddr: 0xF4DC, symBinAddr: 0x100024740, symSize: 0x2C }
  - { offsetInCU: 0x3A7EB, offset: 0x653C3, size: 0x8, addend: 0x0, symName: __ZNSt3__16vectorINS_9sub_matchIPKcEENS_9allocatorIS4_EEE21_ConstructTransactionC2B8ue170006ERS7_m, symObjAddr: 0xF508, symBinAddr: 0x10002476C, symSize: 0x4C }
  - { offsetInCU: 0x3A833, offset: 0x6540B, size: 0x8, addend: 0x0, symName: __ZNSt3__16vectorINS_9sub_matchIPKcEENS_9allocatorIS4_EEE21_ConstructTransactionD2B8ue170006Ev, symObjAddr: 0xF588, symBinAddr: 0x1000247EC, symSize: 0x20 }
  - { offsetInCU: 0x3A85D, offset: 0x65435, size: 0x8, addend: 0x0, symName: __ZNKSt3__16vectorINS_9sub_matchIPKcEENS_9allocatorIS4_EEE17__annotate_shrinkB8ue170006Em, symObjAddr: 0xF5A8, symBinAddr: 0x10002480C, symSize: 0xD0 }
  - { offsetInCU: 0x3A892, offset: 0x6546A, size: 0x8, addend: 0x0, symName: __ZNSt3__16vectorINS_9sub_matchIPKcEENS_9allocatorIS4_EEE5clearB8ue170006Ev, symObjAddr: 0xF678, symBinAddr: 0x1000248DC, symSize: 0x44 }
  - { offsetInCU: 0x3A8C7, offset: 0x6549F, size: 0x8, addend: 0x0, symName: __ZNSt3__16vectorINS_9sub_matchIPKcEENS_9allocatorIS4_EEE9__end_capB8ue170006Ev, symObjAddr: 0xF6BC, symBinAddr: 0x100024920, symSize: 0x28 }
  - { offsetInCU: 0x3A8ED, offset: 0x654C5, size: 0x8, addend: 0x0, symName: __ZNSt3__117__compressed_pairIPNS_9sub_matchIPKcEENS_9allocatorIS4_EEE5firstB8ue170006Ev, symObjAddr: 0xF6E4, symBinAddr: 0x100024948, symSize: 0x24 }
  - { offsetInCU: 0x3A913, offset: 0x654EB, size: 0x8, addend: 0x0, symName: __ZNSt3__122__compressed_pair_elemIPNS_9sub_matchIPKcEELi0ELb0EE5__getB8ue170006Ev, symObjAddr: 0xF708, symBinAddr: 0x10002496C, symSize: 0x14 }
  - { offsetInCU: 0x3A939, offset: 0x65511, size: 0x8, addend: 0x0, symName: __ZNKSt3__16vectorINS_9sub_matchIPKcEENS_9allocatorIS4_EEE8max_sizeEv, symObjAddr: 0xF71C, symBinAddr: 0x100024980, symSize: 0x60 }
  - { offsetInCU: 0x3A961, offset: 0x65539, size: 0x8, addend: 0x0, symName: __ZNKSt3__16vectorINS_9sub_matchIPKcEENS_9allocatorIS4_EEE20__throw_length_errorB8ue170006Ev, symObjAddr: 0xF77C, symBinAddr: 0x1000249E0, symSize: 0x1C }
  - { offsetInCU: 0x3A987, offset: 0x6555F, size: 0x8, addend: 0x0, symName: __ZNKSt3__16vectorINS_9sub_matchIPKcEENS_9allocatorIS4_EEE14__annotate_newB8ue170006Em, symObjAddr: 0xF7D8, symBinAddr: 0x100024A3C, symSize: 0xC8 }
  - { offsetInCU: 0x3A9C7, offset: 0x6559F, size: 0x8, addend: 0x0, symName: __ZNSt3__116allocator_traitsINS_9allocatorINS_9sub_matchIPKcEEEEE8max_sizeB8ue170006IS6_vvEEmRKS6_, symObjAddr: 0xF8A0, symBinAddr: 0x100024B04, symSize: 0x28 }
  - { offsetInCU: 0x3A9F3, offset: 0x655CB, size: 0x8, addend: 0x0, symName: __ZNKSt3__16vectorINS_9sub_matchIPKcEENS_9allocatorIS4_EEE7__allocB8ue170006Ev, symObjAddr: 0xF8C8, symBinAddr: 0x100024B2C, symSize: 0x28 }
  - { offsetInCU: 0x3AA19, offset: 0x655F1, size: 0x8, addend: 0x0, symName: __ZNKSt3__117__compressed_pairIPNS_9sub_matchIPKcEENS_9allocatorIS4_EEE6secondB8ue170006Ev, symObjAddr: 0xF8F0, symBinAddr: 0x100024B54, symSize: 0x24 }
  - { offsetInCU: 0x3AA3F, offset: 0x65617, size: 0x8, addend: 0x0, symName: __ZNKSt3__122__compressed_pair_elemINS_9allocatorINS_9sub_matchIPKcEEEELi1ELb1EE5__getB8ue170006Ev, symObjAddr: 0xF914, symBinAddr: 0x100024B78, symSize: 0x14 }
  - { offsetInCU: 0x3AA65, offset: 0x6563D, size: 0x8, addend: 0x0, symName: __ZNSt3__19allocatorINS_9sub_matchIPKcEEE8allocateB8ue170006Em, symObjAddr: 0xF928, symBinAddr: 0x100024B8C, symSize: 0x5C }
  - { offsetInCU: 0x3AA99, offset: 0x65671, size: 0x8, addend: 0x0, symName: __ZNSt3__16vectorINS_7__stateIcEENS_9allocatorIS2_EEEC1B8ue170006Ev, symObjAddr: 0xF984, symBinAddr: 0x100024BE8, symSize: 0x2C }
  - { offsetInCU: 0x3AAC3, offset: 0x6569B, size: 0x8, addend: 0x0, symName: __ZNSt3__16vectorINS_7__stateIcEENS_9allocatorIS2_EEE9push_backB8ue170006EOS2_, symObjAddr: 0xF9B0, symBinAddr: 0x100024C14, symSize: 0x6C }
  - { offsetInCU: 0x3AAFA, offset: 0x656D2, size: 0x8, addend: 0x0, symName: __ZNSt3__17__stateIcEC1B8ue170006Ev, symObjAddr: 0xFA1C, symBinAddr: 0x100024C80, symSize: 0x2C }
  - { offsetInCU: 0x3AB24, offset: 0x656FC, size: 0x8, addend: 0x0, symName: __ZNSt3__17__stateIcED1Ev, symObjAddr: 0xFA48, symBinAddr: 0x100024CAC, symSize: 0x2C }
  - { offsetInCU: 0x3AB51, offset: 0x65729, size: 0x8, addend: 0x0, symName: __ZNSt3__16vectorINS_7__stateIcEENS_9allocatorIS2_EEE4backB8ue170006Ev, symObjAddr: 0xFA74, symBinAddr: 0x100024CD8, symSize: 0x1C }
  - { offsetInCU: 0x3AB77, offset: 0x6574F, size: 0x8, addend: 0x0, symName: __ZNSt3__16vectorINS_9sub_matchIPKcEENS_9allocatorIS4_EEE6resizeEmRKS4_, symObjAddr: 0xFA90, symBinAddr: 0x100024CF4, symSize: 0xA4 }
  - { offsetInCU: 0x3ABCC, offset: 0x657A4, size: 0x8, addend: 0x0, symName: __ZNSt3__16vectorINS_4pairImPKcEENS_9allocatorIS4_EEE6resizeEm, symObjAddr: 0xFB34, symBinAddr: 0x100024D98, symSize: 0x94 }
  - { offsetInCU: 0x3AC12, offset: 0x657EA, size: 0x8, addend: 0x0, symName: __ZNKSt3__111basic_regexIcNS_12regex_traitsIcEEE12__loop_countB8ue170006Ev, symObjAddr: 0xFBC8, symBinAddr: 0x100024E2C, symSize: 0x18 }
  - { offsetInCU: 0x3AC38, offset: 0x65810, size: 0x8, addend: 0x0, symName: __ZNSt3__16vectorINS_7__stateIcEENS_9allocatorIS2_EEE8pop_backEv, symObjAddr: 0xFC40, symBinAddr: 0x100024EA4, symSize: 0x2C }
  - { offsetInCU: 0x3AC66, offset: 0x6583E, size: 0x8, addend: 0x0, symName: __ZNSt3__17__stateIcEC1ERKS1_, symObjAddr: 0xFC6C, symBinAddr: 0x100024ED0, symSize: 0x34 }
  - { offsetInCU: 0x3AC9C, offset: 0x65874, size: 0x8, addend: 0x0, symName: __ZNKSt3__16vectorINS_7__stateIcEENS_9allocatorIS2_EEE5emptyB8ue170006Ev, symObjAddr: 0xFD00, symBinAddr: 0x100024F64, symSize: 0x28 }
  - { offsetInCU: 0x3ACC2, offset: 0x6589A, size: 0x8, addend: 0x0, symName: __ZNSt3__16vectorINS_7__stateIcEENS_9allocatorIS2_EEED1B8ue170006Ev, symObjAddr: 0xFD28, symBinAddr: 0x100024F8C, symSize: 0x2C }
  - { offsetInCU: 0x3ACEC, offset: 0x658C4, size: 0x8, addend: 0x0, symName: __ZNSt3__16vectorINS_7__stateIcEENS_9allocatorIS2_EEEC2B8ue170006Ev, symObjAddr: 0xFD54, symBinAddr: 0x100024FB8, symSize: 0x4C }
  - { offsetInCU: 0x3AD16, offset: 0x658EE, size: 0x8, addend: 0x0, symName: __ZNSt3__117__compressed_pairIPNS_7__stateIcEENS_9allocatorIS2_EEEC1B8ue170006IDnNS_18__default_init_tagEEEOT_OT0_, symObjAddr: 0xFDA0, symBinAddr: 0x100025004, symSize: 0x3C }
  - { offsetInCU: 0x3AD6E, offset: 0x65946, size: 0x8, addend: 0x0, symName: __ZNSt3__117__compressed_pairIPNS_7__stateIcEENS_9allocatorIS2_EEEC2B8ue170006IDnNS_18__default_init_tagEEEOT_OT0_, symObjAddr: 0xFDDC, symBinAddr: 0x100025040, symSize: 0x40 }
  - { offsetInCU: 0x3ADC6, offset: 0x6599E, size: 0x8, addend: 0x0, symName: __ZNSt3__122__compressed_pair_elemIPNS_7__stateIcEELi0ELb0EEC2B8ue170006IDnvEEOT_, symObjAddr: 0xFE1C, symBinAddr: 0x100025080, symSize: 0x1C }
  - { offsetInCU: 0x3AE08, offset: 0x659E0, size: 0x8, addend: 0x0, symName: __ZNSt3__122__compressed_pair_elemINS_9allocatorINS_7__stateIcEEEELi1ELb1EEC2B8ue170006ENS_18__default_init_tagE, symObjAddr: 0xFE38, symBinAddr: 0x10002509C, symSize: 0x2C }
  - { offsetInCU: 0x3AE3D, offset: 0x65A15, size: 0x8, addend: 0x0, symName: __ZNSt3__19allocatorINS_7__stateIcEEEC2B8ue170006Ev, symObjAddr: 0xFE64, symBinAddr: 0x1000250C8, symSize: 0x2C }
  - { offsetInCU: 0x3AE67, offset: 0x65A3F, size: 0x8, addend: 0x0, symName: __ZNSt3__116__non_trivial_ifILb1ENS_9allocatorINS_7__stateIcEEEEEC2B8ue170006Ev, symObjAddr: 0xFE90, symBinAddr: 0x1000250F4, symSize: 0x14 }
  - { offsetInCU: 0x3AE91, offset: 0x65A69, size: 0x8, addend: 0x0, symName: __ZNSt3__16vectorINS_7__stateIcEENS_9allocatorIS2_EEE9__end_capB8ue170006Ev, symObjAddr: 0xFEA4, symBinAddr: 0x100025108, symSize: 0x28 }
  - { offsetInCU: 0x3AEBD, offset: 0x65A95, size: 0x8, addend: 0x0, symName: __ZNSt3__16vectorINS_7__stateIcEENS_9allocatorIS2_EEE22__construct_one_at_endB8ue170006IJS2_EEEvDpOT_, symObjAddr: 0xFECC, symBinAddr: 0x100025130, symSize: 0x90 }
  - { offsetInCU: 0x3AF0C, offset: 0x65AE4, size: 0x8, addend: 0x0, symName: __ZNSt3__16vectorINS_7__stateIcEENS_9allocatorIS2_EEE21__push_back_slow_pathIS2_EEvOT_, symObjAddr: 0xFF5C, symBinAddr: 0x1000251C0, symSize: 0xD8 }
  - { offsetInCU: 0x3AF6A, offset: 0x65B42, size: 0x8, addend: 0x0, symName: __ZNSt3__117__compressed_pairIPNS_7__stateIcEENS_9allocatorIS2_EEE5firstB8ue170006Ev, symObjAddr: 0x10034, symBinAddr: 0x100025298, symSize: 0x24 }
  - { offsetInCU: 0x3AF90, offset: 0x65B68, size: 0x8, addend: 0x0, symName: __ZNSt3__122__compressed_pair_elemIPNS_7__stateIcEELi0ELb0EE5__getB8ue170006Ev, symObjAddr: 0x10058, symBinAddr: 0x1000252BC, symSize: 0x14 }
  - { offsetInCU: 0x3AFD2, offset: 0x65BAA, size: 0x8, addend: 0x0, symName: __ZNSt3__16vectorINS_7__stateIcEENS_9allocatorIS2_EEE21_ConstructTransactionC1B8ue170006ERS5_m, symObjAddr: 0x1006C, symBinAddr: 0x1000252D0, symSize: 0x3C }
  - { offsetInCU: 0x3B01A, offset: 0x65BF2, size: 0x8, addend: 0x0, symName: __ZNSt3__116allocator_traitsINS_9allocatorINS_7__stateIcEEEEE9constructB8ue170006IS3_JS3_EvvEEvRS4_PT_DpOT0_, symObjAddr: 0x100A8, symBinAddr: 0x10002530C, symSize: 0x30 }
  - { offsetInCU: 0x3B06F, offset: 0x65C47, size: 0x8, addend: 0x0, symName: __ZNSt3__16vectorINS_7__stateIcEENS_9allocatorIS2_EEE7__allocB8ue170006Ev, symObjAddr: 0x100D8, symBinAddr: 0x10002533C, symSize: 0x28 }
  - { offsetInCU: 0x3B095, offset: 0x65C6D, size: 0x8, addend: 0x0, symName: __ZNSt3__16vectorINS_7__stateIcEENS_9allocatorIS2_EEE21_ConstructTransactionD1B8ue170006Ev, symObjAddr: 0x10114, symBinAddr: 0x100025378, symSize: 0x2C }
  - { offsetInCU: 0x3B0BF, offset: 0x65C97, size: 0x8, addend: 0x0, symName: __ZNSt3__16vectorINS_7__stateIcEENS_9allocatorIS2_EEE21_ConstructTransactionC2B8ue170006ERS5_m, symObjAddr: 0x10140, symBinAddr: 0x1000253A4, symSize: 0x4C }
  - { offsetInCU: 0x3B107, offset: 0x65CDF, size: 0x8, addend: 0x0, symName: __ZNSt3__17__stateIcEC1EOS1_, symObjAddr: 0x101C8, symBinAddr: 0x10002542C, symSize: 0x34 }
  - { offsetInCU: 0x3B13D, offset: 0x65D15, size: 0x8, addend: 0x0, symName: __ZNSt3__17__stateIcEC2EOS1_, symObjAddr: 0x101FC, symBinAddr: 0x100025460, symSize: 0x78 }
  - { offsetInCU: 0x3B173, offset: 0x65D4B, size: 0x8, addend: 0x0, symName: __ZNSt3__16vectorINS_9sub_matchIPKcEENS_9allocatorIS4_EEEC1B8ue170006EOS7_, symObjAddr: 0x10274, symBinAddr: 0x1000254D8, symSize: 0x34 }
  - { offsetInCU: 0x3B1AE, offset: 0x65D86, size: 0x8, addend: 0x0, symName: __ZNSt3__16vectorINS_4pairImPKcEENS_9allocatorIS4_EEEC1B8ue170006EOS7_, symObjAddr: 0x102A8, symBinAddr: 0x10002550C, symSize: 0x34 }
  - { offsetInCU: 0x3B1E9, offset: 0x65DC1, size: 0x8, addend: 0x0, symName: __ZNSt3__16vectorINS_9sub_matchIPKcEENS_9allocatorIS4_EEEC2B8ue170006EOS7_, symObjAddr: 0x102DC, symBinAddr: 0x100025540, symSize: 0xC4 }
  - { offsetInCU: 0x3B22A, offset: 0x65E02, size: 0x8, addend: 0x0, symName: __ZNSt3__117__compressed_pairIPNS_9sub_matchIPKcEENS_9allocatorIS4_EEEC1B8ue170006IDnS7_EEOT_OT0_, symObjAddr: 0x103A0, symBinAddr: 0x100025604, symSize: 0x3C }
  - { offsetInCU: 0x3B282, offset: 0x65E5A, size: 0x8, addend: 0x0, symName: __ZNSt3__117__compressed_pairIPNS_9sub_matchIPKcEENS_9allocatorIS4_EEEC2B8ue170006IDnS7_EEOT_OT0_, symObjAddr: 0x103DC, symBinAddr: 0x100025640, symSize: 0x44 }
  - { offsetInCU: 0x3B2DA, offset: 0x65EB2, size: 0x8, addend: 0x0, symName: __ZNSt3__122__compressed_pair_elemINS_9allocatorINS_9sub_matchIPKcEEEELi1ELb1EEC2B8ue170006IS6_vEEOT_, symObjAddr: 0x10420, symBinAddr: 0x100025684, symSize: 0x18 }
  - { offsetInCU: 0x3B31C, offset: 0x65EF4, size: 0x8, addend: 0x0, symName: __ZNSt3__16vectorINS_4pairImPKcEENS_9allocatorIS4_EEEC2B8ue170006EOS7_, symObjAddr: 0x10438, symBinAddr: 0x10002569C, symSize: 0xC4 }
  - { offsetInCU: 0x3B357, offset: 0x65F2F, size: 0x8, addend: 0x0, symName: __ZNSt3__16vectorINS_4pairImPKcEENS_9allocatorIS4_EEE7__allocB8ue170006Ev, symObjAddr: 0x104FC, symBinAddr: 0x100025760, symSize: 0x28 }
  - { offsetInCU: 0x3B383, offset: 0x65F5B, size: 0x8, addend: 0x0, symName: __ZNSt3__117__compressed_pairIPNS_4pairImPKcEENS_9allocatorIS4_EEEC1B8ue170006IDnS7_EEOT_OT0_, symObjAddr: 0x10524, symBinAddr: 0x100025788, symSize: 0x3C }
  - { offsetInCU: 0x3B3DB, offset: 0x65FB3, size: 0x8, addend: 0x0, symName: __ZNSt3__16vectorINS_4pairImPKcEENS_9allocatorIS4_EEE9__end_capB8ue170006Ev, symObjAddr: 0x10560, symBinAddr: 0x1000257C4, symSize: 0x28 }
  - { offsetInCU: 0x3B401, offset: 0x65FD9, size: 0x8, addend: 0x0, symName: __ZNSt3__117__compressed_pairIPNS_4pairImPKcEENS_9allocatorIS4_EEE6secondB8ue170006Ev, symObjAddr: 0x10588, symBinAddr: 0x1000257EC, symSize: 0x24 }
  - { offsetInCU: 0x3B427, offset: 0x65FFF, size: 0x8, addend: 0x0, symName: __ZNSt3__122__compressed_pair_elemINS_9allocatorINS_4pairImPKcEEEELi1ELb1EE5__getB8ue170006Ev, symObjAddr: 0x105AC, symBinAddr: 0x100025810, symSize: 0x14 }
  - { offsetInCU: 0x3B44D, offset: 0x66025, size: 0x8, addend: 0x0, symName: __ZNSt3__117__compressed_pairIPNS_4pairImPKcEENS_9allocatorIS4_EEEC2B8ue170006IDnS7_EEOT_OT0_, symObjAddr: 0x105C0, symBinAddr: 0x100025824, symSize: 0x44 }
  - { offsetInCU: 0x3B4A5, offset: 0x6607D, size: 0x8, addend: 0x0, symName: __ZNSt3__122__compressed_pair_elemIPNS_4pairImPKcEELi0ELb0EEC2B8ue170006IDnvEEOT_, symObjAddr: 0x10604, symBinAddr: 0x100025868, symSize: 0x1C }
  - { offsetInCU: 0x3B4E7, offset: 0x660BF, size: 0x8, addend: 0x0, symName: __ZNSt3__122__compressed_pair_elemINS_9allocatorINS_4pairImPKcEEEELi1ELb1EEC2B8ue170006IS6_vEEOT_, symObjAddr: 0x10620, symBinAddr: 0x100025884, symSize: 0x18 }
  - { offsetInCU: 0x3B529, offset: 0x66101, size: 0x8, addend: 0x0, symName: __ZNSt3__117__compressed_pairIPNS_4pairImPKcEENS_9allocatorIS4_EEE5firstB8ue170006Ev, symObjAddr: 0x10638, symBinAddr: 0x10002589C, symSize: 0x24 }
  - { offsetInCU: 0x3B54F, offset: 0x66127, size: 0x8, addend: 0x0, symName: __ZNSt3__122__compressed_pair_elemIPNS_4pairImPKcEELi0ELb0EE5__getB8ue170006Ev, symObjAddr: 0x1065C, symBinAddr: 0x1000258C0, symSize: 0x14 }
  - { offsetInCU: 0x3B575, offset: 0x6614D, size: 0x8, addend: 0x0, symName: __ZNSt3__117__compressed_pairIPNS_7__stateIcEENS_9allocatorIS2_EEE6secondB8ue170006Ev, symObjAddr: 0x10670, symBinAddr: 0x1000258D4, symSize: 0x24 }
  - { offsetInCU: 0x3B59B, offset: 0x66173, size: 0x8, addend: 0x0, symName: __ZNSt3__122__compressed_pair_elemINS_9allocatorINS_7__stateIcEEEELi1ELb1EE5__getB8ue170006Ev, symObjAddr: 0x10694, symBinAddr: 0x1000258F8, symSize: 0x14 }
  - { offsetInCU: 0x3B5C1, offset: 0x66199, size: 0x8, addend: 0x0, symName: __ZNSt3__16vectorINS_7__stateIcEENS_9allocatorIS2_EEE21_ConstructTransactionD2B8ue170006Ev, symObjAddr: 0x106A8, symBinAddr: 0x10002590C, symSize: 0x20 }
  - { offsetInCU: 0x3B5EB, offset: 0x661C3, size: 0x8, addend: 0x0, symName: __ZNKSt3__16vectorINS_7__stateIcEENS_9allocatorIS2_EEE11__recommendB8ue170006Em, symObjAddr: 0x106C8, symBinAddr: 0x10002592C, symSize: 0xB4 }
  - { offsetInCU: 0x3B640, offset: 0x66218, size: 0x8, addend: 0x0, symName: __ZNKSt3__16vectorINS_7__stateIcEENS_9allocatorIS2_EEE4sizeB8ue170006Ev, symObjAddr: 0x1077C, symBinAddr: 0x1000259E0, symSize: 0x28 }
  - { offsetInCU: 0x3B666, offset: 0x6623E, size: 0x8, addend: 0x0, symName: __ZNSt3__114__split_bufferINS_7__stateIcEERNS_9allocatorIS2_EEEC1EmmS5_, symObjAddr: 0x107A4, symBinAddr: 0x100025A08, symSize: 0x44 }
  - { offsetInCU: 0x3B6BC, offset: 0x66294, size: 0x8, addend: 0x0, symName: __ZNSt3__114__split_bufferINS_7__stateIcEERNS_9allocatorIS2_EEED1Ev, symObjAddr: 0x108F8, symBinAddr: 0x100025B5C, symSize: 0x2C }
  - { offsetInCU: 0x3B6E8, offset: 0x662C0, size: 0x8, addend: 0x0, symName: __ZNKSt3__16vectorINS_7__stateIcEENS_9allocatorIS2_EEE8max_sizeEv, symObjAddr: 0x10924, symBinAddr: 0x100025B88, symSize: 0x60 }
  - { offsetInCU: 0x3B710, offset: 0x662E8, size: 0x8, addend: 0x0, symName: __ZNKSt3__16vectorINS_7__stateIcEENS_9allocatorIS2_EEE20__throw_length_errorB8ue170006Ev, symObjAddr: 0x10984, symBinAddr: 0x100025BE8, symSize: 0x1C }
  - { offsetInCU: 0x3B736, offset: 0x6630E, size: 0x8, addend: 0x0, symName: __ZNKSt3__16vectorINS_7__stateIcEENS_9allocatorIS2_EEE8capacityB8ue170006Ev, symObjAddr: 0x109A0, symBinAddr: 0x100025C04, symSize: 0x40 }
  - { offsetInCU: 0x3B767, offset: 0x6633F, size: 0x8, addend: 0x0, symName: __ZNSt3__116allocator_traitsINS_9allocatorINS_7__stateIcEEEEE8max_sizeB8ue170006IS4_vvEEmRKS4_, symObjAddr: 0x109E0, symBinAddr: 0x100025C44, symSize: 0x28 }
  - { offsetInCU: 0x3B793, offset: 0x6636B, size: 0x8, addend: 0x0, symName: __ZNKSt3__16vectorINS_7__stateIcEENS_9allocatorIS2_EEE7__allocB8ue170006Ev, symObjAddr: 0x10A08, symBinAddr: 0x100025C6C, symSize: 0x28 }
  - { offsetInCU: 0x3B7B9, offset: 0x66391, size: 0x8, addend: 0x0, symName: __ZNKSt3__117__compressed_pairIPNS_7__stateIcEENS_9allocatorIS2_EEE6secondB8ue170006Ev, symObjAddr: 0x10A30, symBinAddr: 0x100025C94, symSize: 0x24 }
  - { offsetInCU: 0x3B7DF, offset: 0x663B7, size: 0x8, addend: 0x0, symName: __ZNKSt3__122__compressed_pair_elemINS_9allocatorINS_7__stateIcEEEELi1ELb1EE5__getB8ue170006Ev, symObjAddr: 0x10A54, symBinAddr: 0x100025CB8, symSize: 0x14 }
  - { offsetInCU: 0x3B805, offset: 0x663DD, size: 0x8, addend: 0x0, symName: __ZNKSt3__16vectorINS_7__stateIcEENS_9allocatorIS2_EEE9__end_capB8ue170006Ev, symObjAddr: 0x10A68, symBinAddr: 0x100025CCC, symSize: 0x28 }
  - { offsetInCU: 0x3B82B, offset: 0x66403, size: 0x8, addend: 0x0, symName: __ZNKSt3__117__compressed_pairIPNS_7__stateIcEENS_9allocatorIS2_EEE5firstB8ue170006Ev, symObjAddr: 0x10A90, symBinAddr: 0x100025CF4, symSize: 0x24 }
  - { offsetInCU: 0x3B851, offset: 0x66429, size: 0x8, addend: 0x0, symName: __ZNKSt3__122__compressed_pair_elemIPNS_7__stateIcEELi0ELb0EE5__getB8ue170006Ev, symObjAddr: 0x10AB4, symBinAddr: 0x100025D18, symSize: 0x14 }
  - { offsetInCU: 0x3B877, offset: 0x6644F, size: 0x8, addend: 0x0, symName: __ZNSt3__114__split_bufferINS_7__stateIcEERNS_9allocatorIS2_EEEC2EmmS5_, symObjAddr: 0x10AC8, symBinAddr: 0x100025D2C, symSize: 0xE0 }
  - { offsetInCU: 0x3B8EA, offset: 0x664C2, size: 0x8, addend: 0x0, symName: __ZNSt3__117__compressed_pairIPNS_7__stateIcEERNS_9allocatorIS2_EEEC1B8ue170006IDnS6_EEOT_OT0_, symObjAddr: 0x10BA8, symBinAddr: 0x100025E0C, symSize: 0x3C }
  - { offsetInCU: 0x3B942, offset: 0x6651A, size: 0x8, addend: 0x0, symName: __ZNSt3__114__split_bufferINS_7__stateIcEERNS_9allocatorIS2_EEE7__allocB8ue170006Ev, symObjAddr: 0x10C24, symBinAddr: 0x100025E88, symSize: 0x28 }
  - { offsetInCU: 0x3B968, offset: 0x66540, size: 0x8, addend: 0x0, symName: __ZNSt3__114__split_bufferINS_7__stateIcEERNS_9allocatorIS2_EEE9__end_capB8ue170006Ev, symObjAddr: 0x10C4C, symBinAddr: 0x100025EB0, symSize: 0x28 }
  - { offsetInCU: 0x3B98E, offset: 0x66566, size: 0x8, addend: 0x0, symName: __ZNSt3__117__compressed_pairIPNS_7__stateIcEERNS_9allocatorIS2_EEEC2B8ue170006IDnS6_EEOT_OT0_, symObjAddr: 0x10C74, symBinAddr: 0x100025ED8, symSize: 0x48 }
  - { offsetInCU: 0x3B9E6, offset: 0x665BE, size: 0x8, addend: 0x0, symName: __ZNSt3__122__compressed_pair_elemIRNS_9allocatorINS_7__stateIcEEEELi1ELb0EEC2B8ue170006IS5_vEEOT_, symObjAddr: 0x10CBC, symBinAddr: 0x100025F20, symSize: 0x20 }
  - { offsetInCU: 0x3BA28, offset: 0x66600, size: 0x8, addend: 0x0, symName: __ZNSt3__19allocatorINS_7__stateIcEEE8allocateB8ue170006Em, symObjAddr: 0x10CDC, symBinAddr: 0x100025F40, symSize: 0x5C }
  - { offsetInCU: 0x3BA5C, offset: 0x66634, size: 0x8, addend: 0x0, symName: __ZNSt3__117__compressed_pairIPNS_7__stateIcEERNS_9allocatorIS2_EEE6secondB8ue170006Ev, symObjAddr: 0x10D38, symBinAddr: 0x100025F9C, symSize: 0x28 }
  - { offsetInCU: 0x3BA82, offset: 0x6665A, size: 0x8, addend: 0x0, symName: __ZNSt3__122__compressed_pair_elemIRNS_9allocatorINS_7__stateIcEEEELi1ELb0EE5__getB8ue170006Ev, symObjAddr: 0x10D60, symBinAddr: 0x100025FC4, symSize: 0x18 }
  - { offsetInCU: 0x3BAA8, offset: 0x66680, size: 0x8, addend: 0x0, symName: __ZNSt3__117__compressed_pairIPNS_7__stateIcEERNS_9allocatorIS2_EEE5firstB8ue170006Ev, symObjAddr: 0x10D78, symBinAddr: 0x100025FDC, symSize: 0x24 }
  - { offsetInCU: 0x3BACE, offset: 0x666A6, size: 0x8, addend: 0x0, symName: __ZNKSt3__16vectorINS_7__stateIcEENS_9allocatorIS2_EEE17__annotate_deleteB8ue170006Ev, symObjAddr: 0x10D9C, symBinAddr: 0x100026000, symSize: 0xD4 }
  - { offsetInCU: 0x3BAF4, offset: 0x666CC, size: 0x8, addend: 0x0, symName: __ZNSt3__116reverse_iteratorIPNS_7__stateIcEEEC1B8ue170006ES3_, symObjAddr: 0x10F9C, symBinAddr: 0x100026200, symSize: 0x34 }
  - { offsetInCU: 0x3BB2C, offset: 0x66704, size: 0x8, addend: 0x0, symName: __ZNKSt3__116reverse_iteratorIPNS_7__stateIcEEE4baseB8ue170006Ev, symObjAddr: 0x10FD0, symBinAddr: 0x100026234, symSize: 0x18 }
  - { offsetInCU: 0x3BB52, offset: 0x6672A, size: 0x8, addend: 0x0, symName: __ZNKSt3__16vectorINS_7__stateIcEENS_9allocatorIS2_EEE14__annotate_newB8ue170006Em, symObjAddr: 0x11024, symBinAddr: 0x100026288, symSize: 0xC8 }
  - { offsetInCU: 0x3BB87, offset: 0x6675F, size: 0x8, addend: 0x0, symName: __ZNKSt3__16vectorINS_7__stateIcEENS_9allocatorIS2_EEE31__annotate_contiguous_containerB8ue170006EPKvS7_S7_S7_, symObjAddr: 0x110EC, symBinAddr: 0x100026350, symSize: 0x20 }
  - { offsetInCU: 0x3BBDD, offset: 0x667B5, size: 0x8, addend: 0x0, symName: __ZNKSt3__16vectorINS_7__stateIcEENS_9allocatorIS2_EEE4dataB8ue170006Ev, symObjAddr: 0x1110C, symBinAddr: 0x100026370, symSize: 0x28 }
  - { offsetInCU: 0x3BC03, offset: 0x667DB, size: 0x8, addend: 0x0, symName: __ZNSt3__129_AllocatorDestroyRangeReverseINS_9allocatorINS_7__stateIcEEEENS_16reverse_iteratorIPS3_EEEC1B8ue170006ERS4_RS7_SA_, symObjAddr: 0x11180, symBinAddr: 0x1000263E4, symSize: 0x44 }
  - { offsetInCU: 0x3BC5A, offset: 0x66832, size: 0x8, addend: 0x0, symName: __ZNKSt3__116reverse_iteratorIPNS_7__stateIcEEEdeB8ue170006Ev, symObjAddr: 0x11230, symBinAddr: 0x100026494, symSize: 0x28 }
  - { offsetInCU: 0x3BC8F, offset: 0x66867, size: 0x8, addend: 0x0, symName: __ZNSt3__116reverse_iteratorIPNS_7__stateIcEEEppB8ue170006Ev, symObjAddr: 0x11258, symBinAddr: 0x1000264BC, symSize: 0x20 }
  - { offsetInCU: 0x3BCB5, offset: 0x6688D, size: 0x8, addend: 0x0, symName: __ZNSt3__128__exception_guard_exceptionsINS_29_AllocatorDestroyRangeReverseINS_9allocatorINS_7__stateIcEEEENS_16reverse_iteratorIPS4_EEEEE10__completeB8ue170006Ev, symObjAddr: 0x11278, symBinAddr: 0x1000264DC, symSize: 0x1C }
  - { offsetInCU: 0x3BCDB, offset: 0x668B3, size: 0x8, addend: 0x0, symName: __ZNSt3__128__exception_guard_exceptionsINS_29_AllocatorDestroyRangeReverseINS_9allocatorINS_7__stateIcEEEENS_16reverse_iteratorIPS4_EEEEED1B8ue170006Ev, symObjAddr: 0x11294, symBinAddr: 0x1000264F8, symSize: 0x2C }
  - { offsetInCU: 0x3BD05, offset: 0x668DD, size: 0x8, addend: 0x0, symName: __ZNSt3__128__exception_guard_exceptionsINS_29_AllocatorDestroyRangeReverseINS_9allocatorINS_7__stateIcEEEENS_16reverse_iteratorIPS4_EEEEEC1B8ue170006ES9_, symObjAddr: 0x112C0, symBinAddr: 0x100026524, symSize: 0x34 }
  - { offsetInCU: 0x3BD3E, offset: 0x66916, size: 0x8, addend: 0x0, symName: __ZNSt3__128__exception_guard_exceptionsINS_29_AllocatorDestroyRangeReverseINS_9allocatorINS_7__stateIcEEEENS_16reverse_iteratorIPS4_EEEEEC2B8ue170006ES9_, symObjAddr: 0x112F4, symBinAddr: 0x100026558, symSize: 0x30 }
  - { offsetInCU: 0x3BD77, offset: 0x6694F, size: 0x8, addend: 0x0, symName: __ZNSt3__129_AllocatorDestroyRangeReverseINS_9allocatorINS_7__stateIcEEEENS_16reverse_iteratorIPS3_EEEC2B8ue170006ERS4_RS7_SA_, symObjAddr: 0x11324, symBinAddr: 0x100026588, symSize: 0x38 }
  - { offsetInCU: 0x3BDD4, offset: 0x669AC, size: 0x8, addend: 0x0, symName: __ZNSt3__119__to_address_helperINS_16reverse_iteratorIPNS_7__stateIcEEEEvE6__callB8ue170006ERKS5_, symObjAddr: 0x1135C, symBinAddr: 0x1000265C0, symSize: 0x38 }
  - { offsetInCU: 0x3BDF7, offset: 0x669CF, size: 0x8, addend: 0x0, symName: __ZNKSt3__116reverse_iteratorIPNS_7__stateIcEEEptB8ue170006Ev, symObjAddr: 0x11394, symBinAddr: 0x1000265F8, symSize: 0x2C }
  - { offsetInCU: 0x3BE1D, offset: 0x669F5, size: 0x8, addend: 0x0, symName: __ZNSt3__128__exception_guard_exceptionsINS_29_AllocatorDestroyRangeReverseINS_9allocatorINS_7__stateIcEEEENS_16reverse_iteratorIPS4_EEEEED2B8ue170006Ev, symObjAddr: 0x11464, symBinAddr: 0x1000266C8, symSize: 0x50 }
  - { offsetInCU: 0x3BE47, offset: 0x66A1F, size: 0x8, addend: 0x0, symName: __ZNKSt3__129_AllocatorDestroyRangeReverseINS_9allocatorINS_7__stateIcEEEENS_16reverse_iteratorIPS3_EEEclB8ue170006Ev, symObjAddr: 0x114B4, symBinAddr: 0x100026718, symSize: 0xB4 }
  - { offsetInCU: 0x3BE6E, offset: 0x66A46, size: 0x8, addend: 0x0, symName: __ZNSt3__116reverse_iteratorINS0_IPNS_7__stateIcEEEEEC1B8ue170006ES4_, symObjAddr: 0x115D8, symBinAddr: 0x10002683C, symSize: 0x3C }
  - { offsetInCU: 0x3BEA6, offset: 0x66A7E, size: 0x8, addend: 0x0, symName: __ZNSt3__116allocator_traitsINS_9allocatorINS_7__stateIcEEEEE7destroyB8ue170006IS3_vvEEvRS4_PT_, symObjAddr: 0x11674, symBinAddr: 0x1000268D8, symSize: 0x28 }
  - { offsetInCU: 0x3BEE1, offset: 0x66AB9, size: 0x8, addend: 0x0, symName: __ZNSt3__116reverse_iteratorINS0_IPNS_7__stateIcEEEEEppB8ue170006Ev, symObjAddr: 0x116C0, symBinAddr: 0x100026924, symSize: 0x30 }
  - { offsetInCU: 0x3BF07, offset: 0x66ADF, size: 0x8, addend: 0x0, symName: __ZNKSt3__116reverse_iteratorINS0_IPNS_7__stateIcEEEEE4baseB8ue170006Ev, symObjAddr: 0x116F0, symBinAddr: 0x100026954, symSize: 0x24 }
  - { offsetInCU: 0x3BF33, offset: 0x66B0B, size: 0x8, addend: 0x0, symName: __ZNSt3__119__to_address_helperINS_16reverse_iteratorINS1_IPNS_7__stateIcEEEEEEvE6__callB8ue170006ERKS6_, symObjAddr: 0x1175C, symBinAddr: 0x1000269C0, symSize: 0x38 }
  - { offsetInCU: 0x3BF56, offset: 0x66B2E, size: 0x8, addend: 0x0, symName: __ZNKSt3__116reverse_iteratorINS0_IPNS_7__stateIcEEEEEptB8ue170006Ev, symObjAddr: 0x11794, symBinAddr: 0x1000269F8, symSize: 0x4C }
  - { offsetInCU: 0x3BF7C, offset: 0x66B54, size: 0x8, addend: 0x0, symName: __ZNSt3__116reverse_iteratorIPNS_7__stateIcEEEpLB8ue170006El, symObjAddr: 0x11890, symBinAddr: 0x100026AF4, symSize: 0x30 }
  - { offsetInCU: 0x3BFB0, offset: 0x66B88, size: 0x8, addend: 0x0, symName: __ZNSt3__116reverse_iteratorIPNS_7__stateIcEEEmmB8ue170006Ev, symObjAddr: 0x118C0, symBinAddr: 0x100026B24, symSize: 0x20 }
  - { offsetInCU: 0x3BFD6, offset: 0x66BAE, size: 0x8, addend: 0x0, symName: __ZNSt3__116reverse_iteratorINS0_IPNS_7__stateIcEEEEEC2B8ue170006ES4_, symObjAddr: 0x118E0, symBinAddr: 0x100026B44, symSize: 0x2C }
  - { offsetInCU: 0x3C00E, offset: 0x66BE6, size: 0x8, addend: 0x0, symName: __ZNSt3__116reverse_iteratorIPNS_7__stateIcEEEC2B8ue170006ES3_, symObjAddr: 0x1190C, symBinAddr: 0x100026B70, symSize: 0x28 }
  - { offsetInCU: 0x3C046, offset: 0x66C1E, size: 0x8, addend: 0x0, symName: __ZNSt3__114__split_bufferINS_7__stateIcEERNS_9allocatorIS2_EEED2Ev, symObjAddr: 0x11934, symBinAddr: 0x100026B98, symSize: 0x8C }
  - { offsetInCU: 0x3C072, offset: 0x66C4A, size: 0x8, addend: 0x0, symName: __ZNSt3__114__split_bufferINS_7__stateIcEERNS_9allocatorIS2_EEE5clearB8ue170006Ev, symObjAddr: 0x119C0, symBinAddr: 0x100026C24, symSize: 0x28 }
  - { offsetInCU: 0x3C098, offset: 0x66C70, size: 0x8, addend: 0x0, symName: __ZNSt3__116allocator_traitsINS_9allocatorINS_7__stateIcEEEEE10deallocateB8ue170006ERS4_PS3_m, symObjAddr: 0x119E8, symBinAddr: 0x100026C4C, symSize: 0x34 }
  - { offsetInCU: 0x3C0DA, offset: 0x66CB2, size: 0x8, addend: 0x0, symName: __ZNKSt3__114__split_bufferINS_7__stateIcEERNS_9allocatorIS2_EEE8capacityB8ue170006Ev, symObjAddr: 0x11A1C, symBinAddr: 0x100026C80, symSize: 0x40 }
  - { offsetInCU: 0x3C100, offset: 0x66CD8, size: 0x8, addend: 0x0, symName: __ZNSt3__114__split_bufferINS_7__stateIcEERNS_9allocatorIS2_EEE17__destruct_at_endB8ue170006EPS2_, symObjAddr: 0x11A5C, symBinAddr: 0x100026CC0, symSize: 0x2C }
  - { offsetInCU: 0x3C134, offset: 0x66D0C, size: 0x8, addend: 0x0, symName: __ZNSt3__114__split_bufferINS_7__stateIcEERNS_9allocatorIS2_EEE17__destruct_at_endB8ue170006EPS2_NS_17integral_constantIbLb0EEE, symObjAddr: 0x11A88, symBinAddr: 0x100026CEC, symSize: 0x80 }
  - { offsetInCU: 0x3C175, offset: 0x66D4D, size: 0x8, addend: 0x0, symName: __ZNSt3__19allocatorINS_7__stateIcEEE10deallocateB8ue170006EPS2_m, symObjAddr: 0x11B08, symBinAddr: 0x100026D6C, symSize: 0x44 }
  - { offsetInCU: 0x3C1B7, offset: 0x66D8F, size: 0x8, addend: 0x0, symName: __ZNKSt3__114__split_bufferINS_7__stateIcEERNS_9allocatorIS2_EEE9__end_capB8ue170006Ev, symObjAddr: 0x11B4C, symBinAddr: 0x100026DB0, symSize: 0x28 }
  - { offsetInCU: 0x3C1DD, offset: 0x66DB5, size: 0x8, addend: 0x0, symName: __ZNKSt3__117__compressed_pairIPNS_7__stateIcEERNS_9allocatorIS2_EEE5firstB8ue170006Ev, symObjAddr: 0x11B74, symBinAddr: 0x100026DD8, symSize: 0x24 }
  - { offsetInCU: 0x3C203, offset: 0x66DDB, size: 0x8, addend: 0x0, symName: __ZNSt3__17__stateIcEC2B8ue170006Ev, symObjAddr: 0x11B98, symBinAddr: 0x100026DFC, symSize: 0x54 }
  - { offsetInCU: 0x3C22D, offset: 0x66E05, size: 0x8, addend: 0x0, symName: __ZNSt3__16vectorINS_9sub_matchIPKcEENS_9allocatorIS4_EEEC1B8ue170006Ev, symObjAddr: 0x11BEC, symBinAddr: 0x100026E50, symSize: 0x2C }
  - { offsetInCU: 0x3C257, offset: 0x66E2F, size: 0x8, addend: 0x0, symName: __ZNSt3__16vectorINS_4pairImPKcEENS_9allocatorIS4_EEEC1B8ue170006Ev, symObjAddr: 0x11C18, symBinAddr: 0x100026E7C, symSize: 0x2C }
  - { offsetInCU: 0x3C281, offset: 0x66E59, size: 0x8, addend: 0x0, symName: __ZNSt3__16vectorINS_9sub_matchIPKcEENS_9allocatorIS4_EEEC2B8ue170006Ev, symObjAddr: 0x11C44, symBinAddr: 0x100026EA8, symSize: 0x4C }
  - { offsetInCU: 0x3C2AB, offset: 0x66E83, size: 0x8, addend: 0x0, symName: __ZNSt3__117__compressed_pairIPNS_9sub_matchIPKcEENS_9allocatorIS4_EEEC1B8ue170006IDnNS_18__default_init_tagEEEOT_OT0_, symObjAddr: 0x11C90, symBinAddr: 0x100026EF4, symSize: 0x3C }
  - { offsetInCU: 0x3C303, offset: 0x66EDB, size: 0x8, addend: 0x0, symName: __ZNSt3__117__compressed_pairIPNS_9sub_matchIPKcEENS_9allocatorIS4_EEEC2B8ue170006IDnNS_18__default_init_tagEEEOT_OT0_, symObjAddr: 0x11CCC, symBinAddr: 0x100026F30, symSize: 0x40 }
  - { offsetInCU: 0x3C35B, offset: 0x66F33, size: 0x8, addend: 0x0, symName: __ZNSt3__122__compressed_pair_elemINS_9allocatorINS_9sub_matchIPKcEEEELi1ELb1EEC2B8ue170006ENS_18__default_init_tagE, symObjAddr: 0x11D0C, symBinAddr: 0x100026F70, symSize: 0x2C }
  - { offsetInCU: 0x3C390, offset: 0x66F68, size: 0x8, addend: 0x0, symName: __ZNSt3__16vectorINS_4pairImPKcEENS_9allocatorIS4_EEEC2B8ue170006Ev, symObjAddr: 0x11D38, symBinAddr: 0x100026F9C, symSize: 0x4C }
  - { offsetInCU: 0x3C3BA, offset: 0x66F92, size: 0x8, addend: 0x0, symName: __ZNSt3__117__compressed_pairIPNS_4pairImPKcEENS_9allocatorIS4_EEEC1B8ue170006IDnNS_18__default_init_tagEEEOT_OT0_, symObjAddr: 0x11D84, symBinAddr: 0x100026FE8, symSize: 0x3C }
  - { offsetInCU: 0x3C412, offset: 0x66FEA, size: 0x8, addend: 0x0, symName: __ZNSt3__117__compressed_pairIPNS_4pairImPKcEENS_9allocatorIS4_EEEC2B8ue170006IDnNS_18__default_init_tagEEEOT_OT0_, symObjAddr: 0x11DC0, symBinAddr: 0x100027024, symSize: 0x40 }
  - { offsetInCU: 0x3C46A, offset: 0x67042, size: 0x8, addend: 0x0, symName: __ZNSt3__122__compressed_pair_elemINS_9allocatorINS_4pairImPKcEEEELi1ELb1EEC2B8ue170006ENS_18__default_init_tagE, symObjAddr: 0x11E00, symBinAddr: 0x100027064, symSize: 0x2C }
  - { offsetInCU: 0x3C49F, offset: 0x67077, size: 0x8, addend: 0x0, symName: __ZNSt3__19allocatorINS_4pairImPKcEEEC2B8ue170006Ev, symObjAddr: 0x11E2C, symBinAddr: 0x100027090, symSize: 0x2C }
  - { offsetInCU: 0x3C4C9, offset: 0x670A1, size: 0x8, addend: 0x0, symName: __ZNSt3__116__non_trivial_ifILb1ENS_9allocatorINS_4pairImPKcEEEEEC2B8ue170006Ev, symObjAddr: 0x11E58, symBinAddr: 0x1000270BC, symSize: 0x14 }
  - { offsetInCU: 0x3C4F3, offset: 0x670CB, size: 0x8, addend: 0x0, symName: __ZNSt3__17__stateIcED2Ev, symObjAddr: 0x11E6C, symBinAddr: 0x1000270D0, symSize: 0x3C }
  - { offsetInCU: 0x3C520, offset: 0x670F8, size: 0x8, addend: 0x0, symName: __ZNSt3__16vectorINS_4pairImPKcEENS_9allocatorIS4_EEED1B8ue170006Ev, symObjAddr: 0x11EA8, symBinAddr: 0x10002710C, symSize: 0x2C }
  - { offsetInCU: 0x3C54A, offset: 0x67122, size: 0x8, addend: 0x0, symName: __ZNSt3__16vectorINS_4pairImPKcEENS_9allocatorIS4_EEED2B8ue170006Ev, symObjAddr: 0x11ED4, symBinAddr: 0x100027138, symSize: 0x44 }
  - { offsetInCU: 0x3C574, offset: 0x6714C, size: 0x8, addend: 0x0, symName: __ZNSt3__16vectorINS_4pairImPKcEENS_9allocatorIS4_EEE16__destroy_vectorC1B8ue170006ERS7_, symObjAddr: 0x11F18, symBinAddr: 0x10002717C, symSize: 0x34 }
  - { offsetInCU: 0x3C5AD, offset: 0x67185, size: 0x8, addend: 0x0, symName: __ZNSt3__16vectorINS_4pairImPKcEENS_9allocatorIS4_EEE16__destroy_vectorclB8ue170006Ev, symObjAddr: 0x11F4C, symBinAddr: 0x1000271B0, symSize: 0x90 }
  - { offsetInCU: 0x3C5D3, offset: 0x671AB, size: 0x8, addend: 0x0, symName: __ZNSt3__16vectorINS_4pairImPKcEENS_9allocatorIS4_EEE16__destroy_vectorC2B8ue170006ERS7_, symObjAddr: 0x11FDC, symBinAddr: 0x100027240, symSize: 0x20 }
  - { offsetInCU: 0x3C60C, offset: 0x671E4, size: 0x8, addend: 0x0, symName: __ZNSt3__16vectorINS_4pairImPKcEENS_9allocatorIS4_EEE7__clearB8ue170006Ev, symObjAddr: 0x11FFC, symBinAddr: 0x100027260, symSize: 0x28 }
  - { offsetInCU: 0x3C632, offset: 0x6720A, size: 0x8, addend: 0x0, symName: __ZNKSt3__16vectorINS_4pairImPKcEENS_9allocatorIS4_EEE17__annotate_deleteB8ue170006Ev, symObjAddr: 0x12024, symBinAddr: 0x100027288, symSize: 0xB8 }
  - { offsetInCU: 0x3C658, offset: 0x67230, size: 0x8, addend: 0x0, symName: __ZNSt3__116allocator_traitsINS_9allocatorINS_4pairImPKcEEEEE10deallocateB8ue170006ERS6_PS5_m, symObjAddr: 0x120DC, symBinAddr: 0x100027340, symSize: 0x34 }
  - { offsetInCU: 0x3C69A, offset: 0x67272, size: 0x8, addend: 0x0, symName: __ZNKSt3__16vectorINS_4pairImPKcEENS_9allocatorIS4_EEE8capacityB8ue170006Ev, symObjAddr: 0x12110, symBinAddr: 0x100027374, symSize: 0x40 }
  - { offsetInCU: 0x3C6C0, offset: 0x67298, size: 0x8, addend: 0x0, symName: __ZNSt3__16vectorINS_4pairImPKcEENS_9allocatorIS4_EEE22__base_destruct_at_endB8ue170006EPS4_, symObjAddr: 0x12150, symBinAddr: 0x1000273B4, symSize: 0x8C }
  - { offsetInCU: 0x3C704, offset: 0x672DC, size: 0x8, addend: 0x0, symName: __ZNSt3__116allocator_traitsINS_9allocatorINS_4pairImPKcEEEEE7destroyB8ue170006IS5_vvEEvRS6_PT_, symObjAddr: 0x121DC, symBinAddr: 0x100027440, symSize: 0x28 }
  - { offsetInCU: 0x3C73F, offset: 0x67317, size: 0x8, addend: 0x0, symName: __ZNKSt3__16vectorINS_4pairImPKcEENS_9allocatorIS4_EEE31__annotate_contiguous_containerB8ue170006EPKvS9_S9_S9_, symObjAddr: 0x1224C, symBinAddr: 0x1000274B0, symSize: 0x20 }
  - { offsetInCU: 0x3C795, offset: 0x6736D, size: 0x8, addend: 0x0, symName: __ZNKSt3__16vectorINS_4pairImPKcEENS_9allocatorIS4_EEE4dataB8ue170006Ev, symObjAddr: 0x1226C, symBinAddr: 0x1000274D0, symSize: 0x28 }
  - { offsetInCU: 0x3C7BB, offset: 0x67393, size: 0x8, addend: 0x0, symName: __ZNKSt3__16vectorINS_4pairImPKcEENS_9allocatorIS4_EEE4sizeB8ue170006Ev, symObjAddr: 0x12294, symBinAddr: 0x1000274F8, symSize: 0x28 }
  - { offsetInCU: 0x3C7E1, offset: 0x673B9, size: 0x8, addend: 0x0, symName: __ZNSt3__19allocatorINS_4pairImPKcEEE10deallocateB8ue170006EPS4_m, symObjAddr: 0x122BC, symBinAddr: 0x100027520, symSize: 0x40 }
  - { offsetInCU: 0x3C823, offset: 0x673FB, size: 0x8, addend: 0x0, symName: __ZNKSt3__16vectorINS_4pairImPKcEENS_9allocatorIS4_EEE9__end_capB8ue170006Ev, symObjAddr: 0x122FC, symBinAddr: 0x100027560, symSize: 0x28 }
  - { offsetInCU: 0x3C849, offset: 0x67421, size: 0x8, addend: 0x0, symName: __ZNKSt3__117__compressed_pairIPNS_4pairImPKcEENS_9allocatorIS4_EEE5firstB8ue170006Ev, symObjAddr: 0x12324, symBinAddr: 0x100027588, symSize: 0x24 }
  - { offsetInCU: 0x3C86F, offset: 0x67447, size: 0x8, addend: 0x0, symName: __ZNKSt3__122__compressed_pair_elemIPNS_4pairImPKcEELi0ELb0EE5__getB8ue170006Ev, symObjAddr: 0x12348, symBinAddr: 0x1000275AC, symSize: 0x14 }
  - { offsetInCU: 0x3C895, offset: 0x6746D, size: 0x8, addend: 0x0, symName: __ZNSt3__16vectorINS_9sub_matchIPKcEENS_9allocatorIS4_EEE8__appendEmRKS4_, symObjAddr: 0x1235C, symBinAddr: 0x1000275C0, symSize: 0x114 }
  - { offsetInCU: 0x3C8FF, offset: 0x674D7, size: 0x8, addend: 0x0, symName: __ZNSt3__114__split_bufferINS_9sub_matchIPKcEERNS_9allocatorIS4_EEEC1EmmS7_, symObjAddr: 0x12470, symBinAddr: 0x1000276D4, symSize: 0x44 }
  - { offsetInCU: 0x3C955, offset: 0x6752D, size: 0x8, addend: 0x0, symName: __ZNSt3__114__split_bufferINS_9sub_matchIPKcEERNS_9allocatorIS4_EEE18__construct_at_endEmRKS4_, symObjAddr: 0x124B4, symBinAddr: 0x100027718, symSize: 0xBC }
  - { offsetInCU: 0x3C9A8, offset: 0x67580, size: 0x8, addend: 0x0, symName: __ZNSt3__114__split_bufferINS_9sub_matchIPKcEERNS_9allocatorIS4_EEED1Ev, symObjAddr: 0x12680, symBinAddr: 0x1000278E4, symSize: 0x2C }
  - { offsetInCU: 0x3C9D4, offset: 0x675AC, size: 0x8, addend: 0x0, symName: __ZNSt3__114__split_bufferINS_9sub_matchIPKcEERNS_9allocatorIS4_EEEC2EmmS7_, symObjAddr: 0x126AC, symBinAddr: 0x100027910, symSize: 0xE0 }
  - { offsetInCU: 0x3CA47, offset: 0x6761F, size: 0x8, addend: 0x0, symName: __ZNSt3__117__compressed_pairIPNS_9sub_matchIPKcEERNS_9allocatorIS4_EEEC1B8ue170006IDnS8_EEOT_OT0_, symObjAddr: 0x1278C, symBinAddr: 0x1000279F0, symSize: 0x3C }
  - { offsetInCU: 0x3CA9F, offset: 0x67677, size: 0x8, addend: 0x0, symName: __ZNSt3__114__split_bufferINS_9sub_matchIPKcEERNS_9allocatorIS4_EEE7__allocB8ue170006Ev, symObjAddr: 0x127C8, symBinAddr: 0x100027A2C, symSize: 0x28 }
  - { offsetInCU: 0x3CAC5, offset: 0x6769D, size: 0x8, addend: 0x0, symName: __ZNSt3__114__split_bufferINS_9sub_matchIPKcEERNS_9allocatorIS4_EEE9__end_capB8ue170006Ev, symObjAddr: 0x127F0, symBinAddr: 0x100027A54, symSize: 0x28 }
  - { offsetInCU: 0x3CAEB, offset: 0x676C3, size: 0x8, addend: 0x0, symName: __ZNSt3__117__compressed_pairIPNS_9sub_matchIPKcEERNS_9allocatorIS4_EEEC2B8ue170006IDnS8_EEOT_OT0_, symObjAddr: 0x12818, symBinAddr: 0x100027A7C, symSize: 0x48 }
  - { offsetInCU: 0x3CB43, offset: 0x6771B, size: 0x8, addend: 0x0, symName: __ZNSt3__122__compressed_pair_elemIRNS_9allocatorINS_9sub_matchIPKcEEEELi1ELb0EEC2B8ue170006IS7_vEEOT_, symObjAddr: 0x12860, symBinAddr: 0x100027AC4, symSize: 0x20 }
  - { offsetInCU: 0x3CB85, offset: 0x6775D, size: 0x8, addend: 0x0, symName: __ZNSt3__117__compressed_pairIPNS_9sub_matchIPKcEERNS_9allocatorIS4_EEE6secondB8ue170006Ev, symObjAddr: 0x12880, symBinAddr: 0x100027AE4, symSize: 0x28 }
  - { offsetInCU: 0x3CBAB, offset: 0x67783, size: 0x8, addend: 0x0, symName: __ZNSt3__122__compressed_pair_elemIRNS_9allocatorINS_9sub_matchIPKcEEEELi1ELb0EE5__getB8ue170006Ev, symObjAddr: 0x128A8, symBinAddr: 0x100027B0C, symSize: 0x18 }
  - { offsetInCU: 0x3CBD1, offset: 0x677A9, size: 0x8, addend: 0x0, symName: __ZNSt3__117__compressed_pairIPNS_9sub_matchIPKcEERNS_9allocatorIS4_EEE5firstB8ue170006Ev, symObjAddr: 0x128C0, symBinAddr: 0x100027B24, symSize: 0x24 }
  - { offsetInCU: 0x3CC03, offset: 0x677DB, size: 0x8, addend: 0x0, symName: __ZNSt3__114__split_bufferINS_9sub_matchIPKcEERNS_9allocatorIS4_EEE21_ConstructTransactionC1B8ue170006EPPS4_m, symObjAddr: 0x128E4, symBinAddr: 0x100027B48, symSize: 0x3C }
  - { offsetInCU: 0x3CC49, offset: 0x67821, size: 0x8, addend: 0x0, symName: __ZNSt3__114__split_bufferINS_9sub_matchIPKcEERNS_9allocatorIS4_EEE21_ConstructTransactionD1B8ue170006Ev, symObjAddr: 0x12920, symBinAddr: 0x100027B84, symSize: 0x2C }
  - { offsetInCU: 0x3CC73, offset: 0x6784B, size: 0x8, addend: 0x0, symName: __ZNSt3__114__split_bufferINS_9sub_matchIPKcEERNS_9allocatorIS4_EEE21_ConstructTransactionC2B8ue170006EPPS4_m, symObjAddr: 0x1294C, symBinAddr: 0x100027BB0, symSize: 0x4C }
  - { offsetInCU: 0x3CCB9, offset: 0x67891, size: 0x8, addend: 0x0, symName: __ZNSt3__114__split_bufferINS_9sub_matchIPKcEERNS_9allocatorIS4_EEE21_ConstructTransactionD2B8ue170006Ev, symObjAddr: 0x12998, symBinAddr: 0x100027BFC, symSize: 0x20 }
  - { offsetInCU: 0x3CCE3, offset: 0x678BB, size: 0x8, addend: 0x0, symName: __ZNSt3__116reverse_iteratorIPNS_9sub_matchIPKcEEEC1B8ue170006ES5_, symObjAddr: 0x12AE4, symBinAddr: 0x100027D48, symSize: 0x34 }
  - { offsetInCU: 0x3CD1B, offset: 0x678F3, size: 0x8, addend: 0x0, symName: __ZNKSt3__116reverse_iteratorIPNS_9sub_matchIPKcEEE4baseB8ue170006Ev, symObjAddr: 0x12B18, symBinAddr: 0x100027D7C, symSize: 0x18 }
  - { offsetInCU: 0x3CD41, offset: 0x67919, size: 0x8, addend: 0x0, symName: __ZNSt3__129_AllocatorDestroyRangeReverseINS_9allocatorINS_9sub_matchIPKcEEEENS_16reverse_iteratorIPS5_EEEC1B8ue170006ERS6_RS9_SC_, symObjAddr: 0x12BB8, symBinAddr: 0x100027E1C, symSize: 0x44 }
  - { offsetInCU: 0x3CD9E, offset: 0x67976, size: 0x8, addend: 0x0, symName: __ZNSt3__116allocator_traitsINS_9allocatorINS_9sub_matchIPKcEEEEE9constructB8ue170006IS5_JS5_EvvEEvRS6_PT_DpOT0_, symObjAddr: 0x12C44, symBinAddr: 0x100027EA8, symSize: 0x30 }
  - { offsetInCU: 0x3CDF3, offset: 0x679CB, size: 0x8, addend: 0x0, symName: __ZNKSt3__116reverse_iteratorIPNS_9sub_matchIPKcEEEdeB8ue170006Ev, symObjAddr: 0x12C98, symBinAddr: 0x100027EFC, symSize: 0x28 }
  - { offsetInCU: 0x3CE28, offset: 0x67A00, size: 0x8, addend: 0x0, symName: __ZNSt3__116reverse_iteratorIPNS_9sub_matchIPKcEEEppB8ue170006Ev, symObjAddr: 0x12CC0, symBinAddr: 0x100027F24, symSize: 0x20 }
  - { offsetInCU: 0x3CE4E, offset: 0x67A26, size: 0x8, addend: 0x0, symName: __ZNSt3__128__exception_guard_exceptionsINS_29_AllocatorDestroyRangeReverseINS_9allocatorINS_9sub_matchIPKcEEEENS_16reverse_iteratorIPS6_EEEEE10__completeB8ue170006Ev, symObjAddr: 0x12CE0, symBinAddr: 0x100027F44, symSize: 0x1C }
  - { offsetInCU: 0x3CE74, offset: 0x67A4C, size: 0x8, addend: 0x0, symName: __ZNSt3__128__exception_guard_exceptionsINS_29_AllocatorDestroyRangeReverseINS_9allocatorINS_9sub_matchIPKcEEEENS_16reverse_iteratorIPS6_EEEEED1B8ue170006Ev, symObjAddr: 0x12CFC, symBinAddr: 0x100027F60, symSize: 0x2C }
  - { offsetInCU: 0x3CE9E, offset: 0x67A76, size: 0x8, addend: 0x0, symName: __ZNSt3__128__exception_guard_exceptionsINS_29_AllocatorDestroyRangeReverseINS_9allocatorINS_9sub_matchIPKcEEEENS_16reverse_iteratorIPS6_EEEEEC1B8ue170006ESB_, symObjAddr: 0x12D28, symBinAddr: 0x100027F8C, symSize: 0x34 }
  - { offsetInCU: 0x3CED7, offset: 0x67AAF, size: 0x8, addend: 0x0, symName: __ZNSt3__128__exception_guard_exceptionsINS_29_AllocatorDestroyRangeReverseINS_9allocatorINS_9sub_matchIPKcEEEENS_16reverse_iteratorIPS6_EEEEEC2B8ue170006ESB_, symObjAddr: 0x12D5C, symBinAddr: 0x100027FC0, symSize: 0x30 }
  - { offsetInCU: 0x3CF10, offset: 0x67AE8, size: 0x8, addend: 0x0, symName: __ZNSt3__129_AllocatorDestroyRangeReverseINS_9allocatorINS_9sub_matchIPKcEEEENS_16reverse_iteratorIPS5_EEEC2B8ue170006ERS6_RS9_SC_, symObjAddr: 0x12D8C, symBinAddr: 0x100027FF0, symSize: 0x38 }
  - { offsetInCU: 0x3CF6D, offset: 0x67B45, size: 0x8, addend: 0x0, symName: __ZNSt3__119__to_address_helperINS_16reverse_iteratorIPNS_9sub_matchIPKcEEEEvE6__callB8ue170006ERKS7_, symObjAddr: 0x12DF8, symBinAddr: 0x10002805C, symSize: 0x38 }
  - { offsetInCU: 0x3CF90, offset: 0x67B68, size: 0x8, addend: 0x0, symName: __ZNKSt3__116reverse_iteratorIPNS_9sub_matchIPKcEEEptB8ue170006Ev, symObjAddr: 0x12E30, symBinAddr: 0x100028094, symSize: 0x2C }
  - { offsetInCU: 0x3CFB6, offset: 0x67B8E, size: 0x8, addend: 0x0, symName: __ZNSt3__128__exception_guard_exceptionsINS_29_AllocatorDestroyRangeReverseINS_9allocatorINS_9sub_matchIPKcEEEENS_16reverse_iteratorIPS6_EEEEED2B8ue170006Ev, symObjAddr: 0x12F00, symBinAddr: 0x100028164, symSize: 0x50 }
  - { offsetInCU: 0x3CFE0, offset: 0x67BB8, size: 0x8, addend: 0x0, symName: __ZNKSt3__129_AllocatorDestroyRangeReverseINS_9allocatorINS_9sub_matchIPKcEEEENS_16reverse_iteratorIPS5_EEEclB8ue170006Ev, symObjAddr: 0x12F50, symBinAddr: 0x1000281B4, symSize: 0xB4 }
  - { offsetInCU: 0x3D007, offset: 0x67BDF, size: 0x8, addend: 0x0, symName: __ZNSt3__116reverse_iteratorINS0_IPNS_9sub_matchIPKcEEEEEC1B8ue170006ES6_, symObjAddr: 0x13074, symBinAddr: 0x1000282D8, symSize: 0x3C }
  - { offsetInCU: 0x3D03F, offset: 0x67C17, size: 0x8, addend: 0x0, symName: __ZNSt3__116reverse_iteratorINS0_IPNS_9sub_matchIPKcEEEEEppB8ue170006Ev, symObjAddr: 0x13134, symBinAddr: 0x100028398, symSize: 0x30 }
  - { offsetInCU: 0x3D065, offset: 0x67C3D, size: 0x8, addend: 0x0, symName: __ZNKSt3__116reverse_iteratorINS0_IPNS_9sub_matchIPKcEEEEE4baseB8ue170006Ev, symObjAddr: 0x13164, symBinAddr: 0x1000283C8, symSize: 0x24 }
  - { offsetInCU: 0x3D091, offset: 0x67C69, size: 0x8, addend: 0x0, symName: __ZNSt3__119__to_address_helperINS_16reverse_iteratorINS1_IPNS_9sub_matchIPKcEEEEEEvE6__callB8ue170006ERKS8_, symObjAddr: 0x13188, symBinAddr: 0x1000283EC, symSize: 0x38 }
  - { offsetInCU: 0x3D0B4, offset: 0x67C8C, size: 0x8, addend: 0x0, symName: __ZNKSt3__116reverse_iteratorINS0_IPNS_9sub_matchIPKcEEEEEptB8ue170006Ev, symObjAddr: 0x131C0, symBinAddr: 0x100028424, symSize: 0x4C }
  - { offsetInCU: 0x3D0DA, offset: 0x67CB2, size: 0x8, addend: 0x0, symName: __ZNSt3__116reverse_iteratorIPNS_9sub_matchIPKcEEEpLB8ue170006El, symObjAddr: 0x132BC, symBinAddr: 0x100028520, symSize: 0x30 }
  - { offsetInCU: 0x3D10E, offset: 0x67CE6, size: 0x8, addend: 0x0, symName: __ZNSt3__116reverse_iteratorIPNS_9sub_matchIPKcEEEmmB8ue170006Ev, symObjAddr: 0x132EC, symBinAddr: 0x100028550, symSize: 0x20 }
  - { offsetInCU: 0x3D134, offset: 0x67D0C, size: 0x8, addend: 0x0, symName: __ZNSt3__116reverse_iteratorINS0_IPNS_9sub_matchIPKcEEEEEC2B8ue170006ES6_, symObjAddr: 0x1330C, symBinAddr: 0x100028570, symSize: 0x2C }
  - { offsetInCU: 0x3D16C, offset: 0x67D44, size: 0x8, addend: 0x0, symName: __ZNSt3__116reverse_iteratorIPNS_9sub_matchIPKcEEEC2B8ue170006ES5_, symObjAddr: 0x13338, symBinAddr: 0x10002859C, symSize: 0x28 }
  - { offsetInCU: 0x3D1A4, offset: 0x67D7C, size: 0x8, addend: 0x0, symName: __ZNSt3__114__split_bufferINS_9sub_matchIPKcEERNS_9allocatorIS4_EEED2Ev, symObjAddr: 0x13360, symBinAddr: 0x1000285C4, symSize: 0x8C }
  - { offsetInCU: 0x3D1D0, offset: 0x67DA8, size: 0x8, addend: 0x0, symName: __ZNSt3__114__split_bufferINS_9sub_matchIPKcEERNS_9allocatorIS4_EEE5clearB8ue170006Ev, symObjAddr: 0x133EC, symBinAddr: 0x100028650, symSize: 0x28 }
  - { offsetInCU: 0x3D1F6, offset: 0x67DCE, size: 0x8, addend: 0x0, symName: __ZNKSt3__114__split_bufferINS_9sub_matchIPKcEERNS_9allocatorIS4_EEE8capacityB8ue170006Ev, symObjAddr: 0x13414, symBinAddr: 0x100028678, symSize: 0x40 }
  - { offsetInCU: 0x3D21C, offset: 0x67DF4, size: 0x8, addend: 0x0, symName: __ZNSt3__114__split_bufferINS_9sub_matchIPKcEERNS_9allocatorIS4_EEE17__destruct_at_endB8ue170006EPS4_, symObjAddr: 0x13454, symBinAddr: 0x1000286B8, symSize: 0x2C }
  - { offsetInCU: 0x3D250, offset: 0x67E28, size: 0x8, addend: 0x0, symName: __ZNSt3__114__split_bufferINS_9sub_matchIPKcEERNS_9allocatorIS4_EEE17__destruct_at_endB8ue170006EPS4_NS_17integral_constantIbLb0EEE, symObjAddr: 0x13480, symBinAddr: 0x1000286E4, symSize: 0x80 }
  - { offsetInCU: 0x3D291, offset: 0x67E69, size: 0x8, addend: 0x0, symName: __ZNKSt3__114__split_bufferINS_9sub_matchIPKcEERNS_9allocatorIS4_EEE9__end_capB8ue170006Ev, symObjAddr: 0x13500, symBinAddr: 0x100028764, symSize: 0x28 }
  - { offsetInCU: 0x3D2B7, offset: 0x67E8F, size: 0x8, addend: 0x0, symName: __ZNKSt3__117__compressed_pairIPNS_9sub_matchIPKcEERNS_9allocatorIS4_EEE5firstB8ue170006Ev, symObjAddr: 0x13528, symBinAddr: 0x10002878C, symSize: 0x24 }
  - { offsetInCU: 0x3D2DD, offset: 0x67EB5, size: 0x8, addend: 0x0, symName: __ZNSt3__16vectorINS_4pairImPKcEENS_9allocatorIS4_EEE8__appendEm, symObjAddr: 0x1354C, symBinAddr: 0x1000287B0, symSize: 0x108 }
  - { offsetInCU: 0x3D338, offset: 0x67F10, size: 0x8, addend: 0x0, symName: __ZNSt3__16vectorINS_4pairImPKcEENS_9allocatorIS4_EEE17__destruct_at_endB8ue170006EPS4_, symObjAddr: 0x13654, symBinAddr: 0x1000288B8, symSize: 0x4C }
  - { offsetInCU: 0x3D37C, offset: 0x67F54, size: 0x8, addend: 0x0, symName: __ZNSt3__16vectorINS_4pairImPKcEENS_9allocatorIS4_EEE18__construct_at_endEm, symObjAddr: 0x136A0, symBinAddr: 0x100028904, symSize: 0xC8 }
  - { offsetInCU: 0x3D3EE, offset: 0x67FC6, size: 0x8, addend: 0x0, symName: __ZNKSt3__16vectorINS_4pairImPKcEENS_9allocatorIS4_EEE11__recommendB8ue170006Em, symObjAddr: 0x13768, symBinAddr: 0x1000289CC, symSize: 0xB4 }
  - { offsetInCU: 0x3D443, offset: 0x6801B, size: 0x8, addend: 0x0, symName: __ZNSt3__114__split_bufferINS_4pairImPKcEERNS_9allocatorIS4_EEEC1EmmS7_, symObjAddr: 0x1381C, symBinAddr: 0x100028A80, symSize: 0x44 }
  - { offsetInCU: 0x3D499, offset: 0x68071, size: 0x8, addend: 0x0, symName: __ZNSt3__114__split_bufferINS_4pairImPKcEERNS_9allocatorIS4_EEE18__construct_at_endEm, symObjAddr: 0x13860, symBinAddr: 0x100028AC4, symSize: 0xB4 }
  - { offsetInCU: 0x3D4DE, offset: 0x680B6, size: 0x8, addend: 0x0, symName: __ZNSt3__114__split_bufferINS_4pairImPKcEERNS_9allocatorIS4_EEED1Ev, symObjAddr: 0x13A24, symBinAddr: 0x100028C88, symSize: 0x2C }
  - { offsetInCU: 0x3D526, offset: 0x680FE, size: 0x8, addend: 0x0, symName: __ZNSt3__16vectorINS_4pairImPKcEENS_9allocatorIS4_EEE21_ConstructTransactionC1B8ue170006ERS7_m, symObjAddr: 0x13A50, symBinAddr: 0x100028CB4, symSize: 0x3C }
  - { offsetInCU: 0x3D56E, offset: 0x68146, size: 0x8, addend: 0x0, symName: __ZNSt3__116allocator_traitsINS_9allocatorINS_4pairImPKcEEEEE9constructB8ue170006IS5_JEvvEEvRS6_PT_DpOT0_, symObjAddr: 0x13A8C, symBinAddr: 0x100028CF0, symSize: 0x28 }
  - { offsetInCU: 0x3D5AE, offset: 0x68186, size: 0x8, addend: 0x0, symName: __ZNSt3__16vectorINS_4pairImPKcEENS_9allocatorIS4_EEE21_ConstructTransactionD1B8ue170006Ev, symObjAddr: 0x13AB4, symBinAddr: 0x100028D18, symSize: 0x2C }
  - { offsetInCU: 0x3D5D8, offset: 0x681B0, size: 0x8, addend: 0x0, symName: __ZNSt3__16vectorINS_4pairImPKcEENS_9allocatorIS4_EEE21_ConstructTransactionC2B8ue170006ERS7_m, symObjAddr: 0x13AE0, symBinAddr: 0x100028D44, symSize: 0x44 }
  - { offsetInCU: 0x3D620, offset: 0x681F8, size: 0x8, addend: 0x0, symName: __ZNSt3__14pairImPKcEC1B8ue170006ILb1ELPv0EEEv, symObjAddr: 0x13B58, symBinAddr: 0x100028DBC, symSize: 0x2C }
  - { offsetInCU: 0x3D65A, offset: 0x68232, size: 0x8, addend: 0x0, symName: __ZNSt3__14pairImPKcEC2B8ue170006ILb1ELPv0EEEv, symObjAddr: 0x13B84, symBinAddr: 0x100028DE8, symSize: 0x1C }
  - { offsetInCU: 0x3D694, offset: 0x6826C, size: 0x8, addend: 0x0, symName: __ZNSt3__16vectorINS_4pairImPKcEENS_9allocatorIS4_EEE21_ConstructTransactionD2B8ue170006Ev, symObjAddr: 0x13BA0, symBinAddr: 0x100028E04, symSize: 0x20 }
  - { offsetInCU: 0x3D6BE, offset: 0x68296, size: 0x8, addend: 0x0, symName: __ZNKSt3__16vectorINS_4pairImPKcEENS_9allocatorIS4_EEE8max_sizeEv, symObjAddr: 0x13BC0, symBinAddr: 0x100028E24, symSize: 0x60 }
  - { offsetInCU: 0x3D6E6, offset: 0x682BE, size: 0x8, addend: 0x0, symName: __ZNKSt3__16vectorINS_4pairImPKcEENS_9allocatorIS4_EEE20__throw_length_errorB8ue170006Ev, symObjAddr: 0x13C20, symBinAddr: 0x100028E84, symSize: 0x1C }
  - { offsetInCU: 0x3D717, offset: 0x682EF, size: 0x8, addend: 0x0, symName: __ZNSt3__116allocator_traitsINS_9allocatorINS_4pairImPKcEEEEE8max_sizeB8ue170006IS6_vvEEmRKS6_, symObjAddr: 0x13C3C, symBinAddr: 0x100028EA0, symSize: 0x28 }
  - { offsetInCU: 0x3D743, offset: 0x6831B, size: 0x8, addend: 0x0, symName: __ZNKSt3__16vectorINS_4pairImPKcEENS_9allocatorIS4_EEE7__allocB8ue170006Ev, symObjAddr: 0x13C64, symBinAddr: 0x100028EC8, symSize: 0x28 }
  - { offsetInCU: 0x3D769, offset: 0x68341, size: 0x8, addend: 0x0, symName: __ZNKSt3__117__compressed_pairIPNS_4pairImPKcEENS_9allocatorIS4_EEE6secondB8ue170006Ev, symObjAddr: 0x13C8C, symBinAddr: 0x100028EF0, symSize: 0x24 }
  - { offsetInCU: 0x3D78F, offset: 0x68367, size: 0x8, addend: 0x0, symName: __ZNKSt3__122__compressed_pair_elemINS_9allocatorINS_4pairImPKcEEEELi1ELb1EE5__getB8ue170006Ev, symObjAddr: 0x13CB0, symBinAddr: 0x100028F14, symSize: 0x14 }
  - { offsetInCU: 0x3D7B5, offset: 0x6838D, size: 0x8, addend: 0x0, symName: __ZNSt3__114__split_bufferINS_4pairImPKcEERNS_9allocatorIS4_EEEC2EmmS7_, symObjAddr: 0x13CC4, symBinAddr: 0x100028F28, symSize: 0xD4 }
  - { offsetInCU: 0x3D828, offset: 0x68400, size: 0x8, addend: 0x0, symName: __ZNSt3__117__compressed_pairIPNS_4pairImPKcEERNS_9allocatorIS4_EEEC1B8ue170006IDnS8_EEOT_OT0_, symObjAddr: 0x13D98, symBinAddr: 0x100028FFC, symSize: 0x3C }
  - { offsetInCU: 0x3D880, offset: 0x68458, size: 0x8, addend: 0x0, symName: __ZNSt3__114__split_bufferINS_4pairImPKcEERNS_9allocatorIS4_EEE7__allocB8ue170006Ev, symObjAddr: 0x13E14, symBinAddr: 0x100029078, symSize: 0x28 }
  - { offsetInCU: 0x3D8A6, offset: 0x6847E, size: 0x8, addend: 0x0, symName: __ZNSt3__114__split_bufferINS_4pairImPKcEERNS_9allocatorIS4_EEE9__end_capB8ue170006Ev, symObjAddr: 0x13E3C, symBinAddr: 0x1000290A0, symSize: 0x28 }
  - { offsetInCU: 0x3D8CC, offset: 0x684A4, size: 0x8, addend: 0x0, symName: __ZNSt3__117__compressed_pairIPNS_4pairImPKcEERNS_9allocatorIS4_EEEC2B8ue170006IDnS8_EEOT_OT0_, symObjAddr: 0x13E64, symBinAddr: 0x1000290C8, symSize: 0x48 }
  - { offsetInCU: 0x3D924, offset: 0x684FC, size: 0x8, addend: 0x0, symName: __ZNSt3__122__compressed_pair_elemIRNS_9allocatorINS_4pairImPKcEEEELi1ELb0EEC2B8ue170006IS7_vEEOT_, symObjAddr: 0x13EAC, symBinAddr: 0x100029110, symSize: 0x20 }
  - { offsetInCU: 0x3D966, offset: 0x6853E, size: 0x8, addend: 0x0, symName: __ZNSt3__19allocatorINS_4pairImPKcEEE8allocateB8ue170006Em, symObjAddr: 0x13ECC, symBinAddr: 0x100029130, symSize: 0x58 }
  - { offsetInCU: 0x3D99A, offset: 0x68572, size: 0x8, addend: 0x0, symName: __ZNSt3__117__compressed_pairIPNS_4pairImPKcEERNS_9allocatorIS4_EEE6secondB8ue170006Ev, symObjAddr: 0x13F24, symBinAddr: 0x100029188, symSize: 0x28 }
  - { offsetInCU: 0x3D9C0, offset: 0x68598, size: 0x8, addend: 0x0, symName: __ZNSt3__122__compressed_pair_elemIRNS_9allocatorINS_4pairImPKcEEEELi1ELb0EE5__getB8ue170006Ev, symObjAddr: 0x13F4C, symBinAddr: 0x1000291B0, symSize: 0x18 }
  - { offsetInCU: 0x3D9E6, offset: 0x685BE, size: 0x8, addend: 0x0, symName: __ZNSt3__117__compressed_pairIPNS_4pairImPKcEERNS_9allocatorIS4_EEE5firstB8ue170006Ev, symObjAddr: 0x13F64, symBinAddr: 0x1000291C8, symSize: 0x24 }
  - { offsetInCU: 0x3DA18, offset: 0x685F0, size: 0x8, addend: 0x0, symName: __ZNSt3__114__split_bufferINS_4pairImPKcEERNS_9allocatorIS4_EEE21_ConstructTransactionC1B8ue170006EPPS4_m, symObjAddr: 0x13F88, symBinAddr: 0x1000291EC, symSize: 0x3C }
  - { offsetInCU: 0x3DA5E, offset: 0x68636, size: 0x8, addend: 0x0, symName: __ZNSt3__114__split_bufferINS_4pairImPKcEERNS_9allocatorIS4_EEE21_ConstructTransactionD1B8ue170006Ev, symObjAddr: 0x13FC4, symBinAddr: 0x100029228, symSize: 0x2C }
  - { offsetInCU: 0x3DA88, offset: 0x68660, size: 0x8, addend: 0x0, symName: __ZNSt3__114__split_bufferINS_4pairImPKcEERNS_9allocatorIS4_EEE21_ConstructTransactionC2B8ue170006EPPS4_m, symObjAddr: 0x13FF0, symBinAddr: 0x100029254, symSize: 0x44 }
  - { offsetInCU: 0x3DACE, offset: 0x686A6, size: 0x8, addend: 0x0, symName: __ZNSt3__114__split_bufferINS_4pairImPKcEERNS_9allocatorIS4_EEE21_ConstructTransactionD2B8ue170006Ev, symObjAddr: 0x14034, symBinAddr: 0x100029298, symSize: 0x20 }
  - { offsetInCU: 0x3DAF8, offset: 0x686D0, size: 0x8, addend: 0x0, symName: __ZNSt3__116reverse_iteratorIPNS_4pairImPKcEEEC1B8ue170006ES5_, symObjAddr: 0x14180, symBinAddr: 0x1000293E4, symSize: 0x34 }
  - { offsetInCU: 0x3DB30, offset: 0x68708, size: 0x8, addend: 0x0, symName: __ZNKSt3__116reverse_iteratorIPNS_4pairImPKcEEE4baseB8ue170006Ev, symObjAddr: 0x141B4, symBinAddr: 0x100029418, symSize: 0x18 }
  - { offsetInCU: 0x3DB56, offset: 0x6872E, size: 0x8, addend: 0x0, symName: __ZNKSt3__16vectorINS_4pairImPKcEENS_9allocatorIS4_EEE14__annotate_newB8ue170006Em, symObjAddr: 0x14208, symBinAddr: 0x10002946C, symSize: 0xAC }
  - { offsetInCU: 0x3DB8B, offset: 0x68763, size: 0x8, addend: 0x0, symName: __ZNSt3__129_AllocatorDestroyRangeReverseINS_9allocatorINS_4pairImPKcEEEENS_16reverse_iteratorIPS5_EEEC1B8ue170006ERS6_RS9_SC_, symObjAddr: 0x14300, symBinAddr: 0x100029564, symSize: 0x44 }
  - { offsetInCU: 0x3DBE2, offset: 0x687BA, size: 0x8, addend: 0x0, symName: __ZNSt3__116allocator_traitsINS_9allocatorINS_4pairImPKcEEEEE9constructB8ue170006IS5_JS5_EvvEEvRS6_PT_DpOT0_, symObjAddr: 0x1438C, symBinAddr: 0x1000295F0, symSize: 0x30 }
  - { offsetInCU: 0x3DC37, offset: 0x6880F, size: 0x8, addend: 0x0, symName: __ZNKSt3__116reverse_iteratorIPNS_4pairImPKcEEEdeB8ue170006Ev, symObjAddr: 0x143E0, symBinAddr: 0x100029644, symSize: 0x28 }
  - { offsetInCU: 0x3DC6C, offset: 0x68844, size: 0x8, addend: 0x0, symName: __ZNSt3__116reverse_iteratorIPNS_4pairImPKcEEEppB8ue170006Ev, symObjAddr: 0x14408, symBinAddr: 0x10002966C, symSize: 0x20 }
  - { offsetInCU: 0x3DC92, offset: 0x6886A, size: 0x8, addend: 0x0, symName: __ZNSt3__128__exception_guard_exceptionsINS_29_AllocatorDestroyRangeReverseINS_9allocatorINS_4pairImPKcEEEENS_16reverse_iteratorIPS6_EEEEE10__completeB8ue170006Ev, symObjAddr: 0x14428, symBinAddr: 0x10002968C, symSize: 0x1C }
  - { offsetInCU: 0x3DCB8, offset: 0x68890, size: 0x8, addend: 0x0, symName: __ZNSt3__128__exception_guard_exceptionsINS_29_AllocatorDestroyRangeReverseINS_9allocatorINS_4pairImPKcEEEENS_16reverse_iteratorIPS6_EEEEED1B8ue170006Ev, symObjAddr: 0x14444, symBinAddr: 0x1000296A8, symSize: 0x2C }
  - { offsetInCU: 0x3DCE2, offset: 0x688BA, size: 0x8, addend: 0x0, symName: __ZNSt3__128__exception_guard_exceptionsINS_29_AllocatorDestroyRangeReverseINS_9allocatorINS_4pairImPKcEEEENS_16reverse_iteratorIPS6_EEEEEC1B8ue170006ESB_, symObjAddr: 0x14470, symBinAddr: 0x1000296D4, symSize: 0x34 }
  - { offsetInCU: 0x3DD1B, offset: 0x688F3, size: 0x8, addend: 0x0, symName: __ZNSt3__128__exception_guard_exceptionsINS_29_AllocatorDestroyRangeReverseINS_9allocatorINS_4pairImPKcEEEENS_16reverse_iteratorIPS6_EEEEEC2B8ue170006ESB_, symObjAddr: 0x144A4, symBinAddr: 0x100029708, symSize: 0x30 }
  - { offsetInCU: 0x3DD54, offset: 0x6892C, size: 0x8, addend: 0x0, symName: __ZNSt3__129_AllocatorDestroyRangeReverseINS_9allocatorINS_4pairImPKcEEEENS_16reverse_iteratorIPS5_EEEC2B8ue170006ERS6_RS9_SC_, symObjAddr: 0x144D4, symBinAddr: 0x100029738, symSize: 0x38 }
  - { offsetInCU: 0x3DDB1, offset: 0x68989, size: 0x8, addend: 0x0, symName: __ZNSt3__119__to_address_helperINS_16reverse_iteratorIPNS_4pairImPKcEEEEvE6__callB8ue170006ERKS7_, symObjAddr: 0x14538, symBinAddr: 0x10002979C, symSize: 0x38 }
  - { offsetInCU: 0x3DDD4, offset: 0x689AC, size: 0x8, addend: 0x0, symName: __ZNKSt3__116reverse_iteratorIPNS_4pairImPKcEEEptB8ue170006Ev, symObjAddr: 0x14570, symBinAddr: 0x1000297D4, symSize: 0x2C }
  - { offsetInCU: 0x3DDFA, offset: 0x689D2, size: 0x8, addend: 0x0, symName: __ZNSt3__128__exception_guard_exceptionsINS_29_AllocatorDestroyRangeReverseINS_9allocatorINS_4pairImPKcEEEENS_16reverse_iteratorIPS6_EEEEED2B8ue170006Ev, symObjAddr: 0x14638, symBinAddr: 0x10002989C, symSize: 0x50 }
  - { offsetInCU: 0x3DE24, offset: 0x689FC, size: 0x8, addend: 0x0, symName: __ZNKSt3__129_AllocatorDestroyRangeReverseINS_9allocatorINS_4pairImPKcEEEENS_16reverse_iteratorIPS5_EEEclB8ue170006Ev, symObjAddr: 0x14688, symBinAddr: 0x1000298EC, symSize: 0xB4 }
  - { offsetInCU: 0x3DE4B, offset: 0x68A23, size: 0x8, addend: 0x0, symName: __ZNSt3__116reverse_iteratorINS0_IPNS_4pairImPKcEEEEEC1B8ue170006ES6_, symObjAddr: 0x147AC, symBinAddr: 0x100029A10, symSize: 0x3C }
  - { offsetInCU: 0x3DE83, offset: 0x68A5B, size: 0x8, addend: 0x0, symName: __ZNSt3__116reverse_iteratorINS0_IPNS_4pairImPKcEEEEEppB8ue170006Ev, symObjAddr: 0x1486C, symBinAddr: 0x100029AD0, symSize: 0x30 }
  - { offsetInCU: 0x3DEA9, offset: 0x68A81, size: 0x8, addend: 0x0, symName: __ZNKSt3__116reverse_iteratorINS0_IPNS_4pairImPKcEEEEE4baseB8ue170006Ev, symObjAddr: 0x1489C, symBinAddr: 0x100029B00, symSize: 0x24 }
  - { offsetInCU: 0x3DED5, offset: 0x68AAD, size: 0x8, addend: 0x0, symName: __ZNSt3__119__to_address_helperINS_16reverse_iteratorINS1_IPNS_4pairImPKcEEEEEEvE6__callB8ue170006ERKS8_, symObjAddr: 0x148C0, symBinAddr: 0x100029B24, symSize: 0x38 }
  - { offsetInCU: 0x3DEF8, offset: 0x68AD0, size: 0x8, addend: 0x0, symName: __ZNKSt3__116reverse_iteratorINS0_IPNS_4pairImPKcEEEEEptB8ue170006Ev, symObjAddr: 0x148F8, symBinAddr: 0x100029B5C, symSize: 0x4C }
  - { offsetInCU: 0x3DF1E, offset: 0x68AF6, size: 0x8, addend: 0x0, symName: __ZNSt3__116reverse_iteratorIPNS_4pairImPKcEEEpLB8ue170006El, symObjAddr: 0x149F4, symBinAddr: 0x100029C58, symSize: 0x30 }
