---
triple:          'arm64-apple-darwin'
binary-path:     'bin/myrobot'
relocations:
  - { offsetInCU: 0x3F, offset: 0x3F, size: 0x8, addend: 0x0, symName: __ZL10DIRECTIONS, symObjAddr: 0x34440, symBinAddr: 0x100014000, symSize: 0x0 }
  - { offsetInCU: 0x8506, offset: 0x8506, size: 0x8, addend: 0x0, symName: __ZNSt3__112__to_addressB8ue170006IiEEPT_S2_, symObjAddr: 0xE38, symBinAddr: 0x1000014E4, symSize: 0x14 }
  - { offsetInCU: 0x8560, offset: 0x8560, size: 0x8, addend: 0x0, symName: __ZNSt3__112construct_atB8ue170006IiJRKiEPiEEPT_S5_DpOT0_, symObjAddr: 0xEBC, symBinAddr: 0x100001568, symSize: 0x2C }
  - { offsetInCU: 0x85D0, offset: 0x85D0, size: 0x8, addend: 0x0, symName: __ZNSt3__13maxB8ue170006ImEERKT_S3_S3_, symObjAddr: 0x1230, symBinAddr: 0x1000018DC, symSize: 0x2C }
  - { offsetInCU: 0x8613, offset: 0x8613, size: 0x8, addend: 0x0, symName: __ZNSt3__13minB8ue170006ImEERKT_S3_S3_, symObjAddr: 0x125C, symBinAddr: 0x100001908, symSize: 0x2C }
  - { offsetInCU: 0x8840, offset: 0x8840, size: 0x8, addend: 0x0, symName: __ZNSt3__13minB8ue170006ImNS_6__lessIvvEEEERKT_S5_S5_T0_, symObjAddr: 0x12EC, symBinAddr: 0x100001998, symSize: 0x54 }
  - { offsetInCU: 0x8ACB, offset: 0x8ACB, size: 0x8, addend: 0x0, symName: __ZNSt3__120__throw_length_errorB8ue170006EPKc, symObjAddr: 0x13D0, symBinAddr: 0x100001A7C, symSize: 0x64 }
  - { offsetInCU: 0x8AF5, offset: 0x8AF5, size: 0x8, addend: 0x0, symName: __ZNSt3__13maxB8ue170006ImNS_6__lessIvvEEEERKT_S5_S5_T0_, symObjAddr: 0x1514, symBinAddr: 0x100001BC0, symSize: 0x54 }
  - { offsetInCU: 0x8B4F, offset: 0x8B4F, size: 0x8, addend: 0x0, symName: __ZNSt3__119__allocate_at_leastB8ue170006INS_9allocatorIiEEEENS_19__allocation_resultINS_16allocator_traitsIT_E7pointerEEERS5_m, symObjAddr: 0x1678, symBinAddr: 0x100001D24, symSize: 0x40 }
  - { offsetInCU: 0x8B92, offset: 0x8B92, size: 0x8, addend: 0x0, symName: __ZNSt3__117__libcpp_allocateB8ue170006Emm, symObjAddr: 0x17FC, symBinAddr: 0x100001EA8, symSize: 0x60 }
  - { offsetInCU: 0x8BEC, offset: 0x8BEC, size: 0x8, addend: 0x0, symName: __ZNSt3__124__is_overaligned_for_newB8ue170006Em, symObjAddr: 0x185C, symBinAddr: 0x100001F08, symSize: 0x20 }
  - { offsetInCU: 0x8C1A, offset: 0x8C1A, size: 0x8, addend: 0x0, symName: __ZNSt3__121__libcpp_operator_newB8ue170006IJmSt11align_val_tEEEPvDpT_, symObjAddr: 0x187C, symBinAddr: 0x100001F28, symSize: 0x2C }
  - { offsetInCU: 0x8C67, offset: 0x8C67, size: 0x8, addend: 0x0, symName: __ZNSt3__121__libcpp_operator_newB8ue170006IJmEEEPvDpT_, symObjAddr: 0x18A8, symBinAddr: 0x100001F54, symSize: 0x24 }
  - { offsetInCU: 0x8CA0, offset: 0x8CA0, size: 0x8, addend: 0x0, symName: __ZNSt3__142__uninitialized_allocator_move_if_noexceptB8ue170006INS_9allocatorIiEENS_16reverse_iteratorIPiEES5_ivEET1_RT_T0_S9_S6_, symObjAddr: 0x19E8, symBinAddr: 0x100002094, symSize: 0x78 }
  - { offsetInCU: 0x8D1D, offset: 0x8D1D, size: 0x8, addend: 0x0, symName: __ZNSt3__14swapB8ue170006IPiEENS_9enable_ifIXaasr21is_move_constructibleIT_EE5valuesr18is_move_assignableIS3_EE5valueEvE4typeERS3_S6_, symObjAddr: 0x1AAC, symBinAddr: 0x100002158, symSize: 0x3C }
  - { offsetInCU: 0x8D6E, offset: 0x8D6E, size: 0x8, addend: 0x0, symName: __ZNSt3__14moveB8ue170006INS_16reverse_iteratorIPiEES3_EET0_T_S5_S4_, symObjAddr: 0x1BDC, symBinAddr: 0x100002288, symSize: 0x78 }
  - { offsetInCU: 0x8DC8, offset: 0x8DC8, size: 0x8, addend: 0x0, symName: __ZNSt3__16__moveB8ue170006INS_17_ClassicAlgPolicyENS_16reverse_iteratorIPiEES4_S4_EENS_4pairIT0_T2_EES6_T1_S7_, symObjAddr: 0x1C54, symBinAddr: 0x100002300, symSize: 0x64 }
  - { offsetInCU: 0x8E34, offset: 0x8E34, size: 0x8, addend: 0x0, symName: __ZNSt3__123__dispatch_copy_or_moveB8ue170006INS_17_ClassicAlgPolicyENS_11__move_loopIS1_EENS_14__move_trivialENS_16reverse_iteratorIPiEES7_S7_EENS_4pairIT2_T4_EES9_T3_SA_, symObjAddr: 0x1CB8, symBinAddr: 0x100002364, symSize: 0x64 }
  - { offsetInCU: 0x8EB2, offset: 0x8EB2, size: 0x8, addend: 0x0, symName: __ZNSt3__121__unwrap_and_dispatchB8ue170006INS_10__overloadINS_11__move_loopINS_17_ClassicAlgPolicyEEENS_14__move_trivialEEENS_16reverse_iteratorIPiEES9_S9_Li0EEENS_4pairIT0_T2_EESB_T1_SC_, symObjAddr: 0x1D1C, symBinAddr: 0x1000023C8, symSize: 0x12C }
  - { offsetInCU: 0x8F42, offset: 0x8F42, size: 0x8, addend: 0x0, symName: __ZNSt3__114__unwrap_rangeB8ue170006INS_16reverse_iteratorIPiEES3_EEDaT_T0_, symObjAddr: 0x1E48, symBinAddr: 0x1000024F4, symSize: 0x4C }
  - { offsetInCU: 0x90FC, offset: 0x90FC, size: 0x8, addend: 0x0, symName: __ZNSt3__113__unwrap_iterB8ue170006INS_16reverse_iteratorIPiEENS_18__unwrap_iter_implIS3_Lb0EEELi0EEEDTclsrT0_8__unwrapclsr3stdE7declvalIT_EEEES7_, symObjAddr: 0x1F34, symBinAddr: 0x1000025E0, symSize: 0x44 }
  - { offsetInCU: 0x9140, offset: 0x9140, size: 0x8, addend: 0x0, symName: __ZNSt3__19make_pairB8ue170006INS_16reverse_iteratorIPiEES3_EENS_4pairINS_18__unwrap_ref_decayIT_E4typeENS5_IT0_E4typeEEEOS6_OS9_, symObjAddr: 0x1F78, symBinAddr: 0x100002624, symSize: 0x38 }
  - { offsetInCU: 0x918F, offset: 0x918F, size: 0x8, addend: 0x0, symName: __ZNSt3__114__rewrap_rangeB8ue170006INS_16reverse_iteratorIPiEES3_S3_EET0_S4_T1_, symObjAddr: 0x1FB0, symBinAddr: 0x10000265C, symSize: 0x5C }
  - { offsetInCU: 0x91E4, offset: 0x91E4, size: 0x8, addend: 0x0, symName: __ZNSt3__113__rewrap_iterB8ue170006INS_16reverse_iteratorIPiEES3_NS_18__unwrap_iter_implIS3_Lb0EEEEET_S6_T0_, symObjAddr: 0x200C, symBinAddr: 0x1000026B8, symSize: 0x74 }
  - { offsetInCU: 0x9289, offset: 0x9289, size: 0x8, addend: 0x0, symName: __ZNSt3__1neB8ue170006IPiS1_EEbRKNS_16reverse_iteratorIT_EERKNS2_IT0_EE, symObjAddr: 0x2174, symBinAddr: 0x100002820, symSize: 0x48 }
  - { offsetInCU: 0x93BA, offset: 0x93BA, size: 0x8, addend: 0x0, symName: __ZNSt3__110destroy_atB8ue170006IiLi0EEEvPT_, symObjAddr: 0x2500, symBinAddr: 0x100002BAC, symSize: 0x24 }
  - { offsetInCU: 0x93F1, offset: 0x93F1, size: 0x8, addend: 0x0, symName: __ZNSt3__112__destroy_atB8ue170006IiLi0EEEvPT_, symObjAddr: 0x2524, symBinAddr: 0x100002BD0, symSize: 0x10 }
  - { offsetInCU: 0x9428, offset: 0x9428, size: 0x8, addend: 0x0, symName: __ZNSt3__119__libcpp_deallocateB8ue170006EPvmm, symObjAddr: 0x2574, symBinAddr: 0x100002C20, symSize: 0x60 }
  - { offsetInCU: 0x948D, offset: 0x948D, size: 0x8, addend: 0x0, symName: __ZNSt3__127__do_deallocate_handle_sizeB8ue170006IJSt11align_val_tEEEvPvmDpT_, symObjAddr: 0x25D4, symBinAddr: 0x100002C80, symSize: 0x30 }
  - { offsetInCU: 0x94E0, offset: 0x94E0, size: 0x8, addend: 0x0, symName: __ZNSt3__127__do_deallocate_handle_sizeB8ue170006IJEEEvPvmDpT_, symObjAddr: 0x2604, symBinAddr: 0x100002CB0, symSize: 0x28 }
  - { offsetInCU: 0x951E, offset: 0x951E, size: 0x8, addend: 0x0, symName: __ZNSt3__124__libcpp_operator_deleteB8ue170006IJPvSt11align_val_tEEEvDpT_, symObjAddr: 0x262C, symBinAddr: 0x100002CD8, symSize: 0x2C }
  - { offsetInCU: 0x9567, offset: 0x9567, size: 0x8, addend: 0x0, symName: __ZNSt3__124__libcpp_operator_deleteB8ue170006IJPvEEEvDpT_, symObjAddr: 0x2658, symBinAddr: 0x100002D04, symSize: 0x24 }
  - { offsetInCU: 0x959C, offset: 0x959C, size: 0x8, addend: 0x0, symName: __ZNSt3__112__to_addressB8ue170006I6CoordsEEPT_S3_, symObjAddr: 0x2B00, symBinAddr: 0x1000031AC, symSize: 0x14 }
  - { offsetInCU: 0x95F6, offset: 0x95F6, size: 0x8, addend: 0x0, symName: __ZNSt3__112construct_atB8ue170006I6CoordsJRKS1_EPS1_EEPT_S6_DpOT0_, symObjAddr: 0x2B84, symBinAddr: 0x100003230, symSize: 0x2C }
  - { offsetInCU: 0x9666, offset: 0x9666, size: 0x8, addend: 0x0, symName: __ZNSt3__119__allocate_at_leastB8ue170006INS_9allocatorI6CoordsEEEENS_19__allocation_resultINS_16allocator_traitsIT_E7pointerEEERS6_m, symObjAddr: 0x30F0, symBinAddr: 0x10000379C, symSize: 0x40 }
  - { offsetInCU: 0x96A9, offset: 0x96A9, size: 0x8, addend: 0x0, symName: __ZNSt3__142__uninitialized_allocator_move_if_noexceptB8ue170006INS_9allocatorI6CoordsEENS_16reverse_iteratorIPS2_EES6_S2_vEET1_RT_T0_SA_S7_, symObjAddr: 0x335C, symBinAddr: 0x100003A08, symSize: 0x78 }
  - { offsetInCU: 0x9726, offset: 0x9726, size: 0x8, addend: 0x0, symName: __ZNSt3__14swapB8ue170006IP6CoordsEENS_9enable_ifIXaasr21is_move_constructibleIT_EE5valuesr18is_move_assignableIS4_EE5valueEvE4typeERS4_S7_, symObjAddr: 0x3420, symBinAddr: 0x100003ACC, symSize: 0x3C }
  - { offsetInCU: 0x9777, offset: 0x9777, size: 0x8, addend: 0x0, symName: __ZNSt3__14moveB8ue170006INS_16reverse_iteratorIP6CoordsEES4_EET0_T_S6_S5_, symObjAddr: 0x3550, symBinAddr: 0x100003BFC, symSize: 0x78 }
  - { offsetInCU: 0x97D1, offset: 0x97D1, size: 0x8, addend: 0x0, symName: __ZNSt3__16__moveB8ue170006INS_17_ClassicAlgPolicyENS_16reverse_iteratorIP6CoordsEES5_S5_EENS_4pairIT0_T2_EES7_T1_S8_, symObjAddr: 0x35C8, symBinAddr: 0x100003C74, symSize: 0x64 }
  - { offsetInCU: 0x983D, offset: 0x983D, size: 0x8, addend: 0x0, symName: __ZNSt3__123__dispatch_copy_or_moveB8ue170006INS_17_ClassicAlgPolicyENS_11__move_loopIS1_EENS_14__move_trivialENS_16reverse_iteratorIP6CoordsEES8_S8_EENS_4pairIT2_T4_EESA_T3_SB_, symObjAddr: 0x362C, symBinAddr: 0x100003CD8, symSize: 0x64 }
  - { offsetInCU: 0x98BB, offset: 0x98BB, size: 0x8, addend: 0x0, symName: __ZNSt3__121__unwrap_and_dispatchB8ue170006INS_10__overloadINS_11__move_loopINS_17_ClassicAlgPolicyEEENS_14__move_trivialEEENS_16reverse_iteratorIP6CoordsEESA_SA_Li0EEENS_4pairIT0_T2_EESC_T1_SD_, symObjAddr: 0x3690, symBinAddr: 0x100003D3C, symSize: 0x12C }
  - { offsetInCU: 0x994B, offset: 0x994B, size: 0x8, addend: 0x0, symName: __ZNSt3__114__unwrap_rangeB8ue170006INS_16reverse_iteratorIP6CoordsEES4_EEDaT_T0_, symObjAddr: 0x37BC, symBinAddr: 0x100003E68, symSize: 0x4C }
  - { offsetInCU: 0x9A6B, offset: 0x9A6B, size: 0x8, addend: 0x0, symName: __ZNSt3__113__unwrap_iterB8ue170006INS_16reverse_iteratorIP6CoordsEENS_18__unwrap_iter_implIS4_Lb0EEELi0EEEDTclsrT0_8__unwrapclsr3stdE7declvalIT_EEEES8_, symObjAddr: 0x38A8, symBinAddr: 0x100003F54, symSize: 0x44 }
  - { offsetInCU: 0x9AAF, offset: 0x9AAF, size: 0x8, addend: 0x0, symName: __ZNSt3__19make_pairB8ue170006INS_16reverse_iteratorIP6CoordsEES4_EENS_4pairINS_18__unwrap_ref_decayIT_E4typeENS6_IT0_E4typeEEEOS7_OSA_, symObjAddr: 0x38EC, symBinAddr: 0x100003F98, symSize: 0x38 }
  - { offsetInCU: 0x9AFE, offset: 0x9AFE, size: 0x8, addend: 0x0, symName: __ZNSt3__114__rewrap_rangeB8ue170006INS_16reverse_iteratorIP6CoordsEES4_S4_EET0_S5_T1_, symObjAddr: 0x3924, symBinAddr: 0x100003FD0, symSize: 0x5C }
  - { offsetInCU: 0x9B53, offset: 0x9B53, size: 0x8, addend: 0x0, symName: __ZNSt3__113__rewrap_iterB8ue170006INS_16reverse_iteratorIP6CoordsEES4_NS_18__unwrap_iter_implIS4_Lb0EEEEET_S7_T0_, symObjAddr: 0x3980, symBinAddr: 0x10000402C, symSize: 0x74 }
  - { offsetInCU: 0x9BF8, offset: 0x9BF8, size: 0x8, addend: 0x0, symName: __ZNSt3__1neB8ue170006IP6CoordsS2_EEbRKNS_16reverse_iteratorIT_EERKNS3_IT0_EE, symObjAddr: 0x3AE8, symBinAddr: 0x100004194, symSize: 0x48 }
  - { offsetInCU: 0x9CB0, offset: 0x9CB0, size: 0x8, addend: 0x0, symName: __ZNSt3__110destroy_atB8ue170006I6CoordsLi0EEEvPT_, symObjAddr: 0x3E74, symBinAddr: 0x100004520, symSize: 0x24 }
  - { offsetInCU: 0x9CE7, offset: 0x9CE7, size: 0x8, addend: 0x0, symName: __ZNSt3__112__destroy_atB8ue170006I6CoordsLi0EEEvPT_, symObjAddr: 0x3E98, symBinAddr: 0x100004544, symSize: 0x10 }
  - { offsetInCU: 0xA004, offset: 0xA004, size: 0x8, addend: 0x0, symName: __ZSt28__throw_bad_array_new_lengthB8ue170006v, symObjAddr: 0x17C8, symBinAddr: 0x100001E74, symSize: 0x34 }
  - { offsetInCU: 0xA3C8, offset: 0xA3C8, size: 0x8, addend: 0x0, symName: __ZNSt3__16vectorIiNS_9allocatorIiEEE26__swap_out_circular_bufferERNS_14__split_bufferIiRS2_EE, symObjAddr: 0x1038, symBinAddr: 0x1000016E4, symSize: 0x110 }
  - { offsetInCU: 0xA580, offset: 0xA580, size: 0x8, addend: 0x0, symName: __ZNSt3__16vectorI6CoordsNS_9allocatorIS1_EEE26__swap_out_circular_bufferERNS_14__split_bufferIS1_RS3_EE, symObjAddr: 0x2D00, symBinAddr: 0x1000033AC, symSize: 0x110 }
  - { offsetInCU: 0xCF98, offset: 0xCF98, size: 0x8, addend: 0x0, symName: __ZN9AlgorithmC2EP5Robot, symObjAddr: 0x0, symBinAddr: 0x1000006AC, symSize: 0x54 }
  - { offsetInCU: 0xCFD1, offset: 0xCFD1, size: 0x8, addend: 0x0, symName: __ZNSt3__16vectorI6CoordsNS_9allocatorIS1_EEEC1B8ue170006Ev, symObjAddr: 0x54, symBinAddr: 0x100000700, symSize: 0x2C }
  - { offsetInCU: 0xCFFA, offset: 0xCFFA, size: 0x8, addend: 0x0, symName: __ZN9AlgorithmC1EP5Robot, symObjAddr: 0x80, symBinAddr: 0x10000072C, symSize: 0x34 }
  - { offsetInCU: 0xD033, offset: 0xD033, size: 0x8, addend: 0x0, symName: __ZN9Algorithm19moveToFreeDirectionEv, symObjAddr: 0xB4, symBinAddr: 0x100000760, symSize: 0x200 }
  - { offsetInCU: 0xD0AA, offset: 0xD0AA, size: 0x8, addend: 0x0, symName: __ZNSt3__16vectorIiNS_9allocatorIiEEEC1B8ue170006Ev, symObjAddr: 0x2B4, symBinAddr: 0x100000960, symSize: 0x2C }
  - { offsetInCU: 0xD0D2, offset: 0xD0D2, size: 0x8, addend: 0x0, symName: __ZNSt3__16vectorIiNS_9allocatorIiEEE9push_backB8ue170006ERKi, symObjAddr: 0x2E0, symBinAddr: 0x10000098C, symSize: 0x6C }
  - { offsetInCU: 0xD108, offset: 0xD108, size: 0x8, addend: 0x0, symName: __ZNKSt3__16vectorIiNS_9allocatorIiEEE5emptyB8ue170006Ev, symObjAddr: 0x34C, symBinAddr: 0x1000009F8, symSize: 0x28 }
  - { offsetInCU: 0xD12D, offset: 0xD12D, size: 0x8, addend: 0x0, symName: __ZNKSt3__16vectorIiNS_9allocatorIiEEE4sizeB8ue170006Ev, symObjAddr: 0x374, symBinAddr: 0x100000A20, symSize: 0x28 }
  - { offsetInCU: 0xD152, offset: 0xD152, size: 0x8, addend: 0x0, symName: __ZNSt3__16vectorIiNS_9allocatorIiEEEixB8ue170006Em, symObjAddr: 0x39C, symBinAddr: 0x100000A48, symSize: 0x24 }
  - { offsetInCU: 0xD188, offset: 0xD188, size: 0x8, addend: 0x0, symName: __ZNSt3__16vectorIiNS_9allocatorIiEEED1B8ue170006Ev, symObjAddr: 0x3C0, symBinAddr: 0x100000A6C, symSize: 0x2C }
  - { offsetInCU: 0xD1B1, offset: 0xD1B1, size: 0x8, addend: 0x0, symName: __ZN9Algorithm16decide_next_stepEv, symObjAddr: 0x3EC, symBinAddr: 0x100000A98, symSize: 0x468 }
  - { offsetInCU: 0xD25B, offset: 0xD25B, size: 0x8, addend: 0x0, symName: __ZNSt3__16vectorI6CoordsNS_9allocatorIS1_EEE9push_backB8ue170006ERKS1_, symObjAddr: 0x854, symBinAddr: 0x100000F00, symSize: 0x6C }
  - { offsetInCU: 0xD291, offset: 0xD291, size: 0x8, addend: 0x0, symName: __ZNKSt3__16vectorI6CoordsNS_9allocatorIS1_EEE4sizeB8ue170006Ev, symObjAddr: 0x8C0, symBinAddr: 0x100000F6C, symSize: 0x28 }
  - { offsetInCU: 0xD2B6, offset: 0xD2B6, size: 0x8, addend: 0x0, symName: __ZNSt3__16vectorI6CoordsNS_9allocatorIS1_EEE4backB8ue170006Ev, symObjAddr: 0x8E8, symBinAddr: 0x100000F94, symSize: 0x1C }
  - { offsetInCU: 0xD2DA, offset: 0xD2DA, size: 0x8, addend: 0x0, symName: __ZNSt3__16vectorI6CoordsNS_9allocatorIS1_EEE8pop_backEv, symObjAddr: 0x904, symBinAddr: 0x100000FB0, symSize: 0x2C }
  - { offsetInCU: 0xD301, offset: 0xD301, size: 0x8, addend: 0x0, symName: __ZNSt3__16vectorI6CoordsNS_9allocatorIS1_EEEC2B8ue170006Ev, symObjAddr: 0x930, symBinAddr: 0x100000FDC, symSize: 0x4C }
  - { offsetInCU: 0xD334, offset: 0xD334, size: 0x8, addend: 0x0, symName: __ZNSt3__117__compressed_pairIP6CoordsNS_9allocatorIS1_EEEC1B8ue170006IDnNS_18__default_init_tagEEEOT_OT0_, symObjAddr: 0x97C, symBinAddr: 0x100001028, symSize: 0x3C }
  - { offsetInCU: 0xD38B, offset: 0xD38B, size: 0x8, addend: 0x0, symName: __ZNSt3__117__compressed_pairIP6CoordsNS_9allocatorIS1_EEEC2B8ue170006IDnNS_18__default_init_tagEEEOT_OT0_, symObjAddr: 0x9C4, symBinAddr: 0x100001070, symSize: 0x40 }
  - { offsetInCU: 0xD3E2, offset: 0xD3E2, size: 0x8, addend: 0x0, symName: __ZNSt3__122__compressed_pair_elemIP6CoordsLi0ELb0EEC2B8ue170006IDnvEEOT_, symObjAddr: 0xA04, symBinAddr: 0x1000010B0, symSize: 0x1C }
  - { offsetInCU: 0xD423, offset: 0xD423, size: 0x8, addend: 0x0, symName: __ZNSt3__122__compressed_pair_elemINS_9allocatorI6CoordsEELi1ELb1EEC2B8ue170006ENS_18__default_init_tagE, symObjAddr: 0xA20, symBinAddr: 0x1000010CC, symSize: 0x2C }
  - { offsetInCU: 0xD457, offset: 0xD457, size: 0x8, addend: 0x0, symName: __ZNSt3__19allocatorI6CoordsEC2B8ue170006Ev, symObjAddr: 0xA4C, symBinAddr: 0x1000010F8, symSize: 0x2C }
  - { offsetInCU: 0xD480, offset: 0xD480, size: 0x8, addend: 0x0, symName: __ZNSt3__116__non_trivial_ifILb1ENS_9allocatorI6CoordsEEEC2B8ue170006Ev, symObjAddr: 0xA78, symBinAddr: 0x100001124, symSize: 0x14 }
  - { offsetInCU: 0xD4A9, offset: 0xD4A9, size: 0x8, addend: 0x0, symName: __ZNSt3__16vectorIiNS_9allocatorIiEEEC2B8ue170006Ev, symObjAddr: 0xA8C, symBinAddr: 0x100001138, symSize: 0x4C }
  - { offsetInCU: 0xD4D2, offset: 0xD4D2, size: 0x8, addend: 0x0, symName: __ZNSt3__117__compressed_pairIPiNS_9allocatorIiEEEC1B8ue170006IDnNS_18__default_init_tagEEEOT_OT0_, symObjAddr: 0xAD8, symBinAddr: 0x100001184, symSize: 0x3C }
  - { offsetInCU: 0xD529, offset: 0xD529, size: 0x8, addend: 0x0, symName: __ZNSt3__117__compressed_pairIPiNS_9allocatorIiEEEC2B8ue170006IDnNS_18__default_init_tagEEEOT_OT0_, symObjAddr: 0xB14, symBinAddr: 0x1000011C0, symSize: 0x40 }
  - { offsetInCU: 0xD580, offset: 0xD580, size: 0x8, addend: 0x0, symName: __ZNSt3__122__compressed_pair_elemIPiLi0ELb0EEC2B8ue170006IDnvEEOT_, symObjAddr: 0xB54, symBinAddr: 0x100001200, symSize: 0x1C }
  - { offsetInCU: 0xD5C1, offset: 0xD5C1, size: 0x8, addend: 0x0, symName: __ZNSt3__122__compressed_pair_elemINS_9allocatorIiEELi1ELb1EEC2B8ue170006ENS_18__default_init_tagE, symObjAddr: 0xB70, symBinAddr: 0x10000121C, symSize: 0x2C }
  - { offsetInCU: 0xD5F5, offset: 0xD5F5, size: 0x8, addend: 0x0, symName: __ZNSt3__19allocatorIiEC2B8ue170006Ev, symObjAddr: 0xB9C, symBinAddr: 0x100001248, symSize: 0x2C }
  - { offsetInCU: 0xD61E, offset: 0xD61E, size: 0x8, addend: 0x0, symName: __ZNSt3__116__non_trivial_ifILb1ENS_9allocatorIiEEEC2B8ue170006Ev, symObjAddr: 0xBC8, symBinAddr: 0x100001274, symSize: 0x14 }
  - { offsetInCU: 0xD647, offset: 0xD647, size: 0x8, addend: 0x0, symName: __ZNSt3__16vectorIiNS_9allocatorIiEEE9__end_capB8ue170006Ev, symObjAddr: 0xBDC, symBinAddr: 0x100001288, symSize: 0x28 }
  - { offsetInCU: 0xD671, offset: 0xD671, size: 0x8, addend: 0x0, symName: __ZNSt3__16vectorIiNS_9allocatorIiEEE22__construct_one_at_endB8ue170006IJRKiEEEvDpOT_, symObjAddr: 0xC04, symBinAddr: 0x1000012B0, symSize: 0x90 }
  - { offsetInCU: 0xD6BE, offset: 0xD6BE, size: 0x8, addend: 0x0, symName: __ZNSt3__16vectorIiNS_9allocatorIiEEE21__push_back_slow_pathIRKiEEvOT_, symObjAddr: 0xC94, symBinAddr: 0x100001340, symSize: 0xD8 }
  - { offsetInCU: 0xD71B, offset: 0xD71B, size: 0x8, addend: 0x0, symName: __ZNSt3__117__compressed_pairIPiNS_9allocatorIiEEE5firstB8ue170006Ev, symObjAddr: 0xD6C, symBinAddr: 0x100001418, symSize: 0x24 }
  - { offsetInCU: 0xD740, offset: 0xD740, size: 0x8, addend: 0x0, symName: __ZNSt3__122__compressed_pair_elemIPiLi0ELb0EE5__getB8ue170006Ev, symObjAddr: 0xD90, symBinAddr: 0x10000143C, symSize: 0x14 }
  - { offsetInCU: 0xD77E, offset: 0xD77E, size: 0x8, addend: 0x0, symName: __ZNSt3__16vectorIiNS_9allocatorIiEEE21_ConstructTransactionC1B8ue170006ERS3_m, symObjAddr: 0xDA4, symBinAddr: 0x100001450, symSize: 0x3C }
  - { offsetInCU: 0xD7C5, offset: 0xD7C5, size: 0x8, addend: 0x0, symName: __ZNSt3__116allocator_traitsINS_9allocatorIiEEE9constructB8ue170006IiJRKiEvvEEvRS2_PT_DpOT0_, symObjAddr: 0xDE0, symBinAddr: 0x10000148C, symSize: 0x30 }
  - { offsetInCU: 0xD819, offset: 0xD819, size: 0x8, addend: 0x0, symName: __ZNSt3__16vectorIiNS_9allocatorIiEEE7__allocB8ue170006Ev, symObjAddr: 0xE10, symBinAddr: 0x1000014BC, symSize: 0x28 }
  - { offsetInCU: 0xD83E, offset: 0xD83E, size: 0x8, addend: 0x0, symName: __ZNSt3__16vectorIiNS_9allocatorIiEEE21_ConstructTransactionD1B8ue170006Ev, symObjAddr: 0xE4C, symBinAddr: 0x1000014F8, symSize: 0x2C }
  - { offsetInCU: 0xD867, offset: 0xD867, size: 0x8, addend: 0x0, symName: __ZNSt3__16vectorIiNS_9allocatorIiEEE21_ConstructTransactionC2B8ue170006ERS3_m, symObjAddr: 0xE78, symBinAddr: 0x100001524, symSize: 0x44 }
  - { offsetInCU: 0xD8AE, offset: 0xD8AE, size: 0x8, addend: 0x0, symName: __ZNSt3__117__compressed_pairIPiNS_9allocatorIiEEE6secondB8ue170006Ev, symObjAddr: 0xEE8, symBinAddr: 0x100001594, symSize: 0x24 }
  - { offsetInCU: 0xD8D3, offset: 0xD8D3, size: 0x8, addend: 0x0, symName: __ZNSt3__122__compressed_pair_elemINS_9allocatorIiEELi1ELb1EE5__getB8ue170006Ev, symObjAddr: 0xF0C, symBinAddr: 0x1000015B8, symSize: 0x14 }
  - { offsetInCU: 0xD8F8, offset: 0xD8F8, size: 0x8, addend: 0x0, symName: __ZNSt3__16vectorIiNS_9allocatorIiEEE21_ConstructTransactionD2B8ue170006Ev, symObjAddr: 0xF20, symBinAddr: 0x1000015CC, symSize: 0x20 }
  - { offsetInCU: 0xD920, offset: 0xD920, size: 0x8, addend: 0x0, symName: __ZNKSt3__16vectorIiNS_9allocatorIiEEE11__recommendB8ue170006Em, symObjAddr: 0xF40, symBinAddr: 0x1000015EC, symSize: 0xB4 }
  - { offsetInCU: 0xD974, offset: 0xD974, size: 0x8, addend: 0x0, symName: __ZNSt3__114__split_bufferIiRNS_9allocatorIiEEEC1EmmS3_, symObjAddr: 0xFF4, symBinAddr: 0x1000016A0, symSize: 0x44 }
  - { offsetInCU: 0xD9C9, offset: 0xD9C9, size: 0x8, addend: 0x0, symName: __ZNSt3__114__split_bufferIiRNS_9allocatorIiEEED1Ev, symObjAddr: 0x1148, symBinAddr: 0x1000017F4, symSize: 0x2C }
  - { offsetInCU: 0xD9F3, offset: 0xD9F3, size: 0x8, addend: 0x0, symName: __ZNKSt3__16vectorIiNS_9allocatorIiEEE8max_sizeEv, symObjAddr: 0x1174, symBinAddr: 0x100001820, symSize: 0x60 }
  - { offsetInCU: 0xDA1A, offset: 0xDA1A, size: 0x8, addend: 0x0, symName: __ZNKSt3__16vectorIiNS_9allocatorIiEEE20__throw_length_errorB8ue170006Ev, symObjAddr: 0x11D4, symBinAddr: 0x100001880, symSize: 0x1C }
  - { offsetInCU: 0xDA3F, offset: 0xDA3F, size: 0x8, addend: 0x0, symName: __ZNKSt3__16vectorIiNS_9allocatorIiEEE8capacityB8ue170006Ev, symObjAddr: 0x11F0, symBinAddr: 0x10000189C, symSize: 0x40 }
  - { offsetInCU: 0xDA6E, offset: 0xDA6E, size: 0x8, addend: 0x0, symName: __ZNSt3__116allocator_traitsINS_9allocatorIiEEE8max_sizeB8ue170006IS2_vvEEmRKS2_, symObjAddr: 0x1288, symBinAddr: 0x100001934, symSize: 0x28 }
  - { offsetInCU: 0xDA99, offset: 0xDA99, size: 0x8, addend: 0x0, symName: __ZNKSt3__16vectorIiNS_9allocatorIiEEE7__allocB8ue170006Ev, symObjAddr: 0x12B0, symBinAddr: 0x10000195C, symSize: 0x28 }
  - { offsetInCU: 0xDABE, offset: 0xDABE, size: 0x8, addend: 0x0, symName: __ZNSt3__114numeric_limitsIlE3maxB8ue170006Ev, symObjAddr: 0x12D8, symBinAddr: 0x100001984, symSize: 0x14 }
  - { offsetInCU: 0xDAE6, offset: 0xDAE6, size: 0x8, addend: 0x0, symName: __ZNKSt3__16__lessIvvEclB8ue170006ImmEEbRKT_RKT0_, symObjAddr: 0x1340, symBinAddr: 0x1000019EC, symSize: 0x34 }
  - { offsetInCU: 0xDB39, offset: 0xDB39, size: 0x8, addend: 0x0, symName: __ZNSt3__114numeric_limitsImE3maxB8ue170006Ev, symObjAddr: 0x1374, symBinAddr: 0x100001A20, symSize: 0x14 }
  - { offsetInCU: 0xDB4D, offset: 0xDB4D, size: 0x8, addend: 0x0, symName: __ZNSt3__123__libcpp_numeric_limitsImLb1EE3maxB8ue170006Ev, symObjAddr: 0x1388, symBinAddr: 0x100001A34, symSize: 0x8 }
  - { offsetInCU: 0xDB61, offset: 0xDB61, size: 0x8, addend: 0x0, symName: __ZNKSt3__117__compressed_pairIPiNS_9allocatorIiEEE6secondB8ue170006Ev, symObjAddr: 0x1390, symBinAddr: 0x100001A3C, symSize: 0x24 }
  - { offsetInCU: 0xDB86, offset: 0xDB86, size: 0x8, addend: 0x0, symName: __ZNKSt3__122__compressed_pair_elemINS_9allocatorIiEELi1ELb1EE5__getB8ue170006Ev, symObjAddr: 0x13B4, symBinAddr: 0x100001A60, symSize: 0x14 }
  - { offsetInCU: 0xDBAB, offset: 0xDBAB, size: 0x8, addend: 0x0, symName: __ZNSt3__123__libcpp_numeric_limitsIlLb1EE3maxB8ue170006Ev, symObjAddr: 0x13C8, symBinAddr: 0x100001A74, symSize: 0x8 }
  - { offsetInCU: 0xDBBF, offset: 0xDBBF, size: 0x8, addend: 0x0, symName: __ZNSt12length_errorC1B8ue170006EPKc, symObjAddr: 0x1434, symBinAddr: 0x100001AE0, symSize: 0x34 }
  - { offsetInCU: 0xDBF6, offset: 0xDBF6, size: 0x8, addend: 0x0, symName: __ZNSt12length_errorC2B8ue170006EPKc, symObjAddr: 0x1468, symBinAddr: 0x100001B14, symSize: 0x4C }
  - { offsetInCU: 0xDC2D, offset: 0xDC2D, size: 0x8, addend: 0x0, symName: __ZNKSt3__16vectorIiNS_9allocatorIiEEE9__end_capB8ue170006Ev, symObjAddr: 0x14B4, symBinAddr: 0x100001B60, symSize: 0x28 }
  - { offsetInCU: 0xDC52, offset: 0xDC52, size: 0x8, addend: 0x0, symName: __ZNKSt3__117__compressed_pairIPiNS_9allocatorIiEEE5firstB8ue170006Ev, symObjAddr: 0x14DC, symBinAddr: 0x100001B88, symSize: 0x24 }
  - { offsetInCU: 0xDC77, offset: 0xDC77, size: 0x8, addend: 0x0, symName: __ZNKSt3__122__compressed_pair_elemIPiLi0ELb0EE5__getB8ue170006Ev, symObjAddr: 0x1500, symBinAddr: 0x100001BAC, symSize: 0x14 }
  - { offsetInCU: 0xDC9C, offset: 0xDC9C, size: 0x8, addend: 0x0, symName: __ZNSt3__114__split_bufferIiRNS_9allocatorIiEEEC2EmmS3_, symObjAddr: 0x1568, symBinAddr: 0x100001C14, symSize: 0xD4 }
  - { offsetInCU: 0xDD0E, offset: 0xDD0E, size: 0x8, addend: 0x0, symName: __ZNSt3__117__compressed_pairIPiRNS_9allocatorIiEEEC1B8ue170006IDnS4_EEOT_OT0_, symObjAddr: 0x163C, symBinAddr: 0x100001CE8, symSize: 0x3C }
  - { offsetInCU: 0xDD65, offset: 0xDD65, size: 0x8, addend: 0x0, symName: __ZNSt3__114__split_bufferIiRNS_9allocatorIiEEE7__allocB8ue170006Ev, symObjAddr: 0x16B8, symBinAddr: 0x100001D64, symSize: 0x28 }
  - { offsetInCU: 0xDD8A, offset: 0xDD8A, size: 0x8, addend: 0x0, symName: __ZNSt3__114__split_bufferIiRNS_9allocatorIiEEE9__end_capB8ue170006Ev, symObjAddr: 0x16E0, symBinAddr: 0x100001D8C, symSize: 0x28 }
  - { offsetInCU: 0xDDAF, offset: 0xDDAF, size: 0x8, addend: 0x0, symName: __ZNSt3__117__compressed_pairIPiRNS_9allocatorIiEEEC2B8ue170006IDnS4_EEOT_OT0_, symObjAddr: 0x1708, symBinAddr: 0x100001DB4, symSize: 0x48 }
  - { offsetInCU: 0xDE06, offset: 0xDE06, size: 0x8, addend: 0x0, symName: __ZNSt3__122__compressed_pair_elemIRNS_9allocatorIiEELi1ELb0EEC2B8ue170006IS3_vEEOT_, symObjAddr: 0x1750, symBinAddr: 0x100001DFC, symSize: 0x20 }
  - { offsetInCU: 0xDE47, offset: 0xDE47, size: 0x8, addend: 0x0, symName: __ZNSt3__19allocatorIiE8allocateB8ue170006Em, symObjAddr: 0x1770, symBinAddr: 0x100001E1C, symSize: 0x58 }
  - { offsetInCU: 0xDE7A, offset: 0xDE7A, size: 0x8, addend: 0x0, symName: __ZNSt3__117__compressed_pairIPiRNS_9allocatorIiEEE6secondB8ue170006Ev, symObjAddr: 0x18CC, symBinAddr: 0x100001F78, symSize: 0x28 }
  - { offsetInCU: 0xDE9F, offset: 0xDE9F, size: 0x8, addend: 0x0, symName: __ZNSt3__122__compressed_pair_elemIRNS_9allocatorIiEELi1ELb0EE5__getB8ue170006Ev, symObjAddr: 0x18F4, symBinAddr: 0x100001FA0, symSize: 0x18 }
  - { offsetInCU: 0xDEC4, offset: 0xDEC4, size: 0x8, addend: 0x0, symName: __ZNSt3__117__compressed_pairIPiRNS_9allocatorIiEEE5firstB8ue170006Ev, symObjAddr: 0x190C, symBinAddr: 0x100001FB8, symSize: 0x24 }
  - { offsetInCU: 0xDEE9, offset: 0xDEE9, size: 0x8, addend: 0x0, symName: __ZNKSt3__16vectorIiNS_9allocatorIiEEE17__annotate_deleteB8ue170006Ev, symObjAddr: 0x1930, symBinAddr: 0x100001FDC, symSize: 0xB8 }
  - { offsetInCU: 0xDF0E, offset: 0xDF0E, size: 0x8, addend: 0x0, symName: __ZNSt3__116reverse_iteratorIPiEC1B8ue170006ES1_, symObjAddr: 0x1A60, symBinAddr: 0x10000210C, symSize: 0x34 }
  - { offsetInCU: 0xDF45, offset: 0xDF45, size: 0x8, addend: 0x0, symName: __ZNKSt3__116reverse_iteratorIPiE4baseB8ue170006Ev, symObjAddr: 0x1A94, symBinAddr: 0x100002140, symSize: 0x18 }
  - { offsetInCU: 0xDF6A, offset: 0xDF6A, size: 0x8, addend: 0x0, symName: __ZNKSt3__16vectorIiNS_9allocatorIiEEE14__annotate_newB8ue170006Em, symObjAddr: 0x1AE8, symBinAddr: 0x100002194, symSize: 0xAC }
  - { offsetInCU: 0xDF9E, offset: 0xDF9E, size: 0x8, addend: 0x0, symName: __ZNKSt3__16vectorIiNS_9allocatorIiEEE31__annotate_contiguous_containerB8ue170006EPKvS5_S5_S5_, symObjAddr: 0x1B94, symBinAddr: 0x100002240, symSize: 0x20 }
  - { offsetInCU: 0xDFEF, offset: 0xDFEF, size: 0x8, addend: 0x0, symName: __ZNKSt3__16vectorIiNS_9allocatorIiEEE4dataB8ue170006Ev, symObjAddr: 0x1BB4, symBinAddr: 0x100002260, symSize: 0x28 }
  - { offsetInCU: 0xE037, offset: 0xE037, size: 0x8, addend: 0x0, symName: __ZNKSt3__111__move_loopINS_17_ClassicAlgPolicyEEclB8ue170006INS_16reverse_iteratorIPiEES6_S6_EENS_4pairIT_T1_EES8_T0_S9_, symObjAddr: 0x1E94, symBinAddr: 0x100002540, symSize: 0xA0 }
  - { offsetInCU: 0xE0A1, offset: 0xE0A1, size: 0x8, addend: 0x0, symName: __ZNSt3__119__unwrap_range_implINS_16reverse_iteratorIPiEES3_E8__unwrapB8ue170006ES3_S3_, symObjAddr: 0x2080, symBinAddr: 0x10000272C, symSize: 0x84 }
  - { offsetInCU: 0xE0D7, offset: 0xE0D7, size: 0x8, addend: 0x0, symName: __ZNSt3__14pairINS_16reverse_iteratorIPiEES3_EC1B8ue170006IS3_S3_LPv0EEEOT_OT0_, symObjAddr: 0x2104, symBinAddr: 0x1000027B0, symSize: 0x3C }
  - { offsetInCU: 0xE134, offset: 0xE134, size: 0x8, addend: 0x0, symName: __ZNSt3__14pairINS_16reverse_iteratorIPiEES3_EC2B8ue170006IS3_S3_LPv0EEEOT_OT0_, symObjAddr: 0x2140, symBinAddr: 0x1000027EC, symSize: 0x34 }
  - { offsetInCU: 0xE196, offset: 0xE196, size: 0x8, addend: 0x0, symName: __ZNSt3__18_IterOpsINS_17_ClassicAlgPolicyEE11__iter_moveB8ue170006IRNS_16reverse_iteratorIPiEEEENS_9enable_ifIXsr12is_referenceIDTdeclsr3stdE7declvalIRT_EEEEE5valueEDTclsr3stdE4movedeclsr3stdE7declvalISA_EEEEE4typeEOS9_, symObjAddr: 0x21BC, symBinAddr: 0x100002868, symSize: 0x28 }
  - { offsetInCU: 0xE1C2, offset: 0xE1C2, size: 0x8, addend: 0x0, symName: __ZNKSt3__116reverse_iteratorIPiEdeB8ue170006Ev, symObjAddr: 0x21E4, symBinAddr: 0x100002890, symSize: 0x28 }
  - { offsetInCU: 0xE1F5, offset: 0xE1F5, size: 0x8, addend: 0x0, symName: __ZNSt3__116reverse_iteratorIPiEppB8ue170006Ev, symObjAddr: 0x220C, symBinAddr: 0x1000028B8, symSize: 0x20 }
  - { offsetInCU: 0xE21A, offset: 0xE21A, size: 0x8, addend: 0x0, symName: __ZNSt3__18_IterOpsINS_17_ClassicAlgPolicyEE25__validate_iter_referenceB8ue170006IRNS_16reverse_iteratorIPiEEEEvv, symObjAddr: 0x222C, symBinAddr: 0x1000028D8, symSize: 0x4 }
  - { offsetInCU: 0xE238, offset: 0xE238, size: 0x8, addend: 0x0, symName: __ZNSt3__118__unwrap_iter_implINS_16reverse_iteratorIPiEELb0EE8__unwrapB8ue170006ES3_, symObjAddr: 0x2230, symBinAddr: 0x1000028DC, symSize: 0x24 }
  - { offsetInCU: 0xE25B, offset: 0xE25B, size: 0x8, addend: 0x0, symName: __ZNSt3__119__unwrap_range_implINS_16reverse_iteratorIPiEES3_E8__rewrapB8ue170006ES3_S3_, symObjAddr: 0x2254, symBinAddr: 0x100002900, symSize: 0x5C }
  - { offsetInCU: 0xE28C, offset: 0xE28C, size: 0x8, addend: 0x0, symName: __ZNSt3__118__unwrap_iter_implINS_16reverse_iteratorIPiEELb0EE8__rewrapB8ue170006ES3_S3_, symObjAddr: 0x22B0, symBinAddr: 0x10000295C, symSize: 0x2C }
  - { offsetInCU: 0xE2BA, offset: 0xE2BA, size: 0x8, addend: 0x0, symName: __ZNSt3__116reverse_iteratorIPiEC2B8ue170006ES1_, symObjAddr: 0x22DC, symBinAddr: 0x100002988, symSize: 0x28 }
  - { offsetInCU: 0xE2F1, offset: 0xE2F1, size: 0x8, addend: 0x0, symName: __ZNSt3__114__split_bufferIiRNS_9allocatorIiEEED2Ev, symObjAddr: 0x2304, symBinAddr: 0x1000029B0, symSize: 0x8C }
  - { offsetInCU: 0xE31C, offset: 0xE31C, size: 0x8, addend: 0x0, symName: __ZNSt3__114__split_bufferIiRNS_9allocatorIiEEE5clearB8ue170006Ev, symObjAddr: 0x2390, symBinAddr: 0x100002A3C, symSize: 0x28 }
  - { offsetInCU: 0xE341, offset: 0xE341, size: 0x8, addend: 0x0, symName: __ZNSt3__116allocator_traitsINS_9allocatorIiEEE10deallocateB8ue170006ERS2_Pim, symObjAddr: 0x23B8, symBinAddr: 0x100002A64, symSize: 0x34 }
  - { offsetInCU: 0xE383, offset: 0xE383, size: 0x8, addend: 0x0, symName: __ZNKSt3__114__split_bufferIiRNS_9allocatorIiEEE8capacityB8ue170006Ev, symObjAddr: 0x23EC, symBinAddr: 0x100002A98, symSize: 0x40 }
  - { offsetInCU: 0xE3A8, offset: 0xE3A8, size: 0x8, addend: 0x0, symName: __ZNSt3__114__split_bufferIiRNS_9allocatorIiEEE17__destruct_at_endB8ue170006EPi, symObjAddr: 0x242C, symBinAddr: 0x100002AD8, symSize: 0x2C }
  - { offsetInCU: 0xE3DA, offset: 0xE3DA, size: 0x8, addend: 0x0, symName: __ZNSt3__114__split_bufferIiRNS_9allocatorIiEEE17__destruct_at_endB8ue170006EPiNS_17integral_constantIbLb0EEE, symObjAddr: 0x2458, symBinAddr: 0x100002B04, symSize: 0x80 }
  - { offsetInCU: 0xE41A, offset: 0xE41A, size: 0x8, addend: 0x0, symName: __ZNSt3__116allocator_traitsINS_9allocatorIiEEE7destroyB8ue170006IivvEEvRS2_PT_, symObjAddr: 0x24D8, symBinAddr: 0x100002B84, symSize: 0x28 }
  - { offsetInCU: 0xE454, offset: 0xE454, size: 0x8, addend: 0x0, symName: __ZNSt3__19allocatorIiE10deallocateB8ue170006EPim, symObjAddr: 0x2534, symBinAddr: 0x100002BE0, symSize: 0x40 }
  - { offsetInCU: 0xE495, offset: 0xE495, size: 0x8, addend: 0x0, symName: __ZNKSt3__114__split_bufferIiRNS_9allocatorIiEEE9__end_capB8ue170006Ev, symObjAddr: 0x267C, symBinAddr: 0x100002D28, symSize: 0x28 }
  - { offsetInCU: 0xE4BA, offset: 0xE4BA, size: 0x8, addend: 0x0, symName: __ZNKSt3__117__compressed_pairIPiRNS_9allocatorIiEEE5firstB8ue170006Ev, symObjAddr: 0x26A4, symBinAddr: 0x100002D50, symSize: 0x24 }
  - { offsetInCU: 0xE4DF, offset: 0xE4DF, size: 0x8, addend: 0x0, symName: __ZNSt3__16vectorIiNS_9allocatorIiEEED2B8ue170006Ev, symObjAddr: 0x26C8, symBinAddr: 0x100002D74, symSize: 0x44 }
  - { offsetInCU: 0xE508, offset: 0xE508, size: 0x8, addend: 0x0, symName: __ZNSt3__16vectorIiNS_9allocatorIiEEE16__destroy_vectorC1B8ue170006ERS3_, symObjAddr: 0x270C, symBinAddr: 0x100002DB8, symSize: 0x34 }
  - { offsetInCU: 0xE540, offset: 0xE540, size: 0x8, addend: 0x0, symName: __ZNSt3__16vectorIiNS_9allocatorIiEEE16__destroy_vectorclB8ue170006Ev, symObjAddr: 0x2740, symBinAddr: 0x100002DEC, symSize: 0x90 }
  - { offsetInCU: 0xE565, offset: 0xE565, size: 0x8, addend: 0x0, symName: __ZNSt3__16vectorIiNS_9allocatorIiEEE16__destroy_vectorC2B8ue170006ERS3_, symObjAddr: 0x27D0, symBinAddr: 0x100002E7C, symSize: 0x20 }
  - { offsetInCU: 0xE59D, offset: 0xE59D, size: 0x8, addend: 0x0, symName: __ZNSt3__16vectorIiNS_9allocatorIiEEE7__clearB8ue170006Ev, symObjAddr: 0x27F0, symBinAddr: 0x100002E9C, symSize: 0x28 }
  - { offsetInCU: 0xE5C2, offset: 0xE5C2, size: 0x8, addend: 0x0, symName: __ZNSt3__16vectorIiNS_9allocatorIiEEE22__base_destruct_at_endB8ue170006EPi, symObjAddr: 0x2818, symBinAddr: 0x100002EC4, symSize: 0x8C }
  - { offsetInCU: 0xE605, offset: 0xE605, size: 0x8, addend: 0x0, symName: __ZNSt3__16vectorI6CoordsNS_9allocatorIS1_EEE9__end_capB8ue170006Ev, symObjAddr: 0x28A4, symBinAddr: 0x100002F50, symSize: 0x28 }
  - { offsetInCU: 0xE62A, offset: 0xE62A, size: 0x8, addend: 0x0, symName: __ZNSt3__16vectorI6CoordsNS_9allocatorIS1_EEE22__construct_one_at_endB8ue170006IJRKS1_EEEvDpOT_, symObjAddr: 0x28CC, symBinAddr: 0x100002F78, symSize: 0x90 }
  - { offsetInCU: 0xE677, offset: 0xE677, size: 0x8, addend: 0x0, symName: __ZNSt3__16vectorI6CoordsNS_9allocatorIS1_EEE21__push_back_slow_pathIRKS1_EEvOT_, symObjAddr: 0x295C, symBinAddr: 0x100003008, symSize: 0xD8 }
  - { offsetInCU: 0xE6D4, offset: 0xE6D4, size: 0x8, addend: 0x0, symName: __ZNSt3__117__compressed_pairIP6CoordsNS_9allocatorIS1_EEE5firstB8ue170006Ev, symObjAddr: 0x2A34, symBinAddr: 0x1000030E0, symSize: 0x24 }
  - { offsetInCU: 0xE6F9, offset: 0xE6F9, size: 0x8, addend: 0x0, symName: __ZNSt3__122__compressed_pair_elemIP6CoordsLi0ELb0EE5__getB8ue170006Ev, symObjAddr: 0x2A58, symBinAddr: 0x100003104, symSize: 0x14 }
  - { offsetInCU: 0xE737, offset: 0xE737, size: 0x8, addend: 0x0, symName: __ZNSt3__16vectorI6CoordsNS_9allocatorIS1_EEE21_ConstructTransactionC1B8ue170006ERS4_m, symObjAddr: 0x2A6C, symBinAddr: 0x100003118, symSize: 0x3C }
  - { offsetInCU: 0xE77E, offset: 0xE77E, size: 0x8, addend: 0x0, symName: __ZNSt3__116allocator_traitsINS_9allocatorI6CoordsEEE9constructB8ue170006IS2_JRKS2_EvvEEvRS3_PT_DpOT0_, symObjAddr: 0x2AA8, symBinAddr: 0x100003154, symSize: 0x30 }
  - { offsetInCU: 0xE7D2, offset: 0xE7D2, size: 0x8, addend: 0x0, symName: __ZNSt3__16vectorI6CoordsNS_9allocatorIS1_EEE7__allocB8ue170006Ev, symObjAddr: 0x2AD8, symBinAddr: 0x100003184, symSize: 0x28 }
  - { offsetInCU: 0xE7F7, offset: 0xE7F7, size: 0x8, addend: 0x0, symName: __ZNSt3__16vectorI6CoordsNS_9allocatorIS1_EEE21_ConstructTransactionD1B8ue170006Ev, symObjAddr: 0x2B14, symBinAddr: 0x1000031C0, symSize: 0x2C }
  - { offsetInCU: 0xE820, offset: 0xE820, size: 0x8, addend: 0x0, symName: __ZNSt3__16vectorI6CoordsNS_9allocatorIS1_EEE21_ConstructTransactionC2B8ue170006ERS4_m, symObjAddr: 0x2B40, symBinAddr: 0x1000031EC, symSize: 0x44 }
  - { offsetInCU: 0xE867, offset: 0xE867, size: 0x8, addend: 0x0, symName: __ZNSt3__117__compressed_pairIP6CoordsNS_9allocatorIS1_EEE6secondB8ue170006Ev, symObjAddr: 0x2BB0, symBinAddr: 0x10000325C, symSize: 0x24 }
  - { offsetInCU: 0xE88C, offset: 0xE88C, size: 0x8, addend: 0x0, symName: __ZNSt3__122__compressed_pair_elemINS_9allocatorI6CoordsEELi1ELb1EE5__getB8ue170006Ev, symObjAddr: 0x2BD4, symBinAddr: 0x100003280, symSize: 0x14 }
  - { offsetInCU: 0xE8B1, offset: 0xE8B1, size: 0x8, addend: 0x0, symName: __ZNSt3__16vectorI6CoordsNS_9allocatorIS1_EEE21_ConstructTransactionD2B8ue170006Ev, symObjAddr: 0x2BE8, symBinAddr: 0x100003294, symSize: 0x20 }
  - { offsetInCU: 0xE8D9, offset: 0xE8D9, size: 0x8, addend: 0x0, symName: __ZNKSt3__16vectorI6CoordsNS_9allocatorIS1_EEE11__recommendB8ue170006Em, symObjAddr: 0x2C08, symBinAddr: 0x1000032B4, symSize: 0xB4 }
  - { offsetInCU: 0xE92D, offset: 0xE92D, size: 0x8, addend: 0x0, symName: __ZNSt3__114__split_bufferI6CoordsRNS_9allocatorIS1_EEEC1EmmS4_, symObjAddr: 0x2CBC, symBinAddr: 0x100003368, symSize: 0x44 }
  - { offsetInCU: 0xE982, offset: 0xE982, size: 0x8, addend: 0x0, symName: __ZNSt3__114__split_bufferI6CoordsRNS_9allocatorIS1_EEED1Ev, symObjAddr: 0x2E10, symBinAddr: 0x1000034BC, symSize: 0x2C }
  - { offsetInCU: 0xE9AC, offset: 0xE9AC, size: 0x8, addend: 0x0, symName: __ZNKSt3__16vectorI6CoordsNS_9allocatorIS1_EEE8max_sizeEv, symObjAddr: 0x2E3C, symBinAddr: 0x1000034E8, symSize: 0x60 }
  - { offsetInCU: 0xE9D3, offset: 0xE9D3, size: 0x8, addend: 0x0, symName: __ZNKSt3__16vectorI6CoordsNS_9allocatorIS1_EEE20__throw_length_errorB8ue170006Ev, symObjAddr: 0x2E9C, symBinAddr: 0x100003548, symSize: 0x1C }
  - { offsetInCU: 0xE9F8, offset: 0xE9F8, size: 0x8, addend: 0x0, symName: __ZNKSt3__16vectorI6CoordsNS_9allocatorIS1_EEE8capacityB8ue170006Ev, symObjAddr: 0x2EB8, symBinAddr: 0x100003564, symSize: 0x40 }
  - { offsetInCU: 0xEA27, offset: 0xEA27, size: 0x8, addend: 0x0, symName: __ZNSt3__116allocator_traitsINS_9allocatorI6CoordsEEE8max_sizeB8ue170006IS3_vvEEmRKS3_, symObjAddr: 0x2EF8, symBinAddr: 0x1000035A4, symSize: 0x28 }
  - { offsetInCU: 0xEA52, offset: 0xEA52, size: 0x8, addend: 0x0, symName: __ZNKSt3__16vectorI6CoordsNS_9allocatorIS1_EEE7__allocB8ue170006Ev, symObjAddr: 0x2F20, symBinAddr: 0x1000035CC, symSize: 0x28 }
  - { offsetInCU: 0xEA77, offset: 0xEA77, size: 0x8, addend: 0x0, symName: __ZNKSt3__117__compressed_pairIP6CoordsNS_9allocatorIS1_EEE6secondB8ue170006Ev, symObjAddr: 0x2F48, symBinAddr: 0x1000035F4, symSize: 0x24 }
  - { offsetInCU: 0xEA9C, offset: 0xEA9C, size: 0x8, addend: 0x0, symName: __ZNKSt3__122__compressed_pair_elemINS_9allocatorI6CoordsEELi1ELb1EE5__getB8ue170006Ev, symObjAddr: 0x2F6C, symBinAddr: 0x100003618, symSize: 0x14 }
  - { offsetInCU: 0xEAC1, offset: 0xEAC1, size: 0x8, addend: 0x0, symName: __ZNKSt3__16vectorI6CoordsNS_9allocatorIS1_EEE9__end_capB8ue170006Ev, symObjAddr: 0x2F80, symBinAddr: 0x10000362C, symSize: 0x28 }
  - { offsetInCU: 0xEAE6, offset: 0xEAE6, size: 0x8, addend: 0x0, symName: __ZNKSt3__117__compressed_pairIP6CoordsNS_9allocatorIS1_EEE5firstB8ue170006Ev, symObjAddr: 0x2FA8, symBinAddr: 0x100003654, symSize: 0x24 }
  - { offsetInCU: 0xEB0B, offset: 0xEB0B, size: 0x8, addend: 0x0, symName: __ZNKSt3__122__compressed_pair_elemIP6CoordsLi0ELb0EE5__getB8ue170006Ev, symObjAddr: 0x2FCC, symBinAddr: 0x100003678, symSize: 0x14 }
  - { offsetInCU: 0xEB30, offset: 0xEB30, size: 0x8, addend: 0x0, symName: __ZNSt3__114__split_bufferI6CoordsRNS_9allocatorIS1_EEEC2EmmS4_, symObjAddr: 0x2FE0, symBinAddr: 0x10000368C, symSize: 0xD4 }
  - { offsetInCU: 0xEBA2, offset: 0xEBA2, size: 0x8, addend: 0x0, symName: __ZNSt3__117__compressed_pairIP6CoordsRNS_9allocatorIS1_EEEC1B8ue170006IDnS5_EEOT_OT0_, symObjAddr: 0x30B4, symBinAddr: 0x100003760, symSize: 0x3C }
  - { offsetInCU: 0xEBF9, offset: 0xEBF9, size: 0x8, addend: 0x0, symName: __ZNSt3__114__split_bufferI6CoordsRNS_9allocatorIS1_EEE7__allocB8ue170006Ev, symObjAddr: 0x3130, symBinAddr: 0x1000037DC, symSize: 0x28 }
  - { offsetInCU: 0xEC1E, offset: 0xEC1E, size: 0x8, addend: 0x0, symName: __ZNSt3__114__split_bufferI6CoordsRNS_9allocatorIS1_EEE9__end_capB8ue170006Ev, symObjAddr: 0x3158, symBinAddr: 0x100003804, symSize: 0x28 }
  - { offsetInCU: 0xEC43, offset: 0xEC43, size: 0x8, addend: 0x0, symName: __ZNSt3__117__compressed_pairIP6CoordsRNS_9allocatorIS1_EEEC2B8ue170006IDnS5_EEOT_OT0_, symObjAddr: 0x3180, symBinAddr: 0x10000382C, symSize: 0x48 }
  - { offsetInCU: 0xEC9A, offset: 0xEC9A, size: 0x8, addend: 0x0, symName: __ZNSt3__122__compressed_pair_elemIRNS_9allocatorI6CoordsEELi1ELb0EEC2B8ue170006IS4_vEEOT_, symObjAddr: 0x31C8, symBinAddr: 0x100003874, symSize: 0x20 }
  - { offsetInCU: 0xECDB, offset: 0xECDB, size: 0x8, addend: 0x0, symName: __ZNSt3__19allocatorI6CoordsE8allocateB8ue170006Em, symObjAddr: 0x31E8, symBinAddr: 0x100003894, symSize: 0x58 }
  - { offsetInCU: 0xED0E, offset: 0xED0E, size: 0x8, addend: 0x0, symName: __ZNSt3__117__compressed_pairIP6CoordsRNS_9allocatorIS1_EEE6secondB8ue170006Ev, symObjAddr: 0x3240, symBinAddr: 0x1000038EC, symSize: 0x28 }
  - { offsetInCU: 0xED33, offset: 0xED33, size: 0x8, addend: 0x0, symName: __ZNSt3__122__compressed_pair_elemIRNS_9allocatorI6CoordsEELi1ELb0EE5__getB8ue170006Ev, symObjAddr: 0x3268, symBinAddr: 0x100003914, symSize: 0x18 }
  - { offsetInCU: 0xED58, offset: 0xED58, size: 0x8, addend: 0x0, symName: __ZNSt3__117__compressed_pairIP6CoordsRNS_9allocatorIS1_EEE5firstB8ue170006Ev, symObjAddr: 0x3280, symBinAddr: 0x10000392C, symSize: 0x24 }
  - { offsetInCU: 0xED7D, offset: 0xED7D, size: 0x8, addend: 0x0, symName: __ZNKSt3__16vectorI6CoordsNS_9allocatorIS1_EEE17__annotate_deleteB8ue170006Ev, symObjAddr: 0x32A4, symBinAddr: 0x100003950, symSize: 0xB8 }
  - { offsetInCU: 0xEDA2, offset: 0xEDA2, size: 0x8, addend: 0x0, symName: __ZNSt3__116reverse_iteratorIP6CoordsEC1B8ue170006ES2_, symObjAddr: 0x33D4, symBinAddr: 0x100003A80, symSize: 0x34 }
  - { offsetInCU: 0xEDD9, offset: 0xEDD9, size: 0x8, addend: 0x0, symName: __ZNKSt3__116reverse_iteratorIP6CoordsE4baseB8ue170006Ev, symObjAddr: 0x3408, symBinAddr: 0x100003AB4, symSize: 0x18 }
  - { offsetInCU: 0xEDFE, offset: 0xEDFE, size: 0x8, addend: 0x0, symName: __ZNKSt3__16vectorI6CoordsNS_9allocatorIS1_EEE14__annotate_newB8ue170006Em, symObjAddr: 0x345C, symBinAddr: 0x100003B08, symSize: 0xAC }
  - { offsetInCU: 0xEE32, offset: 0xEE32, size: 0x8, addend: 0x0, symName: __ZNKSt3__16vectorI6CoordsNS_9allocatorIS1_EEE31__annotate_contiguous_containerB8ue170006EPKvS6_S6_S6_, symObjAddr: 0x3508, symBinAddr: 0x100003BB4, symSize: 0x20 }
  - { offsetInCU: 0xEE83, offset: 0xEE83, size: 0x8, addend: 0x0, symName: __ZNKSt3__16vectorI6CoordsNS_9allocatorIS1_EEE4dataB8ue170006Ev, symObjAddr: 0x3528, symBinAddr: 0x100003BD4, symSize: 0x28 }
  - { offsetInCU: 0xEEC1, offset: 0xEEC1, size: 0x8, addend: 0x0, symName: __ZNKSt3__111__move_loopINS_17_ClassicAlgPolicyEEclB8ue170006INS_16reverse_iteratorIP6CoordsEES7_S7_EENS_4pairIT_T1_EES9_T0_SA_, symObjAddr: 0x3808, symBinAddr: 0x100003EB4, symSize: 0xA0 }
  - { offsetInCU: 0xEF2B, offset: 0xEF2B, size: 0x8, addend: 0x0, symName: __ZNSt3__119__unwrap_range_implINS_16reverse_iteratorIP6CoordsEES4_E8__unwrapB8ue170006ES4_S4_, symObjAddr: 0x39F4, symBinAddr: 0x1000040A0, symSize: 0x84 }
  - { offsetInCU: 0xEF61, offset: 0xEF61, size: 0x8, addend: 0x0, symName: __ZNSt3__14pairINS_16reverse_iteratorIP6CoordsEES4_EC1B8ue170006IS4_S4_LPv0EEEOT_OT0_, symObjAddr: 0x3A78, symBinAddr: 0x100004124, symSize: 0x3C }
  - { offsetInCU: 0xEFBE, offset: 0xEFBE, size: 0x8, addend: 0x0, symName: __ZNSt3__14pairINS_16reverse_iteratorIP6CoordsEES4_EC2B8ue170006IS4_S4_LPv0EEEOT_OT0_, symObjAddr: 0x3AB4, symBinAddr: 0x100004160, symSize: 0x34 }
  - { offsetInCU: 0xF020, offset: 0xF020, size: 0x8, addend: 0x0, symName: __ZNSt3__18_IterOpsINS_17_ClassicAlgPolicyEE11__iter_moveB8ue170006IRNS_16reverse_iteratorIP6CoordsEEEENS_9enable_ifIXsr12is_referenceIDTdeclsr3stdE7declvalIRT_EEEEE5valueEDTclsr3stdE4movedeclsr3stdE7declvalISB_EEEEE4typeEOSA_, symObjAddr: 0x3B30, symBinAddr: 0x1000041DC, symSize: 0x28 }
  - { offsetInCU: 0xF04C, offset: 0xF04C, size: 0x8, addend: 0x0, symName: __ZNKSt3__116reverse_iteratorIP6CoordsEdeB8ue170006Ev, symObjAddr: 0x3B58, symBinAddr: 0x100004204, symSize: 0x28 }
  - { offsetInCU: 0xF07F, offset: 0xF07F, size: 0x8, addend: 0x0, symName: __ZNSt3__116reverse_iteratorIP6CoordsEppB8ue170006Ev, symObjAddr: 0x3B80, symBinAddr: 0x10000422C, symSize: 0x20 }
  - { offsetInCU: 0xF0A4, offset: 0xF0A4, size: 0x8, addend: 0x0, symName: __ZNSt3__18_IterOpsINS_17_ClassicAlgPolicyEE25__validate_iter_referenceB8ue170006IRNS_16reverse_iteratorIP6CoordsEEEEvv, symObjAddr: 0x3BA0, symBinAddr: 0x10000424C, symSize: 0x4 }
  - { offsetInCU: 0xF0C2, offset: 0xF0C2, size: 0x8, addend: 0x0, symName: __ZNSt3__118__unwrap_iter_implINS_16reverse_iteratorIP6CoordsEELb0EE8__unwrapB8ue170006ES4_, symObjAddr: 0x3BA4, symBinAddr: 0x100004250, symSize: 0x24 }
  - { offsetInCU: 0xF0E5, offset: 0xF0E5, size: 0x8, addend: 0x0, symName: __ZNSt3__119__unwrap_range_implINS_16reverse_iteratorIP6CoordsEES4_E8__rewrapB8ue170006ES4_S4_, symObjAddr: 0x3BC8, symBinAddr: 0x100004274, symSize: 0x5C }
  - { offsetInCU: 0xF116, offset: 0xF116, size: 0x8, addend: 0x0, symName: __ZNSt3__118__unwrap_iter_implINS_16reverse_iteratorIP6CoordsEELb0EE8__rewrapB8ue170006ES4_S4_, symObjAddr: 0x3C24, symBinAddr: 0x1000042D0, symSize: 0x2C }
  - { offsetInCU: 0xF144, offset: 0xF144, size: 0x8, addend: 0x0, symName: __ZNSt3__116reverse_iteratorIP6CoordsEC2B8ue170006ES2_, symObjAddr: 0x3C50, symBinAddr: 0x1000042FC, symSize: 0x28 }
  - { offsetInCU: 0xF17B, offset: 0xF17B, size: 0x8, addend: 0x0, symName: __ZNSt3__114__split_bufferI6CoordsRNS_9allocatorIS1_EEED2Ev, symObjAddr: 0x3C78, symBinAddr: 0x100004324, symSize: 0x8C }
  - { offsetInCU: 0xF1A6, offset: 0xF1A6, size: 0x8, addend: 0x0, symName: __ZNSt3__114__split_bufferI6CoordsRNS_9allocatorIS1_EEE5clearB8ue170006Ev, symObjAddr: 0x3D04, symBinAddr: 0x1000043B0, symSize: 0x28 }
  - { offsetInCU: 0xF1CB, offset: 0xF1CB, size: 0x8, addend: 0x0, symName: __ZNSt3__116allocator_traitsINS_9allocatorI6CoordsEEE10deallocateB8ue170006ERS3_PS2_m, symObjAddr: 0x3D2C, symBinAddr: 0x1000043D8, symSize: 0x34 }
  - { offsetInCU: 0xF20D, offset: 0xF20D, size: 0x8, addend: 0x0, symName: __ZNKSt3__114__split_bufferI6CoordsRNS_9allocatorIS1_EEE8capacityB8ue170006Ev, symObjAddr: 0x3D60, symBinAddr: 0x10000440C, symSize: 0x40 }
  - { offsetInCU: 0xF232, offset: 0xF232, size: 0x8, addend: 0x0, symName: __ZNSt3__114__split_bufferI6CoordsRNS_9allocatorIS1_EEE17__destruct_at_endB8ue170006EPS1_, symObjAddr: 0x3DA0, symBinAddr: 0x10000444C, symSize: 0x2C }
  - { offsetInCU: 0xF264, offset: 0xF264, size: 0x8, addend: 0x0, symName: __ZNSt3__114__split_bufferI6CoordsRNS_9allocatorIS1_EEE17__destruct_at_endB8ue170006EPS1_NS_17integral_constantIbLb0EEE, symObjAddr: 0x3DCC, symBinAddr: 0x100004478, symSize: 0x80 }
  - { offsetInCU: 0xF2A4, offset: 0xF2A4, size: 0x8, addend: 0x0, symName: __ZNSt3__116allocator_traitsINS_9allocatorI6CoordsEEE7destroyB8ue170006IS2_vvEEvRS3_PT_, symObjAddr: 0x3E4C, symBinAddr: 0x1000044F8, symSize: 0x28 }
  - { offsetInCU: 0xF2DE, offset: 0xF2DE, size: 0x8, addend: 0x0, symName: __ZNSt3__19allocatorI6CoordsE10deallocateB8ue170006EPS1_m, symObjAddr: 0x3EA8, symBinAddr: 0x100004554, symSize: 0x40 }
  - { offsetInCU: 0xF31F, offset: 0xF31F, size: 0x8, addend: 0x0, symName: __ZNKSt3__114__split_bufferI6CoordsRNS_9allocatorIS1_EEE9__end_capB8ue170006Ev, symObjAddr: 0x3EE8, symBinAddr: 0x100004594, symSize: 0x28 }
  - { offsetInCU: 0xF344, offset: 0xF344, size: 0x8, addend: 0x0, symName: __ZNKSt3__117__compressed_pairIP6CoordsRNS_9allocatorIS1_EEE5firstB8ue170006Ev, symObjAddr: 0x3F10, symBinAddr: 0x1000045BC, symSize: 0x24 }
  - { offsetInCU: 0xF369, offset: 0xF369, size: 0x8, addend: 0x0, symName: __ZNSt3__16vectorI6CoordsNS_9allocatorIS1_EEE17__destruct_at_endB8ue170006EPS1_, symObjAddr: 0x3F34, symBinAddr: 0x1000045E0, symSize: 0x4C }
  - { offsetInCU: 0xF3AC, offset: 0xF3AC, size: 0x8, addend: 0x0, symName: __ZNSt3__16vectorI6CoordsNS_9allocatorIS1_EEE22__base_destruct_at_endB8ue170006EPS1_, symObjAddr: 0x3F80, symBinAddr: 0x10000462C, symSize: 0x8C }
  - { offsetInCU: 0xF3EF, offset: 0xF3EF, size: 0x8, addend: 0x0, symName: __ZNKSt3__16vectorI6CoordsNS_9allocatorIS1_EEE17__annotate_shrinkB8ue170006Em, symObjAddr: 0x400C, symBinAddr: 0x1000046B8, symSize: 0xB4 }
  - { offsetInCU: 0x3F, offset: 0xF51F, size: 0x8, addend: 0x0, symName: __ZL10DIRECTIONS, symObjAddr: 0x2B6FC, symBinAddr: 0x100014020, symSize: 0x0 }
  - { offsetInCU: 0x43BD, offset: 0x1389D, size: 0x8, addend: 0x0, symName: __ZNSt3__1plB8ue170006IcNS_11char_traitsIcEENS_9allocatorIcEEEENS_12basic_stringIT_T0_T1_EEPKS6_OS9_, symObjAddr: 0x22C, symBinAddr: 0x100004A24, symSize: 0x44 }
  - { offsetInCU: 0x4415, offset: 0x138F5, size: 0x8, addend: 0x0, symName: __ZNSt3__1plB8ue170006IcNS_11char_traitsIcEENS_9allocatorIcEEEENS_12basic_stringIT_T0_T1_EEOS9_SA_, symObjAddr: 0xCEC, symBinAddr: 0x1000054E4, symSize: 0x40 }
  - { offsetInCU: 0x446D, offset: 0x1394D, size: 0x8, addend: 0x0, symName: __ZNSt3__1plB8ue170006IcNS_11char_traitsIcEENS_9allocatorIcEEEENS_12basic_stringIT_T0_T1_EEOS9_PKS6_, symObjAddr: 0xD2C, symBinAddr: 0x100005524, symSize: 0x40 }
  - { offsetInCU: 0x44C5, offset: 0x139A5, size: 0x8, addend: 0x0, symName: __ZNSt3__112__to_addressB8ue170006IN5House4TileEEEPT_S4_, symObjAddr: 0x1A24, symBinAddr: 0x100006210, symSize: 0x14 }
  - { offsetInCU: 0x451F, offset: 0x139FF, size: 0x8, addend: 0x0, symName: __ZNSt3__112construct_atB8ue170006IN5House4TileEJRKS2_EPS2_EEPT_S7_DpOT0_, symObjAddr: 0x1AA8, symBinAddr: 0x100006294, symSize: 0x2C }
  - { offsetInCU: 0x458F, offset: 0x13A6F, size: 0x8, addend: 0x0, symName: __ZNSt3__119__allocate_at_leastB8ue170006INS_9allocatorIN5House4TileEEEEENS_19__allocation_resultINS_16allocator_traitsIT_E7pointerEEERS7_m, symObjAddr: 0x2030, symBinAddr: 0x1000065CC, symSize: 0x40 }
  - { offsetInCU: 0x45D2, offset: 0x13AB2, size: 0x8, addend: 0x0, symName: __ZNSt3__142__uninitialized_allocator_move_if_noexceptB8ue170006INS_9allocatorIN5House4TileEEENS_16reverse_iteratorIPS3_EES7_S3_vEET1_RT_T0_SB_S8_, symObjAddr: 0x246C, symBinAddr: 0x100006904, symSize: 0x78 }
  - { offsetInCU: 0x464F, offset: 0x13B2F, size: 0x8, addend: 0x0, symName: __ZNSt3__14swapB8ue170006IPN5House4TileEEENS_9enable_ifIXaasr21is_move_constructibleIT_EE5valuesr18is_move_assignableIS5_EE5valueEvE4typeERS5_S8_, symObjAddr: 0x2530, symBinAddr: 0x1000069C8, symSize: 0x3C }
  - { offsetInCU: 0x46A0, offset: 0x13B80, size: 0x8, addend: 0x0, symName: __ZNSt3__14moveB8ue170006INS_16reverse_iteratorIPN5House4TileEEES5_EET0_T_S7_S6_, symObjAddr: 0x2660, symBinAddr: 0x100006AF8, symSize: 0x78 }
  - { offsetInCU: 0x46FA, offset: 0x13BDA, size: 0x8, addend: 0x0, symName: __ZNSt3__16__moveB8ue170006INS_17_ClassicAlgPolicyENS_16reverse_iteratorIPN5House4TileEEES6_S6_EENS_4pairIT0_T2_EES8_T1_S9_, symObjAddr: 0x26D8, symBinAddr: 0x100006B70, symSize: 0x64 }
  - { offsetInCU: 0x4766, offset: 0x13C46, size: 0x8, addend: 0x0, symName: __ZNSt3__123__dispatch_copy_or_moveB8ue170006INS_17_ClassicAlgPolicyENS_11__move_loopIS1_EENS_14__move_trivialENS_16reverse_iteratorIPN5House4TileEEES9_S9_EENS_4pairIT2_T4_EESB_T3_SC_, symObjAddr: 0x273C, symBinAddr: 0x100006BD4, symSize: 0x64 }
  - { offsetInCU: 0x47E4, offset: 0x13CC4, size: 0x8, addend: 0x0, symName: __ZNSt3__121__unwrap_and_dispatchB8ue170006INS_10__overloadINS_11__move_loopINS_17_ClassicAlgPolicyEEENS_14__move_trivialEEENS_16reverse_iteratorIPN5House4TileEEESB_SB_Li0EEENS_4pairIT0_T2_EESD_T1_SE_, symObjAddr: 0x27A0, symBinAddr: 0x100006C38, symSize: 0x12C }
  - { offsetInCU: 0x4874, offset: 0x13D54, size: 0x8, addend: 0x0, symName: __ZNSt3__114__unwrap_rangeB8ue170006INS_16reverse_iteratorIPN5House4TileEEES5_EEDaT_T0_, symObjAddr: 0x28CC, symBinAddr: 0x100006D64, symSize: 0x4C }
  - { offsetInCU: 0x49E6, offset: 0x13EC6, size: 0x8, addend: 0x0, symName: __ZNSt3__113__unwrap_iterB8ue170006INS_16reverse_iteratorIPN5House4TileEEENS_18__unwrap_iter_implIS5_Lb0EEELi0EEEDTclsrT0_8__unwrapclsr3stdE7declvalIT_EEEES9_, symObjAddr: 0x29B8, symBinAddr: 0x100006E50, symSize: 0x44 }
  - { offsetInCU: 0x4A2A, offset: 0x13F0A, size: 0x8, addend: 0x0, symName: __ZNSt3__19make_pairB8ue170006INS_16reverse_iteratorIPN5House4TileEEES5_EENS_4pairINS_18__unwrap_ref_decayIT_E4typeENS7_IT0_E4typeEEEOS8_OSB_, symObjAddr: 0x29FC, symBinAddr: 0x100006E94, symSize: 0x38 }
  - { offsetInCU: 0x4A79, offset: 0x13F59, size: 0x8, addend: 0x0, symName: __ZNSt3__114__rewrap_rangeB8ue170006INS_16reverse_iteratorIPN5House4TileEEES5_S5_EET0_S6_T1_, symObjAddr: 0x2A34, symBinAddr: 0x100006ECC, symSize: 0x5C }
  - { offsetInCU: 0x4ACE, offset: 0x13FAE, size: 0x8, addend: 0x0, symName: __ZNSt3__113__rewrap_iterB8ue170006INS_16reverse_iteratorIPN5House4TileEEES5_NS_18__unwrap_iter_implIS5_Lb0EEEEET_S8_T0_, symObjAddr: 0x2A90, symBinAddr: 0x100006F28, symSize: 0x74 }
  - { offsetInCU: 0x4B73, offset: 0x14053, size: 0x8, addend: 0x0, symName: __ZNSt3__1neB8ue170006IPN5House4TileES3_EEbRKNS_16reverse_iteratorIT_EERKNS4_IT0_EE, symObjAddr: 0x2BF8, symBinAddr: 0x100007090, symSize: 0x48 }
  - { offsetInCU: 0x4C71, offset: 0x14151, size: 0x8, addend: 0x0, symName: __ZNSt3__110destroy_atB8ue170006IN5House4TileELi0EEEvPT_, symObjAddr: 0x2F84, symBinAddr: 0x10000741C, symSize: 0x24 }
  - { offsetInCU: 0x4CA8, offset: 0x14188, size: 0x8, addend: 0x0, symName: __ZNSt3__112__destroy_atB8ue170006IN5House4TileELi0EEEvPT_, symObjAddr: 0x2FA8, symBinAddr: 0x100007440, symSize: 0x10 }
  - { offsetInCU: 0x4CDF, offset: 0x141BF, size: 0x8, addend: 0x0, symName: __ZNSt3__112__to_addressB8ue170006IKcEEPT_S3_, symObjAddr: 0x34F0, symBinAddr: 0x100007880, symSize: 0x14 }
  - { offsetInCU: 0x4D47, offset: 0x14227, size: 0x8, addend: 0x0, symName: __ZNSt3__122__make_exception_guardB8ue170006INS_6vectorIN5House4TileENS_9allocatorIS3_EEE16__destroy_vectorEEENS_28__exception_guard_exceptionsIT_EES9_, symObjAddr: 0x393C, symBinAddr: 0x100007CCC, symSize: 0x40 }
  - { offsetInCU: 0x4D7C, offset: 0x1425C, size: 0x8, addend: 0x0, symName: __ZNSt3__130__uninitialized_allocator_copyB8ue170006INS_9allocatorIN5House4TileEEEPS3_S5_S5_EET2_RT_T0_T1_S6_, symObjAddr: 0x3B54, symBinAddr: 0x100007EE4, symSize: 0x80 }
  - { offsetInCU: 0x4E19, offset: 0x142F9, size: 0x8, addend: 0x0, symName: __ZNSt3__114__unwrap_rangeB8ue170006IPN5House4TileES3_EEDaT_T0_, symObjAddr: 0x3BD4, symBinAddr: 0x100007F64, symSize: 0x3C }
  - { offsetInCU: 0x4E65, offset: 0x14345, size: 0x8, addend: 0x0, symName: __ZNSt3__135__uninitialized_allocator_copy_implB8ue170006INS_9allocatorIN5House4TileEEES3_S3_S3_LPv0EEEPT2_RT_PT0_SB_S7_, symObjAddr: 0x3C10, symBinAddr: 0x100007FA0, symSize: 0x38 }
  - { offsetInCU: 0x4EE6, offset: 0x143C6, size: 0x8, addend: 0x0, symName: __ZNSt3__113__unwrap_iterB8ue170006IPN5House4TileENS_18__unwrap_iter_implIS3_Lb1EEELi0EEEDTclsrT0_8__unwrapclsr3stdE7declvalIT_EEEES7_, symObjAddr: 0x3C48, symBinAddr: 0x100007FD8, symSize: 0x24 }
  - { offsetInCU: 0x4F2A, offset: 0x1440A, size: 0x8, addend: 0x0, symName: __ZNSt3__113__rewrap_iterB8ue170006IPN5House4TileES3_NS_18__unwrap_iter_implIS3_Lb1EEEEET_S6_T0_, symObjAddr: 0x3C6C, symBinAddr: 0x100007FFC, symSize: 0x3C }
  - { offsetInCU: 0x50CA, offset: 0x145AA, size: 0x8, addend: 0x0, symName: __ZNSt3__14copyB8ue170006IPN5House4TileES3_EET0_T_S5_S4_, symObjAddr: 0x3D70, symBinAddr: 0x100008100, symSize: 0x40 }
  - { offsetInCU: 0x5124, offset: 0x14604, size: 0x8, addend: 0x0, symName: __ZNSt3__16__copyB8ue170006INS_17_ClassicAlgPolicyEPN5House4TileES4_S4_EENS_4pairIT0_T2_EES6_T1_S7_, symObjAddr: 0x3DB0, symBinAddr: 0x100008140, symSize: 0x44 }
  - { offsetInCU: 0x5190, offset: 0x14670, size: 0x8, addend: 0x0, symName: __ZNSt3__123__dispatch_copy_or_moveB8ue170006INS_17_ClassicAlgPolicyENS_11__copy_loopIS1_EENS_14__copy_trivialEPN5House4TileES7_S7_EENS_4pairIT2_T4_EES9_T3_SA_, symObjAddr: 0x3DF4, symBinAddr: 0x100008184, symSize: 0x44 }
  - { offsetInCU: 0x520E, offset: 0x146EE, size: 0x8, addend: 0x0, symName: __ZNSt3__121__unwrap_and_dispatchB8ue170006INS_10__overloadINS_11__copy_loopINS_17_ClassicAlgPolicyEEENS_14__copy_trivialEEEPN5House4TileES9_S9_Li0EEENS_4pairIT0_T2_EESB_T1_SC_, symObjAddr: 0x3E38, symBinAddr: 0x1000081C8, symSize: 0xB4 }
  - { offsetInCU: 0x52E2, offset: 0x147C2, size: 0x8, addend: 0x0, symName: __ZNSt3__19make_pairB8ue170006IPN5House4TileES3_EENS_4pairINS_18__unwrap_ref_decayIT_E4typeENS5_IT0_E4typeEEEOS6_OS9_, symObjAddr: 0x3F34, symBinAddr: 0x1000082C4, symSize: 0x38 }
  - { offsetInCU: 0x5331, offset: 0x14811, size: 0x8, addend: 0x0, symName: __ZNSt3__114__rewrap_rangeB8ue170006IPN5House4TileES3_S3_EET0_S4_T1_, symObjAddr: 0x3F6C, symBinAddr: 0x1000082FC, symSize: 0x2C }
  - { offsetInCU: 0x5386, offset: 0x14866, size: 0x8, addend: 0x0, symName: __ZNSt3__119__copy_trivial_implB8ue170006IN5House4TileES2_EENS_4pairIPT_PT0_EES5_S5_S7_, symObjAddr: 0x3F98, symBinAddr: 0x100008328, symSize: 0x80 }
  - { offsetInCU: 0x53EE, offset: 0x148CE, size: 0x8, addend: 0x0, symName: __ZNSt3__119__constexpr_memmoveB8ue170006IN5House4TileES2_Li0EEEPT_S4_PT0_NS_15__element_countE, symObjAddr: 0x4018, symBinAddr: 0x1000083A8, symSize: 0x64 }
  - { offsetInCU: 0x545C, offset: 0x1493C, size: 0x8, addend: 0x0, symName: __ZNSt3__19make_pairB8ue170006IRPN5House4TileES3_EENS_4pairINS_18__unwrap_ref_decayIT_E4typeENS6_IT0_E4typeEEEOS7_OSA_, symObjAddr: 0x407C, symBinAddr: 0x10000840C, symSize: 0x38 }
  - { offsetInCU: 0x5C69, offset: 0x15149, size: 0x8, addend: 0x0, symName: __ZNSt3__16vectorIN5House4TileENS_9allocatorIS2_EEE26__swap_out_circular_bufferERNS_14__split_bufferIS2_RS4_EE, symObjAddr: 0x1844, symBinAddr: 0x100006030, symSize: 0x110 }
  - { offsetInCU: 0x7A8D, offset: 0x16F6D, size: 0x8, addend: 0x0, symName: __ZN5House4TileC2Ei, symObjAddr: 0x0, symBinAddr: 0x1000047F8, symSize: 0x20 }
  - { offsetInCU: 0x7AC6, offset: 0x16FA6, size: 0x8, addend: 0x0, symName: __ZN5House4TileC1Ei, symObjAddr: 0x20, symBinAddr: 0x100004818, symSize: 0x34 }
  - { offsetInCU: 0x7AFF, offset: 0x16FDF, size: 0x8, addend: 0x0, symName: __ZN5House4TileC2Ec, symObjAddr: 0x54, symBinAddr: 0x10000484C, symSize: 0x1D8 }
  - { offsetInCU: 0x7B38, offset: 0x17018, size: 0x8, addend: 0x0, symName: __ZNSt3__112basic_stringIcNS_11char_traitsIcEENS_9allocatorIcEEEC1B8ue170006Emc, symObjAddr: 0x270, symBinAddr: 0x100004A68, symSize: 0x3C }
  - { offsetInCU: 0x7B7F, offset: 0x1705F, size: 0x8, addend: 0x0, symName: __ZN5House4TileC1Ec, symObjAddr: 0x2AC, symBinAddr: 0x100004AA4, symSize: 0x34 }
  - { offsetInCU: 0x7BB8, offset: 0x17098, size: 0x8, addend: 0x0, symName: __ZNK5House4Tile9getStatusEv, symObjAddr: 0x2E0, symBinAddr: 0x100004AD8, symSize: 0x18 }
  - { offsetInCU: 0x7BDE, offset: 0x170BE, size: 0x8, addend: 0x0, symName: __ZN5House4Tile9cleanOnceEv, symObjAddr: 0x2F8, symBinAddr: 0x100004AF0, symSize: 0x6C }
  - { offsetInCU: 0x7C05, offset: 0x170E5, size: 0x8, addend: 0x0, symName: __ZNK5House4Tile6isWallEv, symObjAddr: 0x364, symBinAddr: 0x100004B5C, symSize: 0x24 }
  - { offsetInCU: 0x7C2C, offset: 0x1710C, size: 0x8, addend: 0x0, symName: __ZN5House6Matrix17surroundWithWallsEv, symObjAddr: 0x388, symBinAddr: 0x100004B80, symSize: 0x184 }
  - { offsetInCU: 0x7C8C, offset: 0x1716C, size: 0x8, addend: 0x0, symName: __ZN5House6MatrixclEmm, symObjAddr: 0x50C, symBinAddr: 0x100004D04, symSize: 0xD0 }
  - { offsetInCU: 0x7CCF, offset: 0x171AF, size: 0x8, addend: 0x0, symName: __ZN5House6Matrix12ElementProxyaSENS_4TileE, symObjAddr: 0x5DC, symBinAddr: 0x100004DD4, symSize: 0x70 }
  - { offsetInCU: 0x7D04, offset: 0x171E4, size: 0x8, addend: 0x0, symName: __ZN5House6MatrixC2Emm, symObjAddr: 0x64C, symBinAddr: 0x100004E44, symSize: 0xB4 }
  - { offsetInCU: 0x7D4B, offset: 0x1722B, size: 0x8, addend: 0x0, symName: __ZNSt3__16vectorIN5House4TileENS_9allocatorIS2_EEEC1B8ue170006Ev, symObjAddr: 0x700, symBinAddr: 0x100004EF8, symSize: 0x2C }
  - { offsetInCU: 0x7D73, offset: 0x17253, size: 0x8, addend: 0x0, symName: __ZNSt3__16vectorIN5House4TileENS_9allocatorIS2_EEE6resizeEmRKS2_, symObjAddr: 0x72C, symBinAddr: 0x100004F24, symSize: 0x9C }
  - { offsetInCU: 0x7DC7, offset: 0x172A7, size: 0x8, addend: 0x0, symName: __ZNSt3__16vectorIN5House4TileENS_9allocatorIS2_EEED1B8ue170006Ev, symObjAddr: 0x7C8, symBinAddr: 0x100004FC0, symSize: 0x2C }
  - { offsetInCU: 0x7DF0, offset: 0x172D0, size: 0x8, addend: 0x0, symName: __ZN5House6MatrixC1Emm, symObjAddr: 0x7F4, symBinAddr: 0x100004FEC, symSize: 0x3C }
  - { offsetInCU: 0x7E37, offset: 0x17317, size: 0x8, addend: 0x0, symName: __ZN5House6Matrix12ElementProxyC2ERS0_mm, symObjAddr: 0x830, symBinAddr: 0x100005028, symSize: 0x38 }
  - { offsetInCU: 0x7E8C, offset: 0x1736C, size: 0x8, addend: 0x0, symName: __ZN5House6Matrix12ElementProxyC1ERS0_mm, symObjAddr: 0x868, symBinAddr: 0x100005060, symSize: 0x44 }
  - { offsetInCU: 0x7EE1, offset: 0x173C1, size: 0x8, addend: 0x0, symName: __ZNSt3__16vectorIN5House4TileENS_9allocatorIS2_EEEixB8ue170006Em, symObjAddr: 0x8AC, symBinAddr: 0x1000050A4, symSize: 0x24 }
  - { offsetInCU: 0x7F17, offset: 0x173F7, size: 0x8, addend: 0x0, symName: __ZNK5House6Matrix7getDimXEv, symObjAddr: 0x8D0, symBinAddr: 0x1000050C8, symSize: 0x18 }
  - { offsetInCU: 0x7F3E, offset: 0x1741E, size: 0x8, addend: 0x0, symName: __ZN5House6Matrix12ElementProxyaSERKS1_, symObjAddr: 0x8E8, symBinAddr: 0x1000050E0, symSize: 0x50 }
  - { offsetInCU: 0x7F73, offset: 0x17453, size: 0x8, addend: 0x0, symName: __ZNK5House6Matrix12ElementProxycvNS_4TileEEv, symObjAddr: 0x938, symBinAddr: 0x100005130, symSize: 0x60 }
  - { offsetInCU: 0x7F9A, offset: 0x1747A, size: 0x8, addend: 0x0, symName: __ZNK5House6Matrix12ElementProxy9getStatusEv, symObjAddr: 0x998, symBinAddr: 0x100005190, symSize: 0x34 }
  - { offsetInCU: 0x7FC1, offset: 0x174A1, size: 0x8, addend: 0x0, symName: __ZN5House6Matrix12ElementProxy9cleanOnceEv, symObjAddr: 0x9CC, symBinAddr: 0x1000051C4, symSize: 0x5C }
  - { offsetInCU: 0x7FE8, offset: 0x174C8, size: 0x8, addend: 0x0, symName: __ZNK5House6Matrix12ElementProxy6isWallEv, symObjAddr: 0xA28, symBinAddr: 0x100005220, symSize: 0x38 }
  - { offsetInCU: 0x800F, offset: 0x174EF, size: 0x8, addend: 0x0, symName: __ZNSt12out_of_rangeC1B8ue170006EPKc, symObjAddr: 0xA60, symBinAddr: 0x100005258, symSize: 0x34 }
  - { offsetInCU: 0x8046, offset: 0x17526, size: 0x8, addend: 0x0, symName: __ZN5House6MatrixclE6Coords, symObjAddr: 0xA94, symBinAddr: 0x10000528C, symSize: 0x30 }
  - { offsetInCU: 0x807B, offset: 0x1755B, size: 0x8, addend: 0x0, symName: __ZNK5House6MatrixclEmm, symObjAddr: 0xAC4, symBinAddr: 0x1000052BC, symSize: 0x228 }
  - { offsetInCU: 0x80BE, offset: 0x1759E, size: 0x8, addend: 0x0, symName: __ZNSt12out_of_rangeC1B8ue170006ERKNSt3__112basic_stringIcNS0_11char_traitsIcEENS0_9allocatorIcEEEE, symObjAddr: 0xD6C, symBinAddr: 0x100005564, symSize: 0x34 }
  - { offsetInCU: 0x80F5, offset: 0x175D5, size: 0x8, addend: 0x0, symName: __ZNKSt3__16vectorIN5House4TileENS_9allocatorIS2_EEEixB8ue170006Em, symObjAddr: 0xDA0, symBinAddr: 0x100005598, symSize: 0x24 }
  - { offsetInCU: 0x812B, offset: 0x1760B, size: 0x8, addend: 0x0, symName: __ZNK5House6MatrixclE6Coords, symObjAddr: 0xDC4, symBinAddr: 0x1000055BC, symSize: 0x38 }
  - { offsetInCU: 0x8160, offset: 0x17640, size: 0x8, addend: 0x0, symName: __ZN5HouseC2ENS_6MatrixE6Coordsm, symObjAddr: 0xDFC, symBinAddr: 0x1000055F4, symSize: 0x50 }
  - { offsetInCU: 0x81BB, offset: 0x1769B, size: 0x8, addend: 0x0, symName: __ZN5House6MatrixC1ERKS0_, symObjAddr: 0xE4C, symBinAddr: 0x100005644, symSize: 0x34 }
  - { offsetInCU: 0x81EF, offset: 0x176CF, size: 0x8, addend: 0x0, symName: __ZN5HouseC1ENS_6MatrixE6Coordsm, symObjAddr: 0xE80, symBinAddr: 0x100005678, symSize: 0x44 }
  - { offsetInCU: 0x8245, offset: 0x17725, size: 0x8, addend: 0x0, symName: __ZNK5House12getDirtLevelE6Coords, symObjAddr: 0xEC4, symBinAddr: 0x1000056BC, symSize: 0x84 }
  - { offsetInCU: 0x8288, offset: 0x17768, size: 0x8, addend: 0x0, symName: __ZN5House9cleanOnceE6Coords, symObjAddr: 0xF48, symBinAddr: 0x100005740, symSize: 0x68 }
  - { offsetInCU: 0x82BD, offset: 0x1779D, size: 0x8, addend: 0x0, symName: __ZNK5House6isWallE6Coords, symObjAddr: 0xFB0, symBinAddr: 0x1000057A8, symSize: 0x4C }
  - { offsetInCU: 0x82F2, offset: 0x177D2, size: 0x8, addend: 0x0, symName: __ZNK5House6Matrix7getDimYEv, symObjAddr: 0xFFC, symBinAddr: 0x1000057F4, symSize: 0x18 }
  - { offsetInCU: 0x8319, offset: 0x177F9, size: 0x8, addend: 0x0, symName: __ZNK5House23getDockingStationCoordsEv, symObjAddr: 0x1014, symBinAddr: 0x10000580C, symSize: 0x20 }
  - { offsetInCU: 0x8340, offset: 0x17820, size: 0x8, addend: 0x0, symName: __ZNK5House12getTotalDirtEv, symObjAddr: 0x1034, symBinAddr: 0x10000582C, symSize: 0x18 }
  - { offsetInCU: 0x8367, offset: 0x17847, size: 0x8, addend: 0x0, symName: __ZNSt3__112basic_stringIcNS_11char_traitsIcEENS_9allocatorIcEEEC1B8ue170006EOS5_, symObjAddr: 0x104C, symBinAddr: 0x100005844, symSize: 0x34 }
  - { offsetInCU: 0x839F, offset: 0x1787F, size: 0x8, addend: 0x0, symName: __ZNSt3__112basic_stringIcNS_11char_traitsIcEENS_9allocatorIcEEEC2B8ue170006EOS5_, symObjAddr: 0x1080, symBinAddr: 0x100005878, symSize: 0x50 }
  - { offsetInCU: 0x83D7, offset: 0x178B7, size: 0x8, addend: 0x0, symName: __ZNSt3__112basic_stringIcNS_11char_traitsIcEENS_9allocatorIcEEE14__default_initB8ue170006Ev, symObjAddr: 0x10D0, symBinAddr: 0x1000058C8, symSize: 0x40 }
  - { offsetInCU: 0x83FC, offset: 0x178DC, size: 0x8, addend: 0x0, symName: __ZNSt3__117__compressed_pairINS_12basic_stringIcNS_11char_traitsIcEENS_9allocatorIcEEE5__repES5_E5firstB8ue170006Ev, symObjAddr: 0x111C, symBinAddr: 0x100005908, symSize: 0x24 }
  - { offsetInCU: 0x8421, offset: 0x17901, size: 0x8, addend: 0x0, symName: __ZNSt3__122__compressed_pair_elemINS_12basic_stringIcNS_11char_traitsIcEENS_9allocatorIcEEE5__repELi0ELb0EE5__getB8ue170006Ev, symObjAddr: 0x1140, symBinAddr: 0x10000592C, symSize: 0x14 }
  - { offsetInCU: 0x8446, offset: 0x17926, size: 0x8, addend: 0x0, symName: __ZNSt3__112basic_stringIcNS_11char_traitsIcEENS_9allocatorIcEEEC2B8ue170006Emc, symObjAddr: 0x1154, symBinAddr: 0x100005940, symSize: 0x4C }
  - { offsetInCU: 0x8492, offset: 0x17972, size: 0x8, addend: 0x0, symName: __ZNSt3__117__compressed_pairINS_12basic_stringIcNS_11char_traitsIcEENS_9allocatorIcEEE5__repES5_EC1B8ue170006INS_18__default_init_tagESA_EEOT_OT0_, symObjAddr: 0x11A0, symBinAddr: 0x10000598C, symSize: 0x3C }
  - { offsetInCU: 0x84E9, offset: 0x179C9, size: 0x8, addend: 0x0, symName: __ZNSt3__117__compressed_pairINS_12basic_stringIcNS_11char_traitsIcEENS_9allocatorIcEEE5__repES5_EC2B8ue170006INS_18__default_init_tagESA_EEOT_OT0_, symObjAddr: 0x11DC, symBinAddr: 0x1000059C8, symSize: 0x3C }
  - { offsetInCU: 0x8540, offset: 0x17A20, size: 0x8, addend: 0x0, symName: __ZNSt3__122__compressed_pair_elemINS_12basic_stringIcNS_11char_traitsIcEENS_9allocatorIcEEE5__repELi0ELb0EEC2B8ue170006ENS_18__default_init_tagE, symObjAddr: 0x1218, symBinAddr: 0x100005A04, symSize: 0x14 }
  - { offsetInCU: 0x8574, offset: 0x17A54, size: 0x8, addend: 0x0, symName: __ZNSt3__122__compressed_pair_elemINS_9allocatorIcEELi1ELb1EEC2B8ue170006ENS_18__default_init_tagE, symObjAddr: 0x122C, symBinAddr: 0x100005A18, symSize: 0x2C }
  - { offsetInCU: 0x85A8, offset: 0x17A88, size: 0x8, addend: 0x0, symName: __ZNSt3__19allocatorIcEC2B8ue170006Ev, symObjAddr: 0x1258, symBinAddr: 0x100005A44, symSize: 0x2C }
  - { offsetInCU: 0x85D1, offset: 0x17AB1, size: 0x8, addend: 0x0, symName: __ZNSt3__116__non_trivial_ifILb1ENS_9allocatorIcEEEC2B8ue170006Ev, symObjAddr: 0x1284, symBinAddr: 0x100005A70, symSize: 0x14 }
  - { offsetInCU: 0x85FA, offset: 0x17ADA, size: 0x8, addend: 0x0, symName: __ZNSt3__16vectorIN5House4TileENS_9allocatorIS2_EEEC2B8ue170006Ev, symObjAddr: 0x1298, symBinAddr: 0x100005A84, symSize: 0x4C }
  - { offsetInCU: 0x8628, offset: 0x17B08, size: 0x8, addend: 0x0, symName: __ZNSt3__117__compressed_pairIPN5House4TileENS_9allocatorIS2_EEEC1B8ue170006IDnNS_18__default_init_tagEEEOT_OT0_, symObjAddr: 0x12E4, symBinAddr: 0x100005AD0, symSize: 0x3C }
  - { offsetInCU: 0x867F, offset: 0x17B5F, size: 0x8, addend: 0x0, symName: __ZNSt3__117__compressed_pairIPN5House4TileENS_9allocatorIS2_EEEC2B8ue170006IDnNS_18__default_init_tagEEEOT_OT0_, symObjAddr: 0x1320, symBinAddr: 0x100005B0C, symSize: 0x40 }
  - { offsetInCU: 0x86D6, offset: 0x17BB6, size: 0x8, addend: 0x0, symName: __ZNSt3__122__compressed_pair_elemIPN5House4TileELi0ELb0EEC2B8ue170006IDnvEEOT_, symObjAddr: 0x1360, symBinAddr: 0x100005B4C, symSize: 0x1C }
  - { offsetInCU: 0x8717, offset: 0x17BF7, size: 0x8, addend: 0x0, symName: __ZNSt3__122__compressed_pair_elemINS_9allocatorIN5House4TileEEELi1ELb1EEC2B8ue170006ENS_18__default_init_tagE, symObjAddr: 0x137C, symBinAddr: 0x100005B68, symSize: 0x2C }
  - { offsetInCU: 0x874B, offset: 0x17C2B, size: 0x8, addend: 0x0, symName: __ZNSt3__19allocatorIN5House4TileEEC2B8ue170006Ev, symObjAddr: 0x13A8, symBinAddr: 0x100005B94, symSize: 0x2C }
  - { offsetInCU: 0x8774, offset: 0x17C54, size: 0x8, addend: 0x0, symName: __ZNSt3__116__non_trivial_ifILb1ENS_9allocatorIN5House4TileEEEEC2B8ue170006Ev, symObjAddr: 0x13D4, symBinAddr: 0x100005BC0, symSize: 0x14 }
  - { offsetInCU: 0x879D, offset: 0x17C7D, size: 0x8, addend: 0x0, symName: __ZNKSt3__16vectorIN5House4TileENS_9allocatorIS2_EEE4sizeB8ue170006Ev, symObjAddr: 0x13E8, symBinAddr: 0x100005BD4, symSize: 0x28 }
  - { offsetInCU: 0x87C1, offset: 0x17CA1, size: 0x8, addend: 0x0, symName: __ZNSt3__16vectorIN5House4TileENS_9allocatorIS2_EEE8__appendEmRKS2_, symObjAddr: 0x1410, symBinAddr: 0x100005BFC, symSize: 0x114 }
  - { offsetInCU: 0x882B, offset: 0x17D0B, size: 0x8, addend: 0x0, symName: __ZNSt3__16vectorIN5House4TileENS_9allocatorIS2_EEE17__destruct_at_endB8ue170006EPS2_, symObjAddr: 0x1524, symBinAddr: 0x100005D10, symSize: 0x4C }
  - { offsetInCU: 0x886E, offset: 0x17D4E, size: 0x8, addend: 0x0, symName: __ZNSt3__16vectorIN5House4TileENS_9allocatorIS2_EEE9__end_capB8ue170006Ev, symObjAddr: 0x1570, symBinAddr: 0x100005D5C, symSize: 0x28 }
  - { offsetInCU: 0x8892, offset: 0x17D72, size: 0x8, addend: 0x0, symName: __ZNSt3__16vectorIN5House4TileENS_9allocatorIS2_EEE18__construct_at_endEmRKS2_, symObjAddr: 0x1598, symBinAddr: 0x100005D84, symSize: 0xD0 }
  - { offsetInCU: 0x8912, offset: 0x17DF2, size: 0x8, addend: 0x0, symName: __ZNSt3__16vectorIN5House4TileENS_9allocatorIS2_EEE7__allocB8ue170006Ev, symObjAddr: 0x1668, symBinAddr: 0x100005E54, symSize: 0x28 }
  - { offsetInCU: 0x8936, offset: 0x17E16, size: 0x8, addend: 0x0, symName: __ZNKSt3__16vectorIN5House4TileENS_9allocatorIS2_EEE11__recommendB8ue170006Em, symObjAddr: 0x1690, symBinAddr: 0x100005E7C, symSize: 0xB4 }
  - { offsetInCU: 0x898A, offset: 0x17E6A, size: 0x8, addend: 0x0, symName: __ZNSt3__114__split_bufferIN5House4TileERNS_9allocatorIS2_EEEC1EmmS5_, symObjAddr: 0x1744, symBinAddr: 0x100005F30, symSize: 0x44 }
  - { offsetInCU: 0x89DE, offset: 0x17EBE, size: 0x8, addend: 0x0, symName: __ZNSt3__114__split_bufferIN5House4TileERNS_9allocatorIS2_EEE18__construct_at_endEmRKS2_, symObjAddr: 0x1788, symBinAddr: 0x100005F74, symSize: 0xBC }
  - { offsetInCU: 0x8A30, offset: 0x17F10, size: 0x8, addend: 0x0, symName: __ZNSt3__114__split_bufferIN5House4TileERNS_9allocatorIS2_EEED1Ev, symObjAddr: 0x1954, symBinAddr: 0x100006140, symSize: 0x2C }
  - { offsetInCU: 0x8A5B, offset: 0x17F3B, size: 0x8, addend: 0x0, symName: __ZNSt3__117__compressed_pairIPN5House4TileENS_9allocatorIS2_EEE5firstB8ue170006Ev, symObjAddr: 0x1980, symBinAddr: 0x10000616C, symSize: 0x24 }
  - { offsetInCU: 0x8A80, offset: 0x17F60, size: 0x8, addend: 0x0, symName: __ZNSt3__122__compressed_pair_elemIPN5House4TileELi0ELb0EE5__getB8ue170006Ev, symObjAddr: 0x19A4, symBinAddr: 0x100006190, symSize: 0x14 }
  - { offsetInCU: 0x8ABE, offset: 0x17F9E, size: 0x8, addend: 0x0, symName: __ZNSt3__16vectorIN5House4TileENS_9allocatorIS2_EEE21_ConstructTransactionC1B8ue170006ERS5_m, symObjAddr: 0x19B8, symBinAddr: 0x1000061A4, symSize: 0x3C }
  - { offsetInCU: 0x8B0A, offset: 0x17FEA, size: 0x8, addend: 0x0, symName: __ZNSt3__116allocator_traitsINS_9allocatorIN5House4TileEEEE9constructB8ue170006IS3_JRKS3_EvvEEvRS4_PT_DpOT0_, symObjAddr: 0x19F4, symBinAddr: 0x1000061E0, symSize: 0x30 }
  - { offsetInCU: 0x8B5E, offset: 0x1803E, size: 0x8, addend: 0x0, symName: __ZNSt3__16vectorIN5House4TileENS_9allocatorIS2_EEE21_ConstructTransactionD1B8ue170006Ev, symObjAddr: 0x1A38, symBinAddr: 0x100006224, symSize: 0x2C }
  - { offsetInCU: 0x8B87, offset: 0x18067, size: 0x8, addend: 0x0, symName: __ZNSt3__16vectorIN5House4TileENS_9allocatorIS2_EEE21_ConstructTransactionC2B8ue170006ERS5_m, symObjAddr: 0x1A64, symBinAddr: 0x100006250, symSize: 0x44 }
  - { offsetInCU: 0x8BCE, offset: 0x180AE, size: 0x8, addend: 0x0, symName: __ZNSt3__16vectorIN5House4TileENS_9allocatorIS2_EEE21_ConstructTransactionD2B8ue170006Ev, symObjAddr: 0x1AD4, symBinAddr: 0x1000062C0, symSize: 0x20 }
  - { offsetInCU: 0x8BF7, offset: 0x180D7, size: 0x8, addend: 0x0, symName: __ZNSt3__117__compressed_pairIPN5House4TileENS_9allocatorIS2_EEE6secondB8ue170006Ev, symObjAddr: 0x1AF4, symBinAddr: 0x1000062E0, symSize: 0x24 }
  - { offsetInCU: 0x8C1C, offset: 0x180FC, size: 0x8, addend: 0x0, symName: __ZNSt3__122__compressed_pair_elemINS_9allocatorIN5House4TileEEELi1ELb1EE5__getB8ue170006Ev, symObjAddr: 0x1B18, symBinAddr: 0x100006304, symSize: 0x14 }
  - { offsetInCU: 0x8C40, offset: 0x18120, size: 0x8, addend: 0x0, symName: __ZNKSt3__16vectorIN5House4TileENS_9allocatorIS2_EEE8max_sizeEv, symObjAddr: 0x1B2C, symBinAddr: 0x100006318, symSize: 0x60 }
  - { offsetInCU: 0x8C67, offset: 0x18147, size: 0x8, addend: 0x0, symName: __ZNKSt3__16vectorIN5House4TileENS_9allocatorIS2_EEE20__throw_length_errorB8ue170006Ev, symObjAddr: 0x1B8C, symBinAddr: 0x100006378, symSize: 0x1C }
  - { offsetInCU: 0x8C8C, offset: 0x1816C, size: 0x8, addend: 0x0, symName: __ZNKSt3__16vectorIN5House4TileENS_9allocatorIS2_EEE8capacityB8ue170006Ev, symObjAddr: 0x1BA8, symBinAddr: 0x100006394, symSize: 0x40 }
  - { offsetInCU: 0x8CBB, offset: 0x1819B, size: 0x8, addend: 0x0, symName: __ZNSt3__116allocator_traitsINS_9allocatorIN5House4TileEEEE8max_sizeB8ue170006IS4_vvEEmRKS4_, symObjAddr: 0x1C40, symBinAddr: 0x1000063D4, symSize: 0x28 }
  - { offsetInCU: 0x8CE6, offset: 0x181C6, size: 0x8, addend: 0x0, symName: __ZNKSt3__16vectorIN5House4TileENS_9allocatorIS2_EEE7__allocB8ue170006Ev, symObjAddr: 0x1C68, symBinAddr: 0x1000063FC, symSize: 0x28 }
  - { offsetInCU: 0x8D0B, offset: 0x181EB, size: 0x8, addend: 0x0, symName: __ZNKSt3__117__compressed_pairIPN5House4TileENS_9allocatorIS2_EEE6secondB8ue170006Ev, symObjAddr: 0x1D48, symBinAddr: 0x100006424, symSize: 0x24 }
  - { offsetInCU: 0x8D30, offset: 0x18210, size: 0x8, addend: 0x0, symName: __ZNKSt3__122__compressed_pair_elemINS_9allocatorIN5House4TileEEELi1ELb1EE5__getB8ue170006Ev, symObjAddr: 0x1D6C, symBinAddr: 0x100006448, symSize: 0x14 }
  - { offsetInCU: 0x8D55, offset: 0x18235, size: 0x8, addend: 0x0, symName: __ZNKSt3__16vectorIN5House4TileENS_9allocatorIS2_EEE9__end_capB8ue170006Ev, symObjAddr: 0x1E6C, symBinAddr: 0x10000645C, symSize: 0x28 }
  - { offsetInCU: 0x8D7A, offset: 0x1825A, size: 0x8, addend: 0x0, symName: __ZNKSt3__117__compressed_pairIPN5House4TileENS_9allocatorIS2_EEE5firstB8ue170006Ev, symObjAddr: 0x1E94, symBinAddr: 0x100006484, symSize: 0x24 }
  - { offsetInCU: 0x8D9F, offset: 0x1827F, size: 0x8, addend: 0x0, symName: __ZNKSt3__122__compressed_pair_elemIPN5House4TileELi0ELb0EE5__getB8ue170006Ev, symObjAddr: 0x1EB8, symBinAddr: 0x1000064A8, symSize: 0x14 }
  - { offsetInCU: 0x8DC4, offset: 0x182A4, size: 0x8, addend: 0x0, symName: __ZNSt3__114__split_bufferIN5House4TileERNS_9allocatorIS2_EEEC2EmmS5_, symObjAddr: 0x1F20, symBinAddr: 0x1000064BC, symSize: 0xD4 }
  - { offsetInCU: 0x8E36, offset: 0x18316, size: 0x8, addend: 0x0, symName: __ZNSt3__117__compressed_pairIPN5House4TileERNS_9allocatorIS2_EEEC1B8ue170006IDnS6_EEOT_OT0_, symObjAddr: 0x1FF4, symBinAddr: 0x100006590, symSize: 0x3C }
  - { offsetInCU: 0x8E8D, offset: 0x1836D, size: 0x8, addend: 0x0, symName: __ZNSt3__114__split_bufferIN5House4TileERNS_9allocatorIS2_EEE7__allocB8ue170006Ev, symObjAddr: 0x2070, symBinAddr: 0x10000660C, symSize: 0x28 }
  - { offsetInCU: 0x8EB2, offset: 0x18392, size: 0x8, addend: 0x0, symName: __ZNSt3__114__split_bufferIN5House4TileERNS_9allocatorIS2_EEE9__end_capB8ue170006Ev, symObjAddr: 0x2098, symBinAddr: 0x100006634, symSize: 0x28 }
  - { offsetInCU: 0x8ED7, offset: 0x183B7, size: 0x8, addend: 0x0, symName: __ZNSt3__117__compressed_pairIPN5House4TileERNS_9allocatorIS2_EEEC2B8ue170006IDnS6_EEOT_OT0_, symObjAddr: 0x20C0, symBinAddr: 0x10000665C, symSize: 0x48 }
  - { offsetInCU: 0x8F2E, offset: 0x1840E, size: 0x8, addend: 0x0, symName: __ZNSt3__122__compressed_pair_elemIRNS_9allocatorIN5House4TileEEELi1ELb0EEC2B8ue170006IS5_vEEOT_, symObjAddr: 0x2108, symBinAddr: 0x1000066A4, symSize: 0x20 }
  - { offsetInCU: 0x8F6F, offset: 0x1844F, size: 0x8, addend: 0x0, symName: __ZNSt3__19allocatorIN5House4TileEE8allocateB8ue170006Em, symObjAddr: 0x2128, symBinAddr: 0x1000066C4, symSize: 0x58 }
  - { offsetInCU: 0x8FA2, offset: 0x18482, size: 0x8, addend: 0x0, symName: __ZNSt3__117__compressed_pairIPN5House4TileERNS_9allocatorIS2_EEE6secondB8ue170006Ev, symObjAddr: 0x2284, symBinAddr: 0x10000671C, symSize: 0x28 }
  - { offsetInCU: 0x8FC7, offset: 0x184A7, size: 0x8, addend: 0x0, symName: __ZNSt3__122__compressed_pair_elemIRNS_9allocatorIN5House4TileEEELi1ELb0EE5__getB8ue170006Ev, symObjAddr: 0x22AC, symBinAddr: 0x100006744, symSize: 0x18 }
  - { offsetInCU: 0x8FEC, offset: 0x184CC, size: 0x8, addend: 0x0, symName: __ZNSt3__117__compressed_pairIPN5House4TileERNS_9allocatorIS2_EEE5firstB8ue170006Ev, symObjAddr: 0x22C4, symBinAddr: 0x10000675C, symSize: 0x24 }
  - { offsetInCU: 0x901B, offset: 0x184FB, size: 0x8, addend: 0x0, symName: __ZNSt3__114__split_bufferIN5House4TileERNS_9allocatorIS2_EEE21_ConstructTransactionC1B8ue170006EPPS2_m, symObjAddr: 0x22E8, symBinAddr: 0x100006780, symSize: 0x3C }
  - { offsetInCU: 0x9060, offset: 0x18540, size: 0x8, addend: 0x0, symName: __ZNSt3__114__split_bufferIN5House4TileERNS_9allocatorIS2_EEE21_ConstructTransactionD1B8ue170006Ev, symObjAddr: 0x2324, symBinAddr: 0x1000067BC, symSize: 0x2C }
  - { offsetInCU: 0x9089, offset: 0x18569, size: 0x8, addend: 0x0, symName: __ZNSt3__114__split_bufferIN5House4TileERNS_9allocatorIS2_EEE21_ConstructTransactionC2B8ue170006EPPS2_m, symObjAddr: 0x2350, symBinAddr: 0x1000067E8, symSize: 0x44 }
  - { offsetInCU: 0x90CE, offset: 0x185AE, size: 0x8, addend: 0x0, symName: __ZNSt3__114__split_bufferIN5House4TileERNS_9allocatorIS2_EEE21_ConstructTransactionD2B8ue170006Ev, symObjAddr: 0x2394, symBinAddr: 0x10000682C, symSize: 0x20 }
  - { offsetInCU: 0x90F7, offset: 0x185D7, size: 0x8, addend: 0x0, symName: __ZNKSt3__16vectorIN5House4TileENS_9allocatorIS2_EEE17__annotate_deleteB8ue170006Ev, symObjAddr: 0x23B4, symBinAddr: 0x10000684C, symSize: 0xB8 }
  - { offsetInCU: 0x911C, offset: 0x185FC, size: 0x8, addend: 0x0, symName: __ZNSt3__116reverse_iteratorIPN5House4TileEEC1B8ue170006ES3_, symObjAddr: 0x24E4, symBinAddr: 0x10000697C, symSize: 0x34 }
  - { offsetInCU: 0x9153, offset: 0x18633, size: 0x8, addend: 0x0, symName: __ZNKSt3__116reverse_iteratorIPN5House4TileEE4baseB8ue170006Ev, symObjAddr: 0x2518, symBinAddr: 0x1000069B0, symSize: 0x18 }
  - { offsetInCU: 0x9178, offset: 0x18658, size: 0x8, addend: 0x0, symName: __ZNKSt3__16vectorIN5House4TileENS_9allocatorIS2_EEE14__annotate_newB8ue170006Em, symObjAddr: 0x256C, symBinAddr: 0x100006A04, symSize: 0xAC }
  - { offsetInCU: 0x91AC, offset: 0x1868C, size: 0x8, addend: 0x0, symName: __ZNKSt3__16vectorIN5House4TileENS_9allocatorIS2_EEE31__annotate_contiguous_containerB8ue170006EPKvS7_S7_S7_, symObjAddr: 0x2618, symBinAddr: 0x100006AB0, symSize: 0x20 }
  - { offsetInCU: 0x91FD, offset: 0x186DD, size: 0x8, addend: 0x0, symName: __ZNKSt3__16vectorIN5House4TileENS_9allocatorIS2_EEE4dataB8ue170006Ev, symObjAddr: 0x2638, symBinAddr: 0x100006AD0, symSize: 0x28 }
  - { offsetInCU: 0x9245, offset: 0x18725, size: 0x8, addend: 0x0, symName: __ZNKSt3__111__move_loopINS_17_ClassicAlgPolicyEEclB8ue170006INS_16reverse_iteratorIPN5House4TileEEES8_S8_EENS_4pairIT_T1_EESA_T0_SB_, symObjAddr: 0x2918, symBinAddr: 0x100006DB0, symSize: 0xA0 }
  - { offsetInCU: 0x92AF, offset: 0x1878F, size: 0x8, addend: 0x0, symName: __ZNSt3__119__unwrap_range_implINS_16reverse_iteratorIPN5House4TileEEES5_E8__unwrapB8ue170006ES5_S5_, symObjAddr: 0x2B04, symBinAddr: 0x100006F9C, symSize: 0x84 }
  - { offsetInCU: 0x92E5, offset: 0x187C5, size: 0x8, addend: 0x0, symName: __ZNSt3__14pairINS_16reverse_iteratorIPN5House4TileEEES5_EC1B8ue170006IS5_S5_LPv0EEEOT_OT0_, symObjAddr: 0x2B88, symBinAddr: 0x100007020, symSize: 0x3C }
  - { offsetInCU: 0x9342, offset: 0x18822, size: 0x8, addend: 0x0, symName: __ZNSt3__14pairINS_16reverse_iteratorIPN5House4TileEEES5_EC2B8ue170006IS5_S5_LPv0EEEOT_OT0_, symObjAddr: 0x2BC4, symBinAddr: 0x10000705C, symSize: 0x34 }
  - { offsetInCU: 0x93A4, offset: 0x18884, size: 0x8, addend: 0x0, symName: __ZNSt3__18_IterOpsINS_17_ClassicAlgPolicyEE11__iter_moveB8ue170006IRNS_16reverse_iteratorIPN5House4TileEEEEENS_9enable_ifIXsr12is_referenceIDTdeclsr3stdE7declvalIRT_EEEEE5valueEDTclsr3stdE4movedeclsr3stdE7declvalISC_EEEEE4typeEOSB_, symObjAddr: 0x2C40, symBinAddr: 0x1000070D8, symSize: 0x28 }
  - { offsetInCU: 0x93D0, offset: 0x188B0, size: 0x8, addend: 0x0, symName: __ZNKSt3__116reverse_iteratorIPN5House4TileEEdeB8ue170006Ev, symObjAddr: 0x2C68, symBinAddr: 0x100007100, symSize: 0x28 }
  - { offsetInCU: 0x9403, offset: 0x188E3, size: 0x8, addend: 0x0, symName: __ZNSt3__116reverse_iteratorIPN5House4TileEEppB8ue170006Ev, symObjAddr: 0x2C90, symBinAddr: 0x100007128, symSize: 0x20 }
  - { offsetInCU: 0x9428, offset: 0x18908, size: 0x8, addend: 0x0, symName: __ZNSt3__18_IterOpsINS_17_ClassicAlgPolicyEE25__validate_iter_referenceB8ue170006IRNS_16reverse_iteratorIPN5House4TileEEEEEvv, symObjAddr: 0x2CB0, symBinAddr: 0x100007148, symSize: 0x4 }
  - { offsetInCU: 0x9446, offset: 0x18926, size: 0x8, addend: 0x0, symName: __ZNSt3__118__unwrap_iter_implINS_16reverse_iteratorIPN5House4TileEEELb0EE8__unwrapB8ue170006ES5_, symObjAddr: 0x2CB4, symBinAddr: 0x10000714C, symSize: 0x24 }
  - { offsetInCU: 0x9469, offset: 0x18949, size: 0x8, addend: 0x0, symName: __ZNSt3__119__unwrap_range_implINS_16reverse_iteratorIPN5House4TileEEES5_E8__rewrapB8ue170006ES5_S5_, symObjAddr: 0x2CD8, symBinAddr: 0x100007170, symSize: 0x5C }
  - { offsetInCU: 0x949A, offset: 0x1897A, size: 0x8, addend: 0x0, symName: __ZNSt3__118__unwrap_iter_implINS_16reverse_iteratorIPN5House4TileEEELb0EE8__rewrapB8ue170006ES5_S5_, symObjAddr: 0x2D34, symBinAddr: 0x1000071CC, symSize: 0x2C }
  - { offsetInCU: 0x94C8, offset: 0x189A8, size: 0x8, addend: 0x0, symName: __ZNSt3__116reverse_iteratorIPN5House4TileEEC2B8ue170006ES3_, symObjAddr: 0x2D60, symBinAddr: 0x1000071F8, symSize: 0x28 }
  - { offsetInCU: 0x94FF, offset: 0x189DF, size: 0x8, addend: 0x0, symName: __ZNSt3__114__split_bufferIN5House4TileERNS_9allocatorIS2_EEED2Ev, symObjAddr: 0x2D88, symBinAddr: 0x100007220, symSize: 0x8C }
  - { offsetInCU: 0x952A, offset: 0x18A0A, size: 0x8, addend: 0x0, symName: __ZNSt3__114__split_bufferIN5House4TileERNS_9allocatorIS2_EEE5clearB8ue170006Ev, symObjAddr: 0x2E14, symBinAddr: 0x1000072AC, symSize: 0x28 }
  - { offsetInCU: 0x954F, offset: 0x18A2F, size: 0x8, addend: 0x0, symName: __ZNSt3__116allocator_traitsINS_9allocatorIN5House4TileEEEE10deallocateB8ue170006ERS4_PS3_m, symObjAddr: 0x2E3C, symBinAddr: 0x1000072D4, symSize: 0x34 }
  - { offsetInCU: 0x9591, offset: 0x18A71, size: 0x8, addend: 0x0, symName: __ZNKSt3__114__split_bufferIN5House4TileERNS_9allocatorIS2_EEE8capacityB8ue170006Ev, symObjAddr: 0x2E70, symBinAddr: 0x100007308, symSize: 0x40 }
  - { offsetInCU: 0x95B6, offset: 0x18A96, size: 0x8, addend: 0x0, symName: __ZNSt3__114__split_bufferIN5House4TileERNS_9allocatorIS2_EEE17__destruct_at_endB8ue170006EPS2_, symObjAddr: 0x2EB0, symBinAddr: 0x100007348, symSize: 0x2C }
  - { offsetInCU: 0x95E8, offset: 0x18AC8, size: 0x8, addend: 0x0, symName: __ZNSt3__114__split_bufferIN5House4TileERNS_9allocatorIS2_EEE17__destruct_at_endB8ue170006EPS2_NS_17integral_constantIbLb0EEE, symObjAddr: 0x2EDC, symBinAddr: 0x100007374, symSize: 0x80 }
  - { offsetInCU: 0x9628, offset: 0x18B08, size: 0x8, addend: 0x0, symName: __ZNSt3__116allocator_traitsINS_9allocatorIN5House4TileEEEE7destroyB8ue170006IS3_vvEEvRS4_PT_, symObjAddr: 0x2F5C, symBinAddr: 0x1000073F4, symSize: 0x28 }
  - { offsetInCU: 0x9662, offset: 0x18B42, size: 0x8, addend: 0x0, symName: __ZNSt3__19allocatorIN5House4TileEE10deallocateB8ue170006EPS2_m, symObjAddr: 0x2FB8, symBinAddr: 0x100007450, symSize: 0x40 }
  - { offsetInCU: 0x96A3, offset: 0x18B83, size: 0x8, addend: 0x0, symName: __ZNKSt3__114__split_bufferIN5House4TileERNS_9allocatorIS2_EEE9__end_capB8ue170006Ev, symObjAddr: 0x3100, symBinAddr: 0x100007490, symSize: 0x28 }
  - { offsetInCU: 0x96C8, offset: 0x18BA8, size: 0x8, addend: 0x0, symName: __ZNKSt3__117__compressed_pairIPN5House4TileERNS_9allocatorIS2_EEE5firstB8ue170006Ev, symObjAddr: 0x3128, symBinAddr: 0x1000074B8, symSize: 0x24 }
  - { offsetInCU: 0x96ED, offset: 0x18BCD, size: 0x8, addend: 0x0, symName: __ZNSt3__16vectorIN5House4TileENS_9allocatorIS2_EEE22__base_destruct_at_endB8ue170006EPS2_, symObjAddr: 0x314C, symBinAddr: 0x1000074DC, symSize: 0x8C }
  - { offsetInCU: 0x9730, offset: 0x18C10, size: 0x8, addend: 0x0, symName: __ZNKSt3__16vectorIN5House4TileENS_9allocatorIS2_EEE17__annotate_shrinkB8ue170006Em, symObjAddr: 0x31D8, symBinAddr: 0x100007568, symSize: 0xB4 }
  - { offsetInCU: 0x9764, offset: 0x18C44, size: 0x8, addend: 0x0, symName: __ZNSt3__16vectorIN5House4TileENS_9allocatorIS2_EEED2B8ue170006Ev, symObjAddr: 0x328C, symBinAddr: 0x10000761C, symSize: 0x44 }
  - { offsetInCU: 0x978D, offset: 0x18C6D, size: 0x8, addend: 0x0, symName: __ZNSt3__16vectorIN5House4TileENS_9allocatorIS2_EEE16__destroy_vectorC1B8ue170006ERS5_, symObjAddr: 0x32D0, symBinAddr: 0x100007660, symSize: 0x34 }
  - { offsetInCU: 0x97C5, offset: 0x18CA5, size: 0x8, addend: 0x0, symName: __ZNSt3__16vectorIN5House4TileENS_9allocatorIS2_EEE16__destroy_vectorclB8ue170006Ev, symObjAddr: 0x3304, symBinAddr: 0x100007694, symSize: 0x90 }
  - { offsetInCU: 0x97EA, offset: 0x18CCA, size: 0x8, addend: 0x0, symName: __ZNSt3__16vectorIN5House4TileENS_9allocatorIS2_EEE16__destroy_vectorC2B8ue170006ERS5_, symObjAddr: 0x3394, symBinAddr: 0x100007724, symSize: 0x20 }
  - { offsetInCU: 0x9822, offset: 0x18D02, size: 0x8, addend: 0x0, symName: __ZNSt3__16vectorIN5House4TileENS_9allocatorIS2_EEE7__clearB8ue170006Ev, symObjAddr: 0x33B4, symBinAddr: 0x100007744, symSize: 0x28 }
  - { offsetInCU: 0x9847, offset: 0x18D27, size: 0x8, addend: 0x0, symName: __ZNSt12out_of_rangeC2B8ue170006EPKc, symObjAddr: 0x33DC, symBinAddr: 0x10000776C, symSize: 0x4C }
  - { offsetInCU: 0x987E, offset: 0x18D5E, size: 0x8, addend: 0x0, symName: __ZNSt3__112basic_stringIcNS_11char_traitsIcEENS_9allocatorIcEEE6appendB8ue170006ERKS5_, symObjAddr: 0x3428, symBinAddr: 0x1000077B8, symSize: 0x4C }
  - { offsetInCU: 0x98B2, offset: 0x18D92, size: 0x8, addend: 0x0, symName: __ZNKSt3__112basic_stringIcNS_11char_traitsIcEENS_9allocatorIcEEE4dataB8ue170006Ev, symObjAddr: 0x3474, symBinAddr: 0x100007804, symSize: 0x28 }
  - { offsetInCU: 0x98D7, offset: 0x18DB7, size: 0x8, addend: 0x0, symName: __ZNKSt3__112basic_stringIcNS_11char_traitsIcEENS_9allocatorIcEEE4sizeB8ue170006Ev, symObjAddr: 0x349C, symBinAddr: 0x10000782C, symSize: 0x54 }
  - { offsetInCU: 0x98FC, offset: 0x18DDC, size: 0x8, addend: 0x0, symName: __ZNKSt3__112basic_stringIcNS_11char_traitsIcEENS_9allocatorIcEEE13__get_pointerB8ue170006Ev, symObjAddr: 0x3504, symBinAddr: 0x100007894, symSize: 0x54 }
  - { offsetInCU: 0x9921, offset: 0x18E01, size: 0x8, addend: 0x0, symName: __ZNKSt3__112basic_stringIcNS_11char_traitsIcEENS_9allocatorIcEEE9__is_longB8ue170006Ev, symObjAddr: 0x3558, symBinAddr: 0x1000078E8, symSize: 0x38 }
  - { offsetInCU: 0x9946, offset: 0x18E26, size: 0x8, addend: 0x0, symName: __ZNKSt3__112basic_stringIcNS_11char_traitsIcEENS_9allocatorIcEEE18__get_long_pointerB8ue170006Ev, symObjAddr: 0x3590, symBinAddr: 0x100007920, symSize: 0x28 }
  - { offsetInCU: 0x996B, offset: 0x18E4B, size: 0x8, addend: 0x0, symName: __ZNKSt3__112basic_stringIcNS_11char_traitsIcEENS_9allocatorIcEEE19__get_short_pointerB8ue170006Ev, symObjAddr: 0x35B8, symBinAddr: 0x100007948, symSize: 0x28 }
  - { offsetInCU: 0x9990, offset: 0x18E70, size: 0x8, addend: 0x0, symName: __ZNKSt3__117__compressed_pairINS_12basic_stringIcNS_11char_traitsIcEENS_9allocatorIcEEE5__repES5_E5firstB8ue170006Ev, symObjAddr: 0x35E0, symBinAddr: 0x100007970, symSize: 0x24 }
  - { offsetInCU: 0x99B5, offset: 0x18E95, size: 0x8, addend: 0x0, symName: __ZNKSt3__122__compressed_pair_elemINS_12basic_stringIcNS_11char_traitsIcEENS_9allocatorIcEEE5__repELi0ELb0EE5__getB8ue170006Ev, symObjAddr: 0x3604, symBinAddr: 0x100007994, symSize: 0x14 }
  - { offsetInCU: 0x99DA, offset: 0x18EBA, size: 0x8, addend: 0x0, symName: __ZNSt3__114pointer_traitsIPKcE10pointer_toB8ue170006ERS1_, symObjAddr: 0x3618, symBinAddr: 0x1000079A8, symSize: 0x14 }
  - { offsetInCU: 0x99FD, offset: 0x18EDD, size: 0x8, addend: 0x0, symName: __ZNKSt3__112basic_stringIcNS_11char_traitsIcEENS_9allocatorIcEEE15__get_long_sizeB8ue170006Ev, symObjAddr: 0x362C, symBinAddr: 0x1000079BC, symSize: 0x28 }
  - { offsetInCU: 0x9A22, offset: 0x18F02, size: 0x8, addend: 0x0, symName: __ZNKSt3__112basic_stringIcNS_11char_traitsIcEENS_9allocatorIcEEE16__get_short_sizeB8ue170006Ev, symObjAddr: 0x3654, symBinAddr: 0x1000079E4, symSize: 0x34 }
  - { offsetInCU: 0x9A47, offset: 0x18F27, size: 0x8, addend: 0x0, symName: __ZNSt12out_of_rangeC2B8ue170006ERKNSt3__112basic_stringIcNS0_11char_traitsIcEENS0_9allocatorIcEEEE, symObjAddr: 0x3688, symBinAddr: 0x100007A18, symSize: 0x4C }
  - { offsetInCU: 0x9A7E, offset: 0x18F5E, size: 0x8, addend: 0x0, symName: __ZN5House6MatrixC2ERKS0_, symObjAddr: 0x36D4, symBinAddr: 0x100007A64, symSize: 0x40 }
  - { offsetInCU: 0x9AB2, offset: 0x18F92, size: 0x8, addend: 0x0, symName: __ZNSt3__16vectorIN5House4TileENS_9allocatorIS2_EEEC1ERKS5_, symObjAddr: 0x3714, symBinAddr: 0x100007AA4, symSize: 0x34 }
  - { offsetInCU: 0x9AEC, offset: 0x18FCC, size: 0x8, addend: 0x0, symName: __ZNSt3__16vectorIN5House4TileENS_9allocatorIS2_EEEC2ERKS5_, symObjAddr: 0x3748, symBinAddr: 0x100007AD8, symSize: 0x94 }
  - { offsetInCU: 0x9B26, offset: 0x19006, size: 0x8, addend: 0x0, symName: __ZNSt3__116allocator_traitsINS_9allocatorIN5House4TileEEEE37select_on_container_copy_constructionB8ue170006IS4_vvEES4_RKS4_, symObjAddr: 0x37DC, symBinAddr: 0x100007B6C, symSize: 0x10 }
  - { offsetInCU: 0x9B5A, offset: 0x1903A, size: 0x8, addend: 0x0, symName: __ZNSt3__117__compressed_pairIPN5House4TileENS_9allocatorIS2_EEEC1B8ue170006IDnS5_EEOT_OT0_, symObjAddr: 0x37EC, symBinAddr: 0x100007B7C, symSize: 0x3C }
  - { offsetInCU: 0x9BB1, offset: 0x19091, size: 0x8, addend: 0x0, symName: __ZNSt3__16vectorIN5House4TileENS_9allocatorIS2_EEE16__init_with_sizeB8ue170006IPS2_S7_EEvT_T0_m, symObjAddr: 0x3828, symBinAddr: 0x100007BB8, symSize: 0xB8 }
  - { offsetInCU: 0x9C24, offset: 0x19104, size: 0x8, addend: 0x0, symName: __ZNSt3__117__compressed_pairIPN5House4TileENS_9allocatorIS2_EEEC2B8ue170006IDnS5_EEOT_OT0_, symObjAddr: 0x38E0, symBinAddr: 0x100007C70, symSize: 0x44 }
  - { offsetInCU: 0x9C7B, offset: 0x1915B, size: 0x8, addend: 0x0, symName: __ZNSt3__122__compressed_pair_elemINS_9allocatorIN5House4TileEEELi1ELb1EEC2B8ue170006IS4_vEEOT_, symObjAddr: 0x3924, symBinAddr: 0x100007CB4, symSize: 0x18 }
  - { offsetInCU: 0x9CBC, offset: 0x1919C, size: 0x8, addend: 0x0, symName: __ZNSt3__16vectorIN5House4TileENS_9allocatorIS2_EEE11__vallocateB8ue170006Em, symObjAddr: 0x397C, symBinAddr: 0x100007D0C, symSize: 0xAC }
  - { offsetInCU: 0x9CFE, offset: 0x191DE, size: 0x8, addend: 0x0, symName: __ZNSt3__16vectorIN5House4TileENS_9allocatorIS2_EEE18__construct_at_endIPS2_S7_EEvT_T0_m, symObjAddr: 0x3A28, symBinAddr: 0x100007DB8, symSize: 0x8C }
  - { offsetInCU: 0x9D73, offset: 0x19253, size: 0x8, addend: 0x0, symName: __ZNSt3__128__exception_guard_exceptionsINS_6vectorIN5House4TileENS_9allocatorIS3_EEE16__destroy_vectorEE10__completeB8ue170006Ev, symObjAddr: 0x3AB4, symBinAddr: 0x100007E44, symSize: 0x1C }
  - { offsetInCU: 0x9D98, offset: 0x19278, size: 0x8, addend: 0x0, symName: __ZNSt3__128__exception_guard_exceptionsINS_6vectorIN5House4TileENS_9allocatorIS3_EEE16__destroy_vectorEED1B8ue170006Ev, symObjAddr: 0x3AD0, symBinAddr: 0x100007E60, symSize: 0x2C }
  - { offsetInCU: 0x9DC1, offset: 0x192A1, size: 0x8, addend: 0x0, symName: __ZNSt3__128__exception_guard_exceptionsINS_6vectorIN5House4TileENS_9allocatorIS3_EEE16__destroy_vectorEEC1B8ue170006ES7_, symObjAddr: 0x3AFC, symBinAddr: 0x100007E8C, symSize: 0x34 }
  - { offsetInCU: 0x9DF8, offset: 0x192D8, size: 0x8, addend: 0x0, symName: __ZNSt3__128__exception_guard_exceptionsINS_6vectorIN5House4TileENS_9allocatorIS3_EEE16__destroy_vectorEEC2B8ue170006ES7_, symObjAddr: 0x3B30, symBinAddr: 0x100007EC0, symSize: 0x24 }
  - { offsetInCU: 0x9E48, offset: 0x19328, size: 0x8, addend: 0x0, symName: __ZNSt3__119__unwrap_range_implIPN5House4TileES3_E8__unwrapB8ue170006ES3_S3_, symObjAddr: 0x3CA8, symBinAddr: 0x100008038, symSize: 0x58 }
  - { offsetInCU: 0x9E7E, offset: 0x1935E, size: 0x8, addend: 0x0, symName: __ZNSt3__14pairIPN5House4TileES3_EC1B8ue170006IS3_S3_LPv0EEEOT_OT0_, symObjAddr: 0x3D00, symBinAddr: 0x100008090, symSize: 0x3C }
  - { offsetInCU: 0x9EDB, offset: 0x193BB, size: 0x8, addend: 0x0, symName: __ZNSt3__14pairIPN5House4TileES3_EC2B8ue170006IS3_S3_LPv0EEEOT_OT0_, symObjAddr: 0x3D3C, symBinAddr: 0x1000080CC, symSize: 0x34 }
  - { offsetInCU: 0x9F42, offset: 0x19422, size: 0x8, addend: 0x0, symName: __ZNKSt3__114__copy_trivialclB8ue170006IN5House4TileES3_Li0EEENS_4pairIPT_PT0_EES6_S6_S8_, symObjAddr: 0x3EEC, symBinAddr: 0x10000827C, symSize: 0x48 }
  - { offsetInCU: 0x9FA9, offset: 0x19489, size: 0x8, addend: 0x0, symName: __ZNSt3__14pairIPN5House4TileES3_EC1B8ue170006IRS3_S3_LPv0EEEOT_OT0_, symObjAddr: 0x40B4, symBinAddr: 0x100008444, symSize: 0x3C }
  - { offsetInCU: 0xA006, offset: 0x194E6, size: 0x8, addend: 0x0, symName: __ZNSt3__14pairIPN5House4TileES3_EC2B8ue170006IRS3_S3_LPv0EEEOT_OT0_, symObjAddr: 0x40F0, symBinAddr: 0x100008480, symSize: 0x34 }
  - { offsetInCU: 0xA063, offset: 0x19543, size: 0x8, addend: 0x0, symName: __ZNSt3__119__unwrap_range_implIPN5House4TileES3_E8__rewrapB8ue170006ES3_S3_, symObjAddr: 0x4124, symBinAddr: 0x1000084B4, symSize: 0x2C }
  - { offsetInCU: 0xA094, offset: 0x19574, size: 0x8, addend: 0x0, symName: __ZNSt3__118__unwrap_iter_implIPN5House4TileELb1EE8__unwrapB8ue170006ES3_, symObjAddr: 0x4150, symBinAddr: 0x1000084E0, symSize: 0x24 }
  - { offsetInCU: 0xA0B7, offset: 0x19597, size: 0x8, addend: 0x0, symName: __ZNSt3__118__unwrap_iter_implIPN5House4TileELb1EE8__rewrapB8ue170006ES3_S3_, symObjAddr: 0x4174, symBinAddr: 0x100008504, symSize: 0x50 }
  - { offsetInCU: 0xA0E8, offset: 0x195C8, size: 0x8, addend: 0x0, symName: __ZNSt3__128__exception_guard_exceptionsINS_6vectorIN5House4TileENS_9allocatorIS3_EEE16__destroy_vectorEED2B8ue170006Ev, symObjAddr: 0x41C4, symBinAddr: 0x100008554, symSize: 0x48 }
  - { offsetInCU: 0x3F, offset: 0x196E3, size: 0x8, addend: 0x0, symName: __ZL10DIRECTIONS, symObjAddr: 0x31508, symBinAddr: 0x100014040, symSize: 0x0 }
  - { offsetInCU: 0x42C2, offset: 0x1D966, size: 0x8, addend: 0x0, symName: __ZNSt3__124__put_character_sequenceB8ue170006IcNS_11char_traitsIcEEEERNS_13basic_ostreamIT_T0_EES7_PKS4_m, symObjAddr: 0x2758, symBinAddr: 0x10000A918, symSize: 0x1EC }
  - { offsetInCU: 0x6658, offset: 0x1FCFC, size: 0x8, addend: 0x0, symName: __ZNSt3__1lsB8ue170006INS_11char_traitsIcEEEERNS_13basic_ostreamIcT_EES6_PKc, symObjAddr: 0x408, symBinAddr: 0x100008A30, symSize: 0x48 }
  - { offsetInCU: 0x669E, offset: 0x1FD42, size: 0x8, addend: 0x0, symName: __ZNSt3__14endlB8ue170006IcNS_11char_traitsIcEEEERNS_13basic_ostreamIT_T0_EES7_, symObjAddr: 0x47C, symBinAddr: 0x100008AA4, symSize: 0x58 }
  - { offsetInCU: 0x66DE, offset: 0x1FD82, size: 0x8, addend: 0x0, symName: __ZNSt3__13minB8ue170006IfEERKT_S3_S3_, symObjAddr: 0x4D4, symBinAddr: 0x100008AFC, symSize: 0x2C }
  - { offsetInCU: 0x6721, offset: 0x1FDC5, size: 0x8, addend: 0x0, symName: __ZNSt3__112__to_addressB8ue170006I4StepEEPT_S3_, symObjAddr: 0xB94, symBinAddr: 0x1000091B0, symSize: 0x14 }
  - { offsetInCU: 0x6756, offset: 0x1FDFA, size: 0x8, addend: 0x0, symName: __ZNSt3__110destroy_atB8ue170006I4StepLi0EEEvPT_, symObjAddr: 0xBA8, symBinAddr: 0x1000091C4, symSize: 0x24 }
  - { offsetInCU: 0x678D, offset: 0x1FE31, size: 0x8, addend: 0x0, symName: __ZNSt3__112__destroy_atB8ue170006I4StepLi0EEEvPT_, symObjAddr: 0xBCC, symBinAddr: 0x1000091E8, symSize: 0x10 }
  - { offsetInCU: 0x67E9, offset: 0x1FE8D, size: 0x8, addend: 0x0, symName: __ZNSt3__112construct_atB8ue170006I4StepJRKS1_EPS1_EEPT_S6_DpOT0_, symObjAddr: 0x10FC, symBinAddr: 0x1000095F0, symSize: 0x34 }
  - { offsetInCU: 0x68CF, offset: 0x1FF73, size: 0x8, addend: 0x0, symName: __ZNSt3__119__allocate_at_leastB8ue170006INS_9allocatorI4StepEEEENS_19__allocation_resultINS_16allocator_traitsIT_E7pointerEEERS6_m, symObjAddr: 0x17F4, symBinAddr: 0x100009A98, symSize: 0x40 }
  - { offsetInCU: 0x6912, offset: 0x1FFB6, size: 0x8, addend: 0x0, symName: __ZNSt3__142__uninitialized_allocator_move_if_noexceptB8ue170006INS_9allocatorI4StepEENS_16reverse_iteratorIPS2_EES6_S2_vEET1_RT_T0_SA_S7_, symObjAddr: 0x1A90, symBinAddr: 0x100009C50, symSize: 0x78 }
  - { offsetInCU: 0x698F, offset: 0x20033, size: 0x8, addend: 0x0, symName: __ZNSt3__14swapB8ue170006IP4StepEENS_9enable_ifIXaasr21is_move_constructibleIT_EE5valuesr18is_move_assignableIS4_EE5valueEvE4typeERS4_S7_, symObjAddr: 0x1B54, symBinAddr: 0x100009D14, symSize: 0x3C }
  - { offsetInCU: 0x69E0, offset: 0x20084, size: 0x8, addend: 0x0, symName: __ZNSt3__14moveB8ue170006INS_16reverse_iteratorIP4StepEES4_EET0_T_S6_S5_, symObjAddr: 0x1C58, symBinAddr: 0x100009E18, symSize: 0x78 }
  - { offsetInCU: 0x6A3A, offset: 0x200DE, size: 0x8, addend: 0x0, symName: __ZNSt3__16__moveB8ue170006INS_17_ClassicAlgPolicyENS_16reverse_iteratorIP4StepEES5_S5_EENS_4pairIT0_T2_EES7_T1_S8_, symObjAddr: 0x1CD0, symBinAddr: 0x100009E90, symSize: 0x64 }
  - { offsetInCU: 0x6AA6, offset: 0x2014A, size: 0x8, addend: 0x0, symName: __ZNSt3__123__dispatch_copy_or_moveB8ue170006INS_17_ClassicAlgPolicyENS_11__move_loopIS1_EENS_14__move_trivialENS_16reverse_iteratorIP4StepEES8_S8_EENS_4pairIT2_T4_EESA_T3_SB_, symObjAddr: 0x1D34, symBinAddr: 0x100009EF4, symSize: 0x64 }
  - { offsetInCU: 0x6B24, offset: 0x201C8, size: 0x8, addend: 0x0, symName: __ZNSt3__121__unwrap_and_dispatchB8ue170006INS_10__overloadINS_11__move_loopINS_17_ClassicAlgPolicyEEENS_14__move_trivialEEENS_16reverse_iteratorIP4StepEESA_SA_Li0EEENS_4pairIT0_T2_EESC_T1_SD_, symObjAddr: 0x1D98, symBinAddr: 0x100009F58, symSize: 0x12C }
  - { offsetInCU: 0x6BB4, offset: 0x20258, size: 0x8, addend: 0x0, symName: __ZNSt3__114__unwrap_rangeB8ue170006INS_16reverse_iteratorIP4StepEES4_EEDaT_T0_, symObjAddr: 0x1EC4, symBinAddr: 0x10000A084, symSize: 0x4C }
  - { offsetInCU: 0x6D26, offset: 0x203CA, size: 0x8, addend: 0x0, symName: __ZNSt3__113__unwrap_iterB8ue170006INS_16reverse_iteratorIP4StepEENS_18__unwrap_iter_implIS4_Lb0EEELi0EEEDTclsrT0_8__unwrapclsr3stdE7declvalIT_EEEES8_, symObjAddr: 0x1FB8, symBinAddr: 0x10000A178, symSize: 0x44 }
  - { offsetInCU: 0x6D6A, offset: 0x2040E, size: 0x8, addend: 0x0, symName: __ZNSt3__19make_pairB8ue170006INS_16reverse_iteratorIP4StepEES4_EENS_4pairINS_18__unwrap_ref_decayIT_E4typeENS6_IT0_E4typeEEEOS7_OSA_, symObjAddr: 0x1FFC, symBinAddr: 0x10000A1BC, symSize: 0x38 }
  - { offsetInCU: 0x6DB9, offset: 0x2045D, size: 0x8, addend: 0x0, symName: __ZNSt3__114__rewrap_rangeB8ue170006INS_16reverse_iteratorIP4StepEES4_S4_EET0_S5_T1_, symObjAddr: 0x2034, symBinAddr: 0x10000A1F4, symSize: 0x5C }
  - { offsetInCU: 0x6E0E, offset: 0x204B2, size: 0x8, addend: 0x0, symName: __ZNSt3__113__rewrap_iterB8ue170006INS_16reverse_iteratorIP4StepEES4_NS_18__unwrap_iter_implIS4_Lb0EEEEET_S7_T0_, symObjAddr: 0x2090, symBinAddr: 0x10000A250, symSize: 0x74 }
  - { offsetInCU: 0x6EB3, offset: 0x20557, size: 0x8, addend: 0x0, symName: __ZNSt3__1neB8ue170006IP4StepS2_EEbRKNS_16reverse_iteratorIT_EERKNS3_IT0_EE, symObjAddr: 0x21F8, symBinAddr: 0x10000A3B8, symSize: 0x48 }
  - { offsetInCU: 0x6FB1, offset: 0x20655, size: 0x8, addend: 0x0, symName: __ZNSt3__13minB8ue170006IfNS_6__lessIvvEEEERKT_S5_S5_T0_, symObjAddr: 0x2574, symBinAddr: 0x10000A734, symSize: 0x54 }
  - { offsetInCU: 0x700B, offset: 0x206AF, size: 0x8, addend: 0x0, symName: __ZNSt3__116__pad_and_outputB8ue170006IcNS_11char_traitsIcEEEENS_19ostreambuf_iteratorIT_T0_EES6_PKS4_S8_S8_RNS_8ios_baseES4_, symObjAddr: 0x2994, symBinAddr: 0x10000AB54, symSize: 0x240 }
  - { offsetInCU: 0x70DB, offset: 0x2077F, size: 0x8, addend: 0x0, symName: __ZNSt3__112__to_addressB8ue170006IcEEPT_S2_, symObjAddr: 0x2EFC, symBinAddr: 0x10000AF3C, symSize: 0x14 }
  - { offsetInCU: 0x7110, offset: 0x207B4, size: 0x8, addend: 0x0, symName: __ZNSt3__19use_facetB8ue170006INS_5ctypeIcEEEERKT_RKNS_6localeE, symObjAddr: 0x31B4, symBinAddr: 0x10000B14C, symSize: 0x2C }
  - { offsetInCU: 0x75E7, offset: 0x20C8B, size: 0x8, addend: 0x0, symName: __ZNSt3__118__constexpr_strlenB8ue170006EPKc, symObjAddr: 0x324C, symBinAddr: 0x10000B1E4, symSize: 0x24 }
  - { offsetInCU: 0x7A33, offset: 0x210D7, size: 0x8, addend: 0x0, symName: __ZNSt3__16vectorI4StepNS_9allocatorIS1_EEE26__swap_out_circular_bufferERNS_14__split_bufferIS1_RS3_EE, symObjAddr: 0x1248, symBinAddr: 0x10000973C, symSize: 0x110 }
  - { offsetInCU: 0x9B20, offset: 0x231C4, size: 0x8, addend: 0x0, symName: __ZN5RobotC2ER5Housem, symObjAddr: 0x0, symBinAddr: 0x100008628, symSize: 0xA0 }
  - { offsetInCU: 0x9B67, offset: 0x2320B, size: 0x8, addend: 0x0, symName: __ZNSt3__16vectorI4StepNS_9allocatorIS1_EEEC1B8ue170006Ev, symObjAddr: 0xA0, symBinAddr: 0x1000086C8, symSize: 0x2C }
  - { offsetInCU: 0x9B90, offset: 0x23234, size: 0x8, addend: 0x0, symName: __ZNSt3__16vectorI4StepNS_9allocatorIS1_EEED1B8ue170006Ev, symObjAddr: 0xCC, symBinAddr: 0x1000086F4, symSize: 0x2C }
  - { offsetInCU: 0x9BB9, offset: 0x2325D, size: 0x8, addend: 0x0, symName: __ZN5RobotC1ER5Housem, symObjAddr: 0xF8, symBinAddr: 0x100008720, symSize: 0x3C }
  - { offsetInCU: 0x9C00, offset: 0x232A4, size: 0x8, addend: 0x0, symName: __ZN5Robot15performNextStepEv, symObjAddr: 0x134, symBinAddr: 0x10000875C, symSize: 0x18C }
  - { offsetInCU: 0x9C52, offset: 0x232F6, size: 0x8, addend: 0x0, symName: __ZN5Robot5cleanEv, symObjAddr: 0x2C0, symBinAddr: 0x1000088E8, symSize: 0x40 }
  - { offsetInCU: 0x9C79, offset: 0x2331D, size: 0x8, addend: 0x0, symName: __ZN5Robot4moveE6Coords, symObjAddr: 0x300, symBinAddr: 0x100008928, symSize: 0x30 }
  - { offsetInCU: 0x9CAE, offset: 0x23352, size: 0x8, addend: 0x0, symName: __ZN5Robot6chargeEv, symObjAddr: 0x330, symBinAddr: 0x100008958, symSize: 0x6C }
  - { offsetInCU: 0x9CD5, offset: 0x23379, size: 0x8, addend: 0x0, symName: __ZNSt3__16vectorI4StepNS_9allocatorIS1_EEE9push_backB8ue170006ERKS1_, symObjAddr: 0x39C, symBinAddr: 0x1000089C4, symSize: 0x6C }
  - { offsetInCU: 0x9D0A, offset: 0x233AE, size: 0x8, addend: 0x0, symName: __ZNSt3__113basic_ostreamIcNS_11char_traitsIcEEElsB8ue170006EPFRS3_S4_E, symObjAddr: 0x450, symBinAddr: 0x100008A78, symSize: 0x2C }
  - { offsetInCU: 0x9D3D, offset: 0x233E1, size: 0x8, addend: 0x0, symName: __ZN5Robot15decreaseBatteryEv, symObjAddr: 0x500, symBinAddr: 0x100008B28, symSize: 0x5C }
  - { offsetInCU: 0x9D64, offset: 0x23408, size: 0x8, addend: 0x0, symName: __ZNK5Robot20getCurrentCoordsDirtEv, symObjAddr: 0x55C, symBinAddr: 0x100008B84, symSize: 0x34 }
  - { offsetInCU: 0x9D8B, offset: 0x2342F, size: 0x8, addend: 0x0, symName: __ZN5Robot19getSurroundingWallsEv, symObjAddr: 0x590, symBinAddr: 0x100008BB8, symSize: 0xAC }
  - { offsetInCU: 0x9DDC, offset: 0x23480, size: 0x8, addend: 0x0, symName: __ZNK5Robot14getBatteryLeftEv, symObjAddr: 0x63C, symBinAddr: 0x100008C64, symSize: 0x18 }
  - { offsetInCU: 0x9E03, offset: 0x234A7, size: 0x8, addend: 0x0, symName: __ZN5Robot13getStepsTakenEv, symObjAddr: 0x654, symBinAddr: 0x100008C7C, symSize: 0x3C }
  - { offsetInCU: 0x9E2A, offset: 0x234CE, size: 0x8, addend: 0x0, symName: __ZNSt3__16vectorI4StepNS_9allocatorIS1_EEEC1B8ue170006EOS4_, symObjAddr: 0x690, symBinAddr: 0x100008CB8, symSize: 0x34 }
  - { offsetInCU: 0x9E64, offset: 0x23508, size: 0x8, addend: 0x0, symName: __ZNSt3__16vectorI4StepNS_9allocatorIS1_EEEC2B8ue170006Ev, symObjAddr: 0x6C4, symBinAddr: 0x100008CEC, symSize: 0x4C }
  - { offsetInCU: 0x9E97, offset: 0x2353B, size: 0x8, addend: 0x0, symName: __ZNSt3__117__compressed_pairIP4StepNS_9allocatorIS1_EEEC1B8ue170006IDnNS_18__default_init_tagEEEOT_OT0_, symObjAddr: 0x710, symBinAddr: 0x100008D38, symSize: 0x3C }
  - { offsetInCU: 0x9EEE, offset: 0x23592, size: 0x8, addend: 0x0, symName: __ZNSt3__117__compressed_pairIP4StepNS_9allocatorIS1_EEEC2B8ue170006IDnNS_18__default_init_tagEEEOT_OT0_, symObjAddr: 0x758, symBinAddr: 0x100008D74, symSize: 0x40 }
  - { offsetInCU: 0x9F45, offset: 0x235E9, size: 0x8, addend: 0x0, symName: __ZNSt3__122__compressed_pair_elemIP4StepLi0ELb0EEC2B8ue170006IDnvEEOT_, symObjAddr: 0x798, symBinAddr: 0x100008DB4, symSize: 0x1C }
  - { offsetInCU: 0x9F86, offset: 0x2362A, size: 0x8, addend: 0x0, symName: __ZNSt3__122__compressed_pair_elemINS_9allocatorI4StepEELi1ELb1EEC2B8ue170006ENS_18__default_init_tagE, symObjAddr: 0x7B4, symBinAddr: 0x100008DD0, symSize: 0x2C }
  - { offsetInCU: 0x9FBA, offset: 0x2365E, size: 0x8, addend: 0x0, symName: __ZNSt3__19allocatorI4StepEC2B8ue170006Ev, symObjAddr: 0x7E0, symBinAddr: 0x100008DFC, symSize: 0x2C }
  - { offsetInCU: 0x9FE3, offset: 0x23687, size: 0x8, addend: 0x0, symName: __ZNSt3__116__non_trivial_ifILb1ENS_9allocatorI4StepEEEC2B8ue170006Ev, symObjAddr: 0x80C, symBinAddr: 0x100008E28, symSize: 0x14 }
  - { offsetInCU: 0xA00C, offset: 0x236B0, size: 0x8, addend: 0x0, symName: __ZNSt3__16vectorI4StepNS_9allocatorIS1_EEED2B8ue170006Ev, symObjAddr: 0x820, symBinAddr: 0x100008E3C, symSize: 0x44 }
  - { offsetInCU: 0xA035, offset: 0x236D9, size: 0x8, addend: 0x0, symName: __ZNSt3__16vectorI4StepNS_9allocatorIS1_EEE16__destroy_vectorC1B8ue170006ERS4_, symObjAddr: 0x864, symBinAddr: 0x100008E80, symSize: 0x34 }
  - { offsetInCU: 0xA06D, offset: 0x23711, size: 0x8, addend: 0x0, symName: __ZNSt3__16vectorI4StepNS_9allocatorIS1_EEE16__destroy_vectorclB8ue170006Ev, symObjAddr: 0x898, symBinAddr: 0x100008EB4, symSize: 0x90 }
  - { offsetInCU: 0xA092, offset: 0x23736, size: 0x8, addend: 0x0, symName: __ZNSt3__16vectorI4StepNS_9allocatorIS1_EEE16__destroy_vectorC2B8ue170006ERS4_, symObjAddr: 0x928, symBinAddr: 0x100008F44, symSize: 0x20 }
  - { offsetInCU: 0xA0CA, offset: 0x2376E, size: 0x8, addend: 0x0, symName: __ZNSt3__16vectorI4StepNS_9allocatorIS1_EEE7__clearB8ue170006Ev, symObjAddr: 0x948, symBinAddr: 0x100008F64, symSize: 0x28 }
  - { offsetInCU: 0xA0EF, offset: 0x23793, size: 0x8, addend: 0x0, symName: __ZNKSt3__16vectorI4StepNS_9allocatorIS1_EEE17__annotate_deleteB8ue170006Ev, symObjAddr: 0x970, symBinAddr: 0x100008F8C, symSize: 0xD4 }
  - { offsetInCU: 0xA114, offset: 0x237B8, size: 0x8, addend: 0x0, symName: __ZNSt3__116allocator_traitsINS_9allocatorI4StepEEE10deallocateB8ue170006ERS3_PS2_m, symObjAddr: 0xA44, symBinAddr: 0x100009060, symSize: 0x34 }
  - { offsetInCU: 0xA156, offset: 0x237FA, size: 0x8, addend: 0x0, symName: __ZNSt3__16vectorI4StepNS_9allocatorIS1_EEE7__allocB8ue170006Ev, symObjAddr: 0xA78, symBinAddr: 0x100009094, symSize: 0x28 }
  - { offsetInCU: 0xA17B, offset: 0x2381F, size: 0x8, addend: 0x0, symName: __ZNKSt3__16vectorI4StepNS_9allocatorIS1_EEE8capacityB8ue170006Ev, symObjAddr: 0xAA0, symBinAddr: 0x1000090BC, symSize: 0x40 }
  - { offsetInCU: 0xA1A0, offset: 0x23844, size: 0x8, addend: 0x0, symName: __ZNSt3__16vectorI4StepNS_9allocatorIS1_EEE22__base_destruct_at_endB8ue170006EPS1_, symObjAddr: 0xAE0, symBinAddr: 0x1000090FC, symSize: 0x8C }
  - { offsetInCU: 0xA1E3, offset: 0x23887, size: 0x8, addend: 0x0, symName: __ZNSt3__116allocator_traitsINS_9allocatorI4StepEEE7destroyB8ue170006IS2_vvEEvRS3_PT_, symObjAddr: 0xB6C, symBinAddr: 0x100009188, symSize: 0x28 }
  - { offsetInCU: 0xA21D, offset: 0x238C1, size: 0x8, addend: 0x0, symName: __ZNKSt3__16vectorI4StepNS_9allocatorIS1_EEE31__annotate_contiguous_containerB8ue170006EPKvS6_S6_S6_, symObjAddr: 0xBDC, symBinAddr: 0x1000091F8, symSize: 0x20 }
  - { offsetInCU: 0xA26E, offset: 0x23912, size: 0x8, addend: 0x0, symName: __ZNKSt3__16vectorI4StepNS_9allocatorIS1_EEE4dataB8ue170006Ev, symObjAddr: 0xBFC, symBinAddr: 0x100009218, symSize: 0x28 }
  - { offsetInCU: 0xA293, offset: 0x23937, size: 0x8, addend: 0x0, symName: __ZNKSt3__16vectorI4StepNS_9allocatorIS1_EEE4sizeB8ue170006Ev, symObjAddr: 0xC24, symBinAddr: 0x100009240, symSize: 0x28 }
  - { offsetInCU: 0xA2B8, offset: 0x2395C, size: 0x8, addend: 0x0, symName: __ZNSt3__19allocatorI4StepE10deallocateB8ue170006EPS1_m, symObjAddr: 0xC4C, symBinAddr: 0x100009268, symSize: 0x44 }
  - { offsetInCU: 0xA2F9, offset: 0x2399D, size: 0x8, addend: 0x0, symName: __ZNSt3__117__compressed_pairIP4StepNS_9allocatorIS1_EEE6secondB8ue170006Ev, symObjAddr: 0xDB8, symBinAddr: 0x1000092AC, symSize: 0x24 }
  - { offsetInCU: 0xA31E, offset: 0x239C2, size: 0x8, addend: 0x0, symName: __ZNSt3__122__compressed_pair_elemINS_9allocatorI4StepEELi1ELb1EE5__getB8ue170006Ev, symObjAddr: 0xDDC, symBinAddr: 0x1000092D0, symSize: 0x14 }
  - { offsetInCU: 0xA343, offset: 0x239E7, size: 0x8, addend: 0x0, symName: __ZNKSt3__16vectorI4StepNS_9allocatorIS1_EEE9__end_capB8ue170006Ev, symObjAddr: 0xDF0, symBinAddr: 0x1000092E4, symSize: 0x28 }
  - { offsetInCU: 0xA368, offset: 0x23A0C, size: 0x8, addend: 0x0, symName: __ZNKSt3__117__compressed_pairIP4StepNS_9allocatorIS1_EEE5firstB8ue170006Ev, symObjAddr: 0xE18, symBinAddr: 0x10000930C, symSize: 0x24 }
  - { offsetInCU: 0xA38D, offset: 0x23A31, size: 0x8, addend: 0x0, symName: __ZNKSt3__122__compressed_pair_elemIP4StepLi0ELb0EE5__getB8ue170006Ev, symObjAddr: 0xE3C, symBinAddr: 0x100009330, symSize: 0x14 }
  - { offsetInCU: 0xA3B2, offset: 0x23A56, size: 0x8, addend: 0x0, symName: __ZNSt3__16vectorI4StepNS_9allocatorIS1_EEE9__end_capB8ue170006Ev, symObjAddr: 0xE50, symBinAddr: 0x100009344, symSize: 0x28 }
  - { offsetInCU: 0xA3DC, offset: 0x23A80, size: 0x8, addend: 0x0, symName: __ZNSt3__16vectorI4StepNS_9allocatorIS1_EEE22__construct_one_at_endB8ue170006IJRKS1_EEEvDpOT_, symObjAddr: 0xE78, symBinAddr: 0x10000936C, symSize: 0x90 }
  - { offsetInCU: 0xA42A, offset: 0x23ACE, size: 0x8, addend: 0x0, symName: __ZNSt3__16vectorI4StepNS_9allocatorIS1_EEE21__push_back_slow_pathIRKS1_EEvOT_, symObjAddr: 0xF08, symBinAddr: 0x1000093FC, symSize: 0xD8 }
  - { offsetInCU: 0xA486, offset: 0x23B2A, size: 0x8, addend: 0x0, symName: __ZNSt3__117__compressed_pairIP4StepNS_9allocatorIS1_EEE5firstB8ue170006Ev, symObjAddr: 0xFE0, symBinAddr: 0x1000094D4, symSize: 0x24 }
  - { offsetInCU: 0xA4AB, offset: 0x23B4F, size: 0x8, addend: 0x0, symName: __ZNSt3__122__compressed_pair_elemIP4StepLi0ELb0EE5__getB8ue170006Ev, symObjAddr: 0x1004, symBinAddr: 0x1000094F8, symSize: 0x14 }
  - { offsetInCU: 0xA4E9, offset: 0x23B8D, size: 0x8, addend: 0x0, symName: __ZNSt3__16vectorI4StepNS_9allocatorIS1_EEE21_ConstructTransactionC1B8ue170006ERS4_m, symObjAddr: 0x1018, symBinAddr: 0x10000950C, symSize: 0x3C }
  - { offsetInCU: 0xA530, offset: 0x23BD4, size: 0x8, addend: 0x0, symName: __ZNSt3__116allocator_traitsINS_9allocatorI4StepEEE9constructB8ue170006IS2_JRKS2_EvvEEvRS3_PT_DpOT0_, symObjAddr: 0x1054, symBinAddr: 0x100009548, symSize: 0x30 }
  - { offsetInCU: 0xA584, offset: 0x23C28, size: 0x8, addend: 0x0, symName: __ZNSt3__16vectorI4StepNS_9allocatorIS1_EEE21_ConstructTransactionD1B8ue170006Ev, symObjAddr: 0x1084, symBinAddr: 0x100009578, symSize: 0x2C }
  - { offsetInCU: 0xA5AD, offset: 0x23C51, size: 0x8, addend: 0x0, symName: __ZNSt3__16vectorI4StepNS_9allocatorIS1_EEE21_ConstructTransactionC2B8ue170006ERS4_m, symObjAddr: 0x10B0, symBinAddr: 0x1000095A4, symSize: 0x4C }
  - { offsetInCU: 0xA5F4, offset: 0x23C98, size: 0x8, addend: 0x0, symName: __ZNSt3__16vectorI4StepNS_9allocatorIS1_EEE21_ConstructTransactionD2B8ue170006Ev, symObjAddr: 0x1130, symBinAddr: 0x100009624, symSize: 0x20 }
  - { offsetInCU: 0xA61D, offset: 0x23CC1, size: 0x8, addend: 0x0, symName: __ZNKSt3__16vectorI4StepNS_9allocatorIS1_EEE11__recommendB8ue170006Em, symObjAddr: 0x1150, symBinAddr: 0x100009644, symSize: 0xB4 }
  - { offsetInCU: 0xA670, offset: 0x23D14, size: 0x8, addend: 0x0, symName: __ZNSt3__114__split_bufferI4StepRNS_9allocatorIS1_EEEC1EmmS4_, symObjAddr: 0x1204, symBinAddr: 0x1000096F8, symSize: 0x44 }
  - { offsetInCU: 0xA6C5, offset: 0x23D69, size: 0x8, addend: 0x0, symName: __ZNSt3__114__split_bufferI4StepRNS_9allocatorIS1_EEED1Ev, symObjAddr: 0x1358, symBinAddr: 0x10000984C, symSize: 0x2C }
  - { offsetInCU: 0xA6F0, offset: 0x23D94, size: 0x8, addend: 0x0, symName: __ZNKSt3__16vectorI4StepNS_9allocatorIS1_EEE8max_sizeEv, symObjAddr: 0x1384, symBinAddr: 0x100009878, symSize: 0x60 }
  - { offsetInCU: 0xA716, offset: 0x23DBA, size: 0x8, addend: 0x0, symName: __ZNKSt3__16vectorI4StepNS_9allocatorIS1_EEE20__throw_length_errorB8ue170006Ev, symObjAddr: 0x13E4, symBinAddr: 0x1000098D8, symSize: 0x1C }
  - { offsetInCU: 0xA745, offset: 0x23DE9, size: 0x8, addend: 0x0, symName: __ZNSt3__116allocator_traitsINS_9allocatorI4StepEEE8max_sizeB8ue170006IS3_vvEEmRKS3_, symObjAddr: 0x1458, symBinAddr: 0x1000098F4, symSize: 0x28 }
  - { offsetInCU: 0xA770, offset: 0x23E14, size: 0x8, addend: 0x0, symName: __ZNKSt3__16vectorI4StepNS_9allocatorIS1_EEE7__allocB8ue170006Ev, symObjAddr: 0x1480, symBinAddr: 0x10000991C, symSize: 0x28 }
  - { offsetInCU: 0xA7A9, offset: 0x23E4D, size: 0x8, addend: 0x0, symName: __ZNKSt3__117__compressed_pairIP4StepNS_9allocatorIS1_EEE6secondB8ue170006Ev, symObjAddr: 0x1560, symBinAddr: 0x100009944, symSize: 0x24 }
  - { offsetInCU: 0xA7CE, offset: 0x23E72, size: 0x8, addend: 0x0, symName: __ZNKSt3__122__compressed_pair_elemINS_9allocatorI4StepEELi1ELb1EE5__getB8ue170006Ev, symObjAddr: 0x1584, symBinAddr: 0x100009968, symSize: 0x14 }
  - { offsetInCU: 0xA7F3, offset: 0x23E97, size: 0x8, addend: 0x0, symName: __ZNSt3__114__split_bufferI4StepRNS_9allocatorIS1_EEEC2EmmS4_, symObjAddr: 0x16D8, symBinAddr: 0x10000997C, symSize: 0xE0 }
  - { offsetInCU: 0xA865, offset: 0x23F09, size: 0x8, addend: 0x0, symName: __ZNSt3__117__compressed_pairIP4StepRNS_9allocatorIS1_EEEC1B8ue170006IDnS5_EEOT_OT0_, symObjAddr: 0x17B8, symBinAddr: 0x100009A5C, symSize: 0x3C }
  - { offsetInCU: 0xA8BC, offset: 0x23F60, size: 0x8, addend: 0x0, symName: __ZNSt3__114__split_bufferI4StepRNS_9allocatorIS1_EEE7__allocB8ue170006Ev, symObjAddr: 0x1834, symBinAddr: 0x100009AD8, symSize: 0x28 }
  - { offsetInCU: 0xA8E1, offset: 0x23F85, size: 0x8, addend: 0x0, symName: __ZNSt3__114__split_bufferI4StepRNS_9allocatorIS1_EEE9__end_capB8ue170006Ev, symObjAddr: 0x185C, symBinAddr: 0x100009B00, symSize: 0x28 }
  - { offsetInCU: 0xA906, offset: 0x23FAA, size: 0x8, addend: 0x0, symName: __ZNSt3__117__compressed_pairIP4StepRNS_9allocatorIS1_EEEC2B8ue170006IDnS5_EEOT_OT0_, symObjAddr: 0x1884, symBinAddr: 0x100009B28, symSize: 0x48 }
  - { offsetInCU: 0xA95D, offset: 0x24001, size: 0x8, addend: 0x0, symName: __ZNSt3__122__compressed_pair_elemIRNS_9allocatorI4StepEELi1ELb0EEC2B8ue170006IS4_vEEOT_, symObjAddr: 0x18CC, symBinAddr: 0x100009B70, symSize: 0x20 }
  - { offsetInCU: 0xA99E, offset: 0x24042, size: 0x8, addend: 0x0, symName: __ZNSt3__19allocatorI4StepE8allocateB8ue170006Em, symObjAddr: 0x18EC, symBinAddr: 0x100009B90, symSize: 0x5C }
  - { offsetInCU: 0xA9D1, offset: 0x24075, size: 0x8, addend: 0x0, symName: __ZNSt3__117__compressed_pairIP4StepRNS_9allocatorIS1_EEE6secondB8ue170006Ev, symObjAddr: 0x1A2C, symBinAddr: 0x100009BEC, symSize: 0x28 }
  - { offsetInCU: 0xA9F6, offset: 0x2409A, size: 0x8, addend: 0x0, symName: __ZNSt3__122__compressed_pair_elemIRNS_9allocatorI4StepEELi1ELb0EE5__getB8ue170006Ev, symObjAddr: 0x1A54, symBinAddr: 0x100009C14, symSize: 0x18 }
  - { offsetInCU: 0xAA1B, offset: 0x240BF, size: 0x8, addend: 0x0, symName: __ZNSt3__117__compressed_pairIP4StepRNS_9allocatorIS1_EEE5firstB8ue170006Ev, symObjAddr: 0x1A6C, symBinAddr: 0x100009C2C, symSize: 0x24 }
  - { offsetInCU: 0xAA40, offset: 0x240E4, size: 0x8, addend: 0x0, symName: __ZNSt3__116reverse_iteratorIP4StepEC1B8ue170006ES2_, symObjAddr: 0x1B08, symBinAddr: 0x100009CC8, symSize: 0x34 }
  - { offsetInCU: 0xAA77, offset: 0x2411B, size: 0x8, addend: 0x0, symName: __ZNKSt3__116reverse_iteratorIP4StepE4baseB8ue170006Ev, symObjAddr: 0x1B3C, symBinAddr: 0x100009CFC, symSize: 0x18 }
  - { offsetInCU: 0xAA9C, offset: 0x24140, size: 0x8, addend: 0x0, symName: __ZNKSt3__16vectorI4StepNS_9allocatorIS1_EEE14__annotate_newB8ue170006Em, symObjAddr: 0x1B90, symBinAddr: 0x100009D50, symSize: 0xC8 }
  - { offsetInCU: 0xAAF3, offset: 0x24197, size: 0x8, addend: 0x0, symName: __ZNKSt3__111__move_loopINS_17_ClassicAlgPolicyEEclB8ue170006INS_16reverse_iteratorIP4StepEES7_S7_EENS_4pairIT_T1_EES9_T0_SA_, symObjAddr: 0x1F10, symBinAddr: 0x10000A0D0, symSize: 0xA8 }
  - { offsetInCU: 0xAB5D, offset: 0x24201, size: 0x8, addend: 0x0, symName: __ZNSt3__119__unwrap_range_implINS_16reverse_iteratorIP4StepEES4_E8__unwrapB8ue170006ES4_S4_, symObjAddr: 0x2104, symBinAddr: 0x10000A2C4, symSize: 0x84 }
  - { offsetInCU: 0xAB93, offset: 0x24237, size: 0x8, addend: 0x0, symName: __ZNSt3__14pairINS_16reverse_iteratorIP4StepEES4_EC1B8ue170006IS4_S4_LPv0EEEOT_OT0_, symObjAddr: 0x2188, symBinAddr: 0x10000A348, symSize: 0x3C }
  - { offsetInCU: 0xABF0, offset: 0x24294, size: 0x8, addend: 0x0, symName: __ZNSt3__14pairINS_16reverse_iteratorIP4StepEES4_EC2B8ue170006IS4_S4_LPv0EEEOT_OT0_, symObjAddr: 0x21C4, symBinAddr: 0x10000A384, symSize: 0x34 }
  - { offsetInCU: 0xAC52, offset: 0x242F6, size: 0x8, addend: 0x0, symName: __ZNSt3__18_IterOpsINS_17_ClassicAlgPolicyEE11__iter_moveB8ue170006IRNS_16reverse_iteratorIP4StepEEEENS_9enable_ifIXsr12is_referenceIDTdeclsr3stdE7declvalIRT_EEEEE5valueEDTclsr3stdE4movedeclsr3stdE7declvalISB_EEEEE4typeEOSA_, symObjAddr: 0x2240, symBinAddr: 0x10000A400, symSize: 0x28 }
  - { offsetInCU: 0xAC7E, offset: 0x24322, size: 0x8, addend: 0x0, symName: __ZNKSt3__116reverse_iteratorIP4StepEdeB8ue170006Ev, symObjAddr: 0x2268, symBinAddr: 0x10000A428, symSize: 0x28 }
  - { offsetInCU: 0xACB1, offset: 0x24355, size: 0x8, addend: 0x0, symName: __ZNSt3__116reverse_iteratorIP4StepEppB8ue170006Ev, symObjAddr: 0x2290, symBinAddr: 0x10000A450, symSize: 0x20 }
  - { offsetInCU: 0xACD6, offset: 0x2437A, size: 0x8, addend: 0x0, symName: __ZNSt3__18_IterOpsINS_17_ClassicAlgPolicyEE25__validate_iter_referenceB8ue170006IRNS_16reverse_iteratorIP4StepEEEEvv, symObjAddr: 0x22B0, symBinAddr: 0x10000A470, symSize: 0x4 }
  - { offsetInCU: 0xACF4, offset: 0x24398, size: 0x8, addend: 0x0, symName: __ZNSt3__118__unwrap_iter_implINS_16reverse_iteratorIP4StepEELb0EE8__unwrapB8ue170006ES4_, symObjAddr: 0x22B4, symBinAddr: 0x10000A474, symSize: 0x24 }
  - { offsetInCU: 0xAD17, offset: 0x243BB, size: 0x8, addend: 0x0, symName: __ZNSt3__119__unwrap_range_implINS_16reverse_iteratorIP4StepEES4_E8__rewrapB8ue170006ES4_S4_, symObjAddr: 0x22D8, symBinAddr: 0x10000A498, symSize: 0x5C }
  - { offsetInCU: 0xAD48, offset: 0x243EC, size: 0x8, addend: 0x0, symName: __ZNSt3__118__unwrap_iter_implINS_16reverse_iteratorIP4StepEELb0EE8__rewrapB8ue170006ES4_S4_, symObjAddr: 0x2334, symBinAddr: 0x10000A4F4, symSize: 0x2C }
  - { offsetInCU: 0xAD76, offset: 0x2441A, size: 0x8, addend: 0x0, symName: __ZNSt3__116reverse_iteratorIP4StepEC2B8ue170006ES2_, symObjAddr: 0x2360, symBinAddr: 0x10000A520, symSize: 0x28 }
  - { offsetInCU: 0xADAD, offset: 0x24451, size: 0x8, addend: 0x0, symName: __ZNSt3__114__split_bufferI4StepRNS_9allocatorIS1_EEED2Ev, symObjAddr: 0x2388, symBinAddr: 0x10000A548, symSize: 0x8C }
  - { offsetInCU: 0xADD8, offset: 0x2447C, size: 0x8, addend: 0x0, symName: __ZNSt3__114__split_bufferI4StepRNS_9allocatorIS1_EEE5clearB8ue170006Ev, symObjAddr: 0x2414, symBinAddr: 0x10000A5D4, symSize: 0x28 }
  - { offsetInCU: 0xADFD, offset: 0x244A1, size: 0x8, addend: 0x0, symName: __ZNKSt3__114__split_bufferI4StepRNS_9allocatorIS1_EEE8capacityB8ue170006Ev, symObjAddr: 0x243C, symBinAddr: 0x10000A5FC, symSize: 0x40 }
  - { offsetInCU: 0xAE22, offset: 0x244C6, size: 0x8, addend: 0x0, symName: __ZNSt3__114__split_bufferI4StepRNS_9allocatorIS1_EEE17__destruct_at_endB8ue170006EPS1_, symObjAddr: 0x247C, symBinAddr: 0x10000A63C, symSize: 0x2C }
  - { offsetInCU: 0xAE55, offset: 0x244F9, size: 0x8, addend: 0x0, symName: __ZNSt3__114__split_bufferI4StepRNS_9allocatorIS1_EEE17__destruct_at_endB8ue170006EPS1_NS_17integral_constantIbLb0EEE, symObjAddr: 0x24A8, symBinAddr: 0x10000A668, symSize: 0x80 }
  - { offsetInCU: 0xAE94, offset: 0x24538, size: 0x8, addend: 0x0, symName: __ZNKSt3__114__split_bufferI4StepRNS_9allocatorIS1_EEE9__end_capB8ue170006Ev, symObjAddr: 0x2528, symBinAddr: 0x10000A6E8, symSize: 0x28 }
  - { offsetInCU: 0xAEB9, offset: 0x2455D, size: 0x8, addend: 0x0, symName: __ZNKSt3__117__compressed_pairIP4StepRNS_9allocatorIS1_EEE5firstB8ue170006Ev, symObjAddr: 0x2550, symBinAddr: 0x10000A710, symSize: 0x24 }
  - { offsetInCU: 0xAEE8, offset: 0x2458C, size: 0x8, addend: 0x0, symName: __ZNKSt3__16__lessIvvEclB8ue170006IffEEbRKT_RKT0_, symObjAddr: 0x25C8, symBinAddr: 0x10000A788, symSize: 0x34 }
  - { offsetInCU: 0xAF3B, offset: 0x245DF, size: 0x8, addend: 0x0, symName: __ZNSt3__16vectorI4StepNS_9allocatorIS1_EEEC2B8ue170006EOS4_, symObjAddr: 0x25FC, symBinAddr: 0x10000A7BC, symSize: 0xC4 }
  - { offsetInCU: 0xAF7A, offset: 0x2461E, size: 0x8, addend: 0x0, symName: __ZNSt3__117__compressed_pairIP4StepNS_9allocatorIS1_EEEC1B8ue170006IDnS4_EEOT_OT0_, symObjAddr: 0x26C0, symBinAddr: 0x10000A880, symSize: 0x3C }
  - { offsetInCU: 0xAFD1, offset: 0x24675, size: 0x8, addend: 0x0, symName: __ZNSt3__117__compressed_pairIP4StepNS_9allocatorIS1_EEEC2B8ue170006IDnS4_EEOT_OT0_, symObjAddr: 0x26FC, symBinAddr: 0x10000A8BC, symSize: 0x44 }
  - { offsetInCU: 0xB028, offset: 0x246CC, size: 0x8, addend: 0x0, symName: __ZNSt3__122__compressed_pair_elemINS_9allocatorI4StepEELi1ELb1EEC2B8ue170006IS3_vEEOT_, symObjAddr: 0x2740, symBinAddr: 0x10000A900, symSize: 0x18 }
  - { offsetInCU: 0xB069, offset: 0x2470D, size: 0x8, addend: 0x0, symName: __ZNSt3__111char_traitsIcE6lengthB8ue170006EPKc, symObjAddr: 0x2944, symBinAddr: 0x10000AB04, symSize: 0x34 }
  - { offsetInCU: 0xB0AA, offset: 0x2474E, size: 0x8, addend: 0x0, symName: __ZNKSt3__113basic_ostreamIcNS_11char_traitsIcEEE6sentrycvbB8ue170006Ev, symObjAddr: 0x2978, symBinAddr: 0x10000AB38, symSize: 0x1C }
  - { offsetInCU: 0xB0CF, offset: 0x24773, size: 0x8, addend: 0x0, symName: __ZNSt3__119ostreambuf_iteratorIcNS_11char_traitsIcEEEC1B8ue170006ERNS_13basic_ostreamIcS2_EE, symObjAddr: 0x2BD4, symBinAddr: 0x10000AD94, symSize: 0x34 }
  - { offsetInCU: 0xB106, offset: 0x247AA, size: 0x8, addend: 0x0, symName: __ZNKSt3__18ios_base5flagsB8ue170006Ev, symObjAddr: 0x2C08, symBinAddr: 0x10000ADC8, symSize: 0x18 }
  - { offsetInCU: 0xB12D, offset: 0x247D1, size: 0x8, addend: 0x0, symName: __ZNKSt3__19basic_iosIcNS_11char_traitsIcEEE4fillB8ue170006Ev, symObjAddr: 0x2C20, symBinAddr: 0x10000ADE0, symSize: 0x64 }
  - { offsetInCU: 0xB153, offset: 0x247F7, size: 0x8, addend: 0x0, symName: __ZNKSt3__119ostreambuf_iteratorIcNS_11char_traitsIcEEE6failedB8ue170006Ev, symObjAddr: 0x2C84, symBinAddr: 0x10000AE44, symSize: 0x24 }
  - { offsetInCU: 0xB178, offset: 0x2481C, size: 0x8, addend: 0x0, symName: __ZNSt3__19basic_iosIcNS_11char_traitsIcEEE8setstateB8ue170006Ej, symObjAddr: 0x2CA8, symBinAddr: 0x10000AE68, symSize: 0x2C }
  - { offsetInCU: 0xB1AC, offset: 0x24850, size: 0x8, addend: 0x0, symName: __ZNKSt3__18ios_base5widthB8ue170006Ev, symObjAddr: 0x2CD4, symBinAddr: 0x10000AE94, symSize: 0x18 }
  - { offsetInCU: 0xB1D3, offset: 0x24877, size: 0x8, addend: 0x0, symName: __ZNSt3__115basic_streambufIcNS_11char_traitsIcEEE5sputnB8ue170006EPKcl, symObjAddr: 0x2CEC, symBinAddr: 0x10000AEAC, symSize: 0x3C }
  - { offsetInCU: 0xB214, offset: 0x248B8, size: 0x8, addend: 0x0, symName: __ZNSt3__112basic_stringIcNS_11char_traitsIcEENS_9allocatorIcEEE4dataB8ue170006Ev, symObjAddr: 0x2D64, symBinAddr: 0x10000AEE8, symSize: 0x28 }
  - { offsetInCU: 0xB239, offset: 0x248DD, size: 0x8, addend: 0x0, symName: __ZNSt3__18ios_base5widthB8ue170006El, symObjAddr: 0x2D8C, symBinAddr: 0x10000AF10, symSize: 0x2C }
  - { offsetInCU: 0xB27E, offset: 0x24922, size: 0x8, addend: 0x0, symName: __ZNSt3__112basic_stringIcNS_11char_traitsIcEENS_9allocatorIcEEE13__get_pointerB8ue170006Ev, symObjAddr: 0x2F10, symBinAddr: 0x10000AF50, symSize: 0x54 }
  - { offsetInCU: 0xB2A3, offset: 0x24947, size: 0x8, addend: 0x0, symName: __ZNSt3__112basic_stringIcNS_11char_traitsIcEENS_9allocatorIcEEE18__get_long_pointerB8ue170006Ev, symObjAddr: 0x2F9C, symBinAddr: 0x10000AFA4, symSize: 0x28 }
  - { offsetInCU: 0xB2C8, offset: 0x2496C, size: 0x8, addend: 0x0, symName: __ZNSt3__112basic_stringIcNS_11char_traitsIcEENS_9allocatorIcEEE19__get_short_pointerB8ue170006Ev, symObjAddr: 0x2FC4, symBinAddr: 0x10000AFCC, symSize: 0x28 }
  - { offsetInCU: 0xB2ED, offset: 0x24991, size: 0x8, addend: 0x0, symName: __ZNSt3__114pointer_traitsIPcE10pointer_toB8ue170006ERc, symObjAddr: 0x305C, symBinAddr: 0x10000AFF4, symSize: 0x14 }
  - { offsetInCU: 0xB310, offset: 0x249B4, size: 0x8, addend: 0x0, symName: __ZNSt3__119ostreambuf_iteratorIcNS_11char_traitsIcEEEC2B8ue170006ERNS_13basic_ostreamIcS2_EE, symObjAddr: 0x3070, symBinAddr: 0x10000B008, symSize: 0x54 }
  - { offsetInCU: 0xB347, offset: 0x249EB, size: 0x8, addend: 0x0, symName: __ZNKSt3__19basic_iosIcNS_11char_traitsIcEEE5rdbufB8ue170006Ev, symObjAddr: 0x30C4, symBinAddr: 0x10000B05C, symSize: 0x24 }
  - { offsetInCU: 0xB36D, offset: 0x24A11, size: 0x8, addend: 0x0, symName: __ZNKSt3__18ios_base5rdbufB8ue170006Ev, symObjAddr: 0x30E8, symBinAddr: 0x10000B080, symSize: 0x18 }
  - { offsetInCU: 0xB392, offset: 0x24A36, size: 0x8, addend: 0x0, symName: __ZNSt3__111char_traitsIcE11eq_int_typeB8ue170006Eii, symObjAddr: 0x3100, symBinAddr: 0x10000B098, symSize: 0x28 }
  - { offsetInCU: 0xB3C5, offset: 0x24A69, size: 0x8, addend: 0x0, symName: __ZNSt3__111char_traitsIcE3eofB8ue170006Ev, symObjAddr: 0x3128, symBinAddr: 0x10000B0C0, symSize: 0x8 }
  - { offsetInCU: 0xB3D9, offset: 0x24A7D, size: 0x8, addend: 0x0, symName: __ZNKSt3__19basic_iosIcNS_11char_traitsIcEEE5widenB8ue170006Ec, symObjAddr: 0x3130, symBinAddr: 0x10000B0C8, symSize: 0x84 }
  - { offsetInCU: 0xB445, offset: 0x24AE9, size: 0x8, addend: 0x0, symName: __ZNKSt3__15ctypeIcE5widenB8ue170006Ec, symObjAddr: 0x31E0, symBinAddr: 0x10000B178, symSize: 0x38 }
  - { offsetInCU: 0xB479, offset: 0x24B1D, size: 0x8, addend: 0x0, symName: __ZNSt3__18ios_base8setstateB8ue170006Ej, symObjAddr: 0x3218, symBinAddr: 0x10000B1B0, symSize: 0x34 }
  - { offsetInCU: 0x3F, offset: 0x24C2B, size: 0x8, addend: 0x0, symName: __ZL10DIRECTIONS, symObjAddr: 0x27A9C, symBinAddr: 0x100014060, symSize: 0x0 }
  - { offsetInCU: 0x4FF0, offset: 0x29BDC, size: 0x8, addend: 0x0, symName: __ZN9SimulatorC2EmN5House6MatrixE6Coordsm, symObjAddr: 0x0, symBinAddr: 0x10000B294, symSize: 0xCC }
  - { offsetInCU: 0x5059, offset: 0x29C45, size: 0x8, addend: 0x0, symName: __ZN5House6MatrixD1Ev, symObjAddr: 0x100, symBinAddr: 0x10000B360, symSize: 0x2C }
  - { offsetInCU: 0x5084, offset: 0x29C70, size: 0x8, addend: 0x0, symName: __ZN5HouseD1Ev, symObjAddr: 0x12C, symBinAddr: 0x10000B38C, symSize: 0x2C }
  - { offsetInCU: 0x50AF, offset: 0x29C9B, size: 0x8, addend: 0x0, symName: __ZN9SimulatorC1EmN5House6MatrixE6Coordsm, symObjAddr: 0x158, symBinAddr: 0x10000B3B8, symSize: 0x4C }
  - { offsetInCU: 0x5114, offset: 0x29D00, size: 0x8, addend: 0x0, symName: __ZN9Simulator3runEm, symObjAddr: 0x1A4, symBinAddr: 0x10000B404, symSize: 0x1A8 }
  - { offsetInCU: 0x5178, offset: 0x29D64, size: 0x8, addend: 0x0, symName: __ZN10RunResultsC1Ev, symObjAddr: 0x34C, symBinAddr: 0x10000B5AC, symSize: 0x2C }
  - { offsetInCU: 0x51A4, offset: 0x29D90, size: 0x8, addend: 0x0, symName: __ZNSt3__16vectorI4StepNS_9allocatorIS1_EEEaSB8ue170006EOS4_, symObjAddr: 0x378, symBinAddr: 0x10000B5D8, symSize: 0x34 }
  - { offsetInCU: 0x51D9, offset: 0x29DC5, size: 0x8, addend: 0x0, symName: __ZNSt3__16vectorI4StepNS_9allocatorIS1_EEE4backB8ue170006Ev, symObjAddr: 0x3D8, symBinAddr: 0x10000B60C, symSize: 0x1C }
  - { offsetInCU: 0x51FD, offset: 0x29DE9, size: 0x8, addend: 0x0, symName: __ZN10RunResultsD1Ev, symObjAddr: 0x3F4, symBinAddr: 0x10000B628, symSize: 0x2C }
  - { offsetInCU: 0x5241, offset: 0x29E2D, size: 0x8, addend: 0x0, symName: __ZN5House6MatrixD2Ev, symObjAddr: 0x1B7C, symBinAddr: 0x10000B654, symSize: 0x2C }
  - { offsetInCU: 0x526C, offset: 0x29E58, size: 0x8, addend: 0x0, symName: __ZN5HouseD2Ev, symObjAddr: 0x1C14, symBinAddr: 0x10000B680, symSize: 0x30 }
  - { offsetInCU: 0x5297, offset: 0x29E83, size: 0x8, addend: 0x0, symName: __ZN10RunResultsC2Ev, symObjAddr: 0x1C44, symBinAddr: 0x10000B6B0, symSize: 0x2C }
  - { offsetInCU: 0x52C3, offset: 0x29EAF, size: 0x8, addend: 0x0, symName: __ZNSt3__16vectorI4StepNS_9allocatorIS1_EEE13__move_assignERS4_NS_17integral_constantIbLb1EEE, symObjAddr: 0x1DEC, symBinAddr: 0x10000B6DC, symSize: 0x94 }
  - { offsetInCU: 0x5303, offset: 0x29EEF, size: 0x8, addend: 0x0, symName: __ZNSt3__16vectorI4StepNS_9allocatorIS1_EEE13__vdeallocateEv, symObjAddr: 0x1E80, symBinAddr: 0x10000B770, symSize: 0x94 }
  - { offsetInCU: 0x5329, offset: 0x29F15, size: 0x8, addend: 0x0, symName: __ZNSt3__16vectorI4StepNS_9allocatorIS1_EEE19__move_assign_allocB8ue170006ERS4_, symObjAddr: 0x1F14, symBinAddr: 0x10000B804, symSize: 0x2C }
  - { offsetInCU: 0x535D, offset: 0x29F49, size: 0x8, addend: 0x0, symName: __ZNSt3__16vectorI4StepNS_9allocatorIS1_EEE5clearB8ue170006Ev, symObjAddr: 0x1F68, symBinAddr: 0x10000B830, symSize: 0x44 }
  - { offsetInCU: 0x5391, offset: 0x29F7D, size: 0x8, addend: 0x0, symName: __ZNKSt3__16vectorI4StepNS_9allocatorIS1_EEE17__annotate_shrinkB8ue170006Em, symObjAddr: 0x216C, symBinAddr: 0x10000B874, symSize: 0xD0 }
  - { offsetInCU: 0x53C5, offset: 0x29FB1, size: 0x8, addend: 0x0, symName: __ZNSt3__16vectorI4StepNS_9allocatorIS1_EEE19__move_assign_allocB8ue170006ERS4_NS_17integral_constantIbLb1EEE, symObjAddr: 0x245C, symBinAddr: 0x10000B944, symSize: 0x38 }
  - { offsetInCU: 0x5403, offset: 0x29FEF, size: 0x8, addend: 0x0, symName: __ZN10RunResultsD2Ev, symObjAddr: 0x25F4, symBinAddr: 0x10000B97C, symSize: 0x2C }
  - { offsetInCU: 0x3F, offset: 0x2A077, size: 0x8, addend: 0x0, symName: __ZL10DIRECTIONS, symObjAddr: 0x5D3C, symBinAddr: 0x100014080, symSize: 0x0 }
  - { offsetInCU: 0x296D, offset: 0x2C9A5, size: 0x8, addend: 0x0, symName: __ZN6CoordsC1Eii, symObjAddr: 0x0, symBinAddr: 0x10000BA34, symSize: 0x3C }
  - { offsetInCU: 0x29B4, offset: 0x2C9EC, size: 0x8, addend: 0x0, symName: __ZN6CoordsC2Eii, symObjAddr: 0x3C, symBinAddr: 0x10000BA70, symSize: 0x2C }
  - { offsetInCU: 0x29FB, offset: 0x2CA33, size: 0x8, addend: 0x0, symName: __ZNK6Coords7reverseEv, symObjAddr: 0x68, symBinAddr: 0x10000BA9C, symSize: 0x40 }
  - { offsetInCU: 0x2A22, offset: 0x2CA5A, size: 0x8, addend: 0x0, symName: __ZNK6CoordseqERKS_, symObjAddr: 0xA8, symBinAddr: 0x10000BADC, symSize: 0x68 }
  - { offsetInCU: 0x2A57, offset: 0x2CA8F, size: 0x8, addend: 0x0, symName: __ZNK6CoordsplERKS_, symObjAddr: 0x110, symBinAddr: 0x10000BB44, symSize: 0x50 }
  - { offsetInCU: 0x3F, offset: 0x2CB0D, size: 0x8, addend: 0x0, symName: __ZL10DIRECTIONS, symObjAddr: 0x5F92C, symBinAddr: 0x1000140A0, symSize: 0x0 }
  - { offsetInCU: 0xF938, offset: 0x3C406, size: 0x8, addend: 0x0, symName: __ZNSt3__1neB8ue170006IPKcEEbRKNS_11__wrap_iterIT_EES7_, symObjAddr: 0x118, symBinAddr: 0x10000BD38, symSize: 0x34 }
  - { offsetInCU: 0xF97B, offset: 0x3C449, size: 0x8, addend: 0x0, symName: __ZNSt3__1eqB8ue170006IPKcEEbRKNS_11__wrap_iterIT_EES7_, symObjAddr: 0x230, symBinAddr: 0x10000BE50, symSize: 0x48 }
  - { offsetInCU: 0xF9BE, offset: 0x3C48C, size: 0x8, addend: 0x0, symName: __ZNSt3__17getlineB8ue170006IcNS_11char_traitsIcEENS_9allocatorIcEEEERNS_13basic_istreamIT_T0_EES9_RNS_12basic_stringIS6_S7_T1_EE, symObjAddr: 0xA00, symBinAddr: 0x10000C620, symSize: 0x5C }
  - { offsetInCU: 0x10297, offset: 0x3CD65, size: 0x8, addend: 0x0, symName: __ZNSt3__1neB8ue170006IP4StepEEbRKNS_11__wrap_iterIT_EES7_, symObjAddr: 0x1454, symBinAddr: 0x10000CF1C, symSize: 0x34 }
  - { offsetInCU: 0x102DA, offset: 0x3CDA8, size: 0x8, addend: 0x0, symName: __ZNSt3__1lsB8ue170006IcNS_11char_traitsIcEENS_9allocatorIcEEEERNS_13basic_ostreamIT_T0_EES9_RKNS_12basic_stringIS6_S7_T1_EE, symObjAddr: 0x14E8, symBinAddr: 0x10000CF88, symSize: 0x4C }
  - { offsetInCU: 0x10A79, offset: 0x3D547, size: 0x8, addend: 0x0, symName: __ZNSt3__1eqB8ue170006IP4StepEEbRKNS_11__wrap_iterIT_EES7_, symObjAddr: 0x2E44, symBinAddr: 0x10000DB5C, symSize: 0x48 }
  - { offsetInCU: 0x10ABC, offset: 0x3D58A, size: 0x8, addend: 0x0, symName: __ZNSt3__17getlineB8ue170006IcNS_11char_traitsIcEENS_9allocatorIcEEEERNS_13basic_istreamIT_T0_EES9_RNS_12basic_stringIS6_S7_T1_EES6_, symObjAddr: 0x4D8C, symBinAddr: 0x10000DFA4, symSize: 0x238 }
  - { offsetInCU: 0x1216B, offset: 0x3EC39, size: 0x8, addend: 0x0, symName: __Z7isdigiti, symObjAddr: 0x1A0, symBinAddr: 0x10000BDC0, symSize: 0x28 }
  - { offsetInCU: 0x1391E, offset: 0x403EC, size: 0x8, addend: 0x0, symName: __Z9is_numberRKNSt3__112basic_stringIcNS_11char_traitsIcEENS_9allocatorIcEEEE, symObjAddr: 0x0, symBinAddr: 0x10000BC20, symSize: 0xCC }
  - { offsetInCU: 0x13959, offset: 0x40427, size: 0x8, addend: 0x0, symName: __ZNKSt3__112basic_stringIcNS_11char_traitsIcEENS_9allocatorIcEEE5beginB8ue170006Ev, symObjAddr: 0xCC, symBinAddr: 0x10000BCEC, symSize: 0x4C }
  - { offsetInCU: 0x1397E, offset: 0x4044C, size: 0x8, addend: 0x0, symName: __ZNKSt3__112basic_stringIcNS_11char_traitsIcEENS_9allocatorIcEEE3endB8ue170006Ev, symObjAddr: 0x14C, symBinAddr: 0x10000BD6C, symSize: 0x54 }
  - { offsetInCU: 0x139A3, offset: 0x40471, size: 0x8, addend: 0x0, symName: __ZNKSt3__111__wrap_iterIPKcEdeB8ue170006Ev, symObjAddr: 0x1C8, symBinAddr: 0x10000BDE8, symSize: 0x18 }
  - { offsetInCU: 0x139C8, offset: 0x40496, size: 0x8, addend: 0x0, symName: __ZNSt3__111__wrap_iterIPKcEppB8ue170006Ev, symObjAddr: 0x1E0, symBinAddr: 0x10000BE00, symSize: 0x20 }
  - { offsetInCU: 0x139ED, offset: 0x404BB, size: 0x8, addend: 0x0, symName: __ZNKSt3__112basic_stringIcNS_11char_traitsIcEENS_9allocatorIcEEE5emptyB8ue170006Ev, symObjAddr: 0x200, symBinAddr: 0x10000BE20, symSize: 0x30 }
  - { offsetInCU: 0x13A11, offset: 0x404DF, size: 0x8, addend: 0x0, symName: __Z13readInputFileRNSt3__114basic_ifstreamIcNS_11char_traitsIcEEEE, symObjAddr: 0x278, symBinAddr: 0x10000BE98, symSize: 0x730 }
  - { offsetInCU: 0x13B5A, offset: 0x40628, size: 0x8, addend: 0x0, symName: __ZN11InputValuesC1Ev, symObjAddr: 0x9A8, symBinAddr: 0x10000C5C8, symSize: 0x2C }
  - { offsetInCU: 0x13B85, offset: 0x40653, size: 0x8, addend: 0x0, symName: __ZNSt3__112basic_stringIcNS_11char_traitsIcEENS_9allocatorIcEEEC1B8ue170006Ev, symObjAddr: 0x9D4, symBinAddr: 0x10000C5F4, symSize: 0x2C }
  - { offsetInCU: 0x13BAE, offset: 0x4067C, size: 0x8, addend: 0x0, symName: __ZNKSt3__19basic_iosIcNS_11char_traitsIcEEEcvbB8ue170006Ev, symObjAddr: 0xA5C, symBinAddr: 0x10000C67C, symSize: 0x2C }
  - { offsetInCU: 0x13BD8, offset: 0x406A6, size: 0x8, addend: 0x0, symName: __ZN5House6MatrixaSEOS0_, symObjAddr: 0xBA8, symBinAddr: 0x10000C6A8, symSize: 0x40 }
  - { offsetInCU: 0x13C08, offset: 0x406D6, size: 0x8, addend: 0x0, symName: __ZNSt3__19basic_iosIcNS_11char_traitsIcEEE5clearB8ue170006Ej, symObjAddr: 0xC14, symBinAddr: 0x10000C6E8, symSize: 0x2C }
  - { offsetInCU: 0x13C3C, offset: 0x4070A, size: 0x8, addend: 0x0, symName: __ZNKSt3__112basic_stringIcNS_11char_traitsIcEENS_9allocatorIcEEE6lengthB8ue170006Ev, symObjAddr: 0xC40, symBinAddr: 0x10000C714, symSize: 0x24 }
  - { offsetInCU: 0x13C61, offset: 0x4072F, size: 0x8, addend: 0x0, symName: __ZNSt3__112basic_stringIcNS_11char_traitsIcEENS_9allocatorIcEEEixB8ue170006Em, symObjAddr: 0xC64, symBinAddr: 0x10000C738, symSize: 0x30 }
  - { offsetInCU: 0x13C95, offset: 0x40763, size: 0x8, addend: 0x0, symName: __ZN11InputValuesD1Ev, symObjAddr: 0xCA0, symBinAddr: 0x10000C768, symSize: 0x2C }
  - { offsetInCU: 0x13CBF, offset: 0x4078D, size: 0x8, addend: 0x0, symName: __Z15writeOutputFile10RunResults, symObjAddr: 0xCCC, symBinAddr: 0x10000C794, symSize: 0x594 }
  - { offsetInCU: 0x13DEA, offset: 0x408B8, size: 0x8, addend: 0x0, symName: __ZNSt3__114basic_ofstreamIcNS_11char_traitsIcEEEC1EPKcj, symObjAddr: 0x1260, symBinAddr: 0x10000CD28, symSize: 0x16C }
  - { offsetInCU: 0x13E33, offset: 0x40901, size: 0x8, addend: 0x0, symName: __ZNKSt3__19basic_iosIcNS_11char_traitsIcEEEntB8ue170006Ev, symObjAddr: 0x13CC, symBinAddr: 0x10000CE94, symSize: 0x28 }
  - { offsetInCU: 0x13E58, offset: 0x40926, size: 0x8, addend: 0x0, symName: __ZNSt3__16vectorI4StepNS_9allocatorIS1_EEE5beginB8ue170006Ev, symObjAddr: 0x13F4, symBinAddr: 0x10000CEBC, symSize: 0x30 }
  - { offsetInCU: 0x13E7E, offset: 0x4094C, size: 0x8, addend: 0x0, symName: __ZNSt3__16vectorI4StepNS_9allocatorIS1_EEE3endB8ue170006Ev, symObjAddr: 0x1424, symBinAddr: 0x10000CEEC, symSize: 0x30 }
  - { offsetInCU: 0x13EA4, offset: 0x40972, size: 0x8, addend: 0x0, symName: __ZNKSt3__111__wrap_iterIP4StepEdeB8ue170006Ev, symObjAddr: 0x1488, symBinAddr: 0x10000CF50, symSize: 0x18 }
  - { offsetInCU: 0x13EC9, offset: 0x40997, size: 0x8, addend: 0x0, symName: __ZNSt3__111__wrap_iterIP4StepEppB8ue170006Ev, symObjAddr: 0x14A0, symBinAddr: 0x10000CF68, symSize: 0x20 }
  - { offsetInCU: 0x13EF3, offset: 0x409C1, size: 0x8, addend: 0x0, symName: __ZNSt3__112basic_stringIcNS_11char_traitsIcEENS_9allocatorIcEEEC1B8ue170006ILi0EEEPKc, symObjAddr: 0x15B8, symBinAddr: 0x10000CFD4, symSize: 0x34 }
  - { offsetInCU: 0x13F31, offset: 0x409FF, size: 0x8, addend: 0x0, symName: __ZNSt3__114basic_ofstreamIcNS_11char_traitsIcEEE5closeEv, symObjAddr: 0x15EC, symBinAddr: 0x10000D008, symSize: 0x58 }
  - { offsetInCU: 0x13F5C, offset: 0x40A2A, size: 0x8, addend: 0x0, symName: __ZNSt3__114basic_ofstreamIcNS_11char_traitsIcEEED1Ev, symObjAddr: 0x1644, symBinAddr: 0x10000D060, symSize: 0x40 }
  - { offsetInCU: 0x13F88, offset: 0x40A56, size: 0x8, addend: 0x0, symName: _main, symObjAddr: 0x1684, symBinAddr: 0x10000D0A0, symSize: 0x344 }
  - { offsetInCU: 0x14090, offset: 0x40B5E, size: 0x8, addend: 0x0, symName: __ZNSt3__114basic_ifstreamIcNS_11char_traitsIcEEEC1EPKcj, symObjAddr: 0x19C8, symBinAddr: 0x10000D3E4, symSize: 0x16C }
  - { offsetInCU: 0x140E3, offset: 0x40BB1, size: 0x8, addend: 0x0, symName: __ZN11InputValuesaSEOS_, symObjAddr: 0x1B34, symBinAddr: 0x10000D550, symSize: 0x5C }
  - { offsetInCU: 0x14113, offset: 0x40BE1, size: 0x8, addend: 0x0, symName: __ZNSt3__114basic_ifstreamIcNS_11char_traitsIcEEE5closeEv, symObjAddr: 0x1B90, symBinAddr: 0x10000D5AC, symSize: 0x58 }
  - { offsetInCU: 0x143E0, offset: 0x40EAE, size: 0x8, addend: 0x0, symName: __ZN9SimulatorD1Ev, symObjAddr: 0x1C48, symBinAddr: 0x10000D604, symSize: 0x2C }
  - { offsetInCU: 0x14410, offset: 0x40EDE, size: 0x8, addend: 0x0, symName: __ZNSt3__114basic_ifstreamIcNS_11char_traitsIcEEED1Ev, symObjAddr: 0x1C74, symBinAddr: 0x10000D630, symSize: 0x40 }
  - { offsetInCU: 0x1443C, offset: 0x40F0A, size: 0x8, addend: 0x0, symName: __ZNKSt3__112basic_stringIcNS_11char_traitsIcEENS_9allocatorIcEEE21__make_const_iteratorB8ue170006EPKc, symObjAddr: 0x1CB4, symBinAddr: 0x10000D670, symSize: 0x30 }
  - { offsetInCU: 0x14470, offset: 0x40F3E, size: 0x8, addend: 0x0, symName: __ZNSt3__111__wrap_iterIPKcEC1B8ue170006ES2_, symObjAddr: 0x1D38, symBinAddr: 0x10000D6A0, symSize: 0x34 }
  - { offsetInCU: 0x144A7, offset: 0x40F75, size: 0x8, addend: 0x0, symName: __ZNSt3__111__wrap_iterIPKcEC2B8ue170006ES2_, symObjAddr: 0x1D6C, symBinAddr: 0x10000D6D4, symSize: 0x20 }
  - { offsetInCU: 0x144DD, offset: 0x40FAB, size: 0x8, addend: 0x0, symName: __Z9__isctypeim, symObjAddr: 0x1E60, symBinAddr: 0x10000D6F4, symSize: 0x80 }
  - { offsetInCU: 0x14518, offset: 0x40FE6, size: 0x8, addend: 0x0, symName: __ZNKSt3__111__wrap_iterIPKcE4baseB8ue170006Ev, symObjAddr: 0x1EE0, symBinAddr: 0x10000D774, symSize: 0x18 }
  - { offsetInCU: 0x1453D, offset: 0x4100B, size: 0x8, addend: 0x0, symName: __ZN11InputValuesC2Ev, symObjAddr: 0x1EF8, symBinAddr: 0x10000D78C, symSize: 0x78 }
  - { offsetInCU: 0x14568, offset: 0x41036, size: 0x8, addend: 0x0, symName: __ZN5House6MatrixC1Ev, symObjAddr: 0x1F70, symBinAddr: 0x10000D804, symSize: 0x2C }
  - { offsetInCU: 0x14591, offset: 0x4105F, size: 0x8, addend: 0x0, symName: __ZN5House6MatrixC2Ev, symObjAddr: 0x1F9C, symBinAddr: 0x10000D830, symSize: 0x2C }
  - { offsetInCU: 0x145BA, offset: 0x41088, size: 0x8, addend: 0x0, symName: __ZNSt3__112basic_stringIcNS_11char_traitsIcEENS_9allocatorIcEEEC2B8ue170006Ev, symObjAddr: 0x2144, symBinAddr: 0x10000D85C, symSize: 0x48 }
  - { offsetInCU: 0x145E3, offset: 0x410B1, size: 0x8, addend: 0x0, symName: __ZNSt3__16vectorIN5House4TileENS_9allocatorIS2_EEEaSB8ue170006EOS5_, symObjAddr: 0x2358, symBinAddr: 0x10000D8A4, symSize: 0x34 }
  - { offsetInCU: 0x14618, offset: 0x410E6, size: 0x8, addend: 0x0, symName: __ZNSt3__16vectorIN5House4TileENS_9allocatorIS2_EEE13__move_assignERS5_NS_17integral_constantIbLb1EEE, symObjAddr: 0x238C, symBinAddr: 0x10000D8D8, symSize: 0x94 }
  - { offsetInCU: 0x14658, offset: 0x41126, size: 0x8, addend: 0x0, symName: __ZNSt3__16vectorIN5House4TileENS_9allocatorIS2_EEE13__vdeallocateEv, symObjAddr: 0x2420, symBinAddr: 0x10000D96C, symSize: 0x94 }
  - { offsetInCU: 0x1467E, offset: 0x4114C, size: 0x8, addend: 0x0, symName: __ZNSt3__16vectorIN5House4TileENS_9allocatorIS2_EEE19__move_assign_allocB8ue170006ERS5_, symObjAddr: 0x24B4, symBinAddr: 0x10000DA00, symSize: 0x2C }
  - { offsetInCU: 0x146B2, offset: 0x41180, size: 0x8, addend: 0x0, symName: __ZNSt3__16vectorIN5House4TileENS_9allocatorIS2_EEE5clearB8ue170006Ev, symObjAddr: 0x2508, symBinAddr: 0x10000DA2C, symSize: 0x44 }
  - { offsetInCU: 0x146E6, offset: 0x411B4, size: 0x8, addend: 0x0, symName: __ZNSt3__16vectorIN5House4TileENS_9allocatorIS2_EEE19__move_assign_allocB8ue170006ERS5_NS_17integral_constantIbLb1EEE, symObjAddr: 0x2AE8, symBinAddr: 0x10000DA70, symSize: 0x38 }
  - { offsetInCU: 0x14725, offset: 0x411F3, size: 0x8, addend: 0x0, symName: __ZN11InputValuesD2Ev, symObjAddr: 0x2D90, symBinAddr: 0x10000DAA8, symSize: 0x30 }
  - { offsetInCU: 0x14750, offset: 0x4121E, size: 0x8, addend: 0x0, symName: __ZNSt3__16vectorI4StepNS_9allocatorIS1_EEE11__make_iterB8ue170006EPS1_, symObjAddr: 0x2DC0, symBinAddr: 0x10000DAD8, symSize: 0x30 }
  - { offsetInCU: 0x14784, offset: 0x41252, size: 0x8, addend: 0x0, symName: __ZNSt3__111__wrap_iterIP4StepEC1B8ue170006ES2_, symObjAddr: 0x2DF0, symBinAddr: 0x10000DB08, symSize: 0x34 }
  - { offsetInCU: 0x147BB, offset: 0x41289, size: 0x8, addend: 0x0, symName: __ZNSt3__111__wrap_iterIP4StepEC2B8ue170006ES2_, symObjAddr: 0x2E24, symBinAddr: 0x10000DB3C, symSize: 0x20 }
  - { offsetInCU: 0x147F2, offset: 0x412C0, size: 0x8, addend: 0x0, symName: __ZNKSt3__111__wrap_iterIP4StepE4baseB8ue170006Ev, symObjAddr: 0x2E8C, symBinAddr: 0x10000DBA4, symSize: 0x18 }
  - { offsetInCU: 0x14817, offset: 0x412E5, size: 0x8, addend: 0x0, symName: __ZNSt3__112basic_stringIcNS_11char_traitsIcEENS_9allocatorIcEEEC2B8ue170006ILi0EEEPKc, symObjAddr: 0x2F20, symBinAddr: 0x10000DBBC, symSize: 0x58 }
  - { offsetInCU: 0x14855, offset: 0x41323, size: 0x8, addend: 0x0, symName: __ZNSt3__114basic_ofstreamIcNS_11char_traitsIcEEED2Ev, symObjAddr: 0x2FD0, symBinAddr: 0x10000DC14, symSize: 0x64 }
  - { offsetInCU: 0x1488D, offset: 0x4135B, size: 0x8, addend: 0x0, symName: __ZTv0_n24_NSt3__114basic_ofstreamIcNS_11char_traitsIcEEED1Ev, symObjAddr: 0x3034, symBinAddr: 0x10000DC78, symSize: 0x28 }
  - { offsetInCU: 0x148BD, offset: 0x4138B, size: 0x8, addend: 0x0, symName: __ZN9SimulatorD2Ev, symObjAddr: 0x4694, symBinAddr: 0x10000DCA0, symSize: 0x38 }
  - { offsetInCU: 0x148E8, offset: 0x413B6, size: 0x8, addend: 0x0, symName: __ZN5RobotD1Ev, symObjAddr: 0x46CC, symBinAddr: 0x10000DCD8, symSize: 0x2C }
  - { offsetInCU: 0x14913, offset: 0x413E1, size: 0x8, addend: 0x0, symName: __ZN5RobotD2Ev, symObjAddr: 0x4724, symBinAddr: 0x10000DD04, symSize: 0x3C }
  - { offsetInCU: 0x1493E, offset: 0x4140C, size: 0x8, addend: 0x0, symName: __ZN9AlgorithmD1Ev, symObjAddr: 0x4760, symBinAddr: 0x10000DD40, symSize: 0x2C }
  - { offsetInCU: 0x14969, offset: 0x41437, size: 0x8, addend: 0x0, symName: __ZN9AlgorithmD2Ev, symObjAddr: 0x478C, symBinAddr: 0x10000DD6C, symSize: 0x30 }
  - { offsetInCU: 0x14994, offset: 0x41462, size: 0x8, addend: 0x0, symName: __ZNSt3__16vectorI6CoordsNS_9allocatorIS1_EEED1B8ue170006Ev, symObjAddr: 0x47BC, symBinAddr: 0x10000DD9C, symSize: 0x2C }
  - { offsetInCU: 0x149BD, offset: 0x4148B, size: 0x8, addend: 0x0, symName: __ZNSt3__16vectorI6CoordsNS_9allocatorIS1_EEED2B8ue170006Ev, symObjAddr: 0x47E8, symBinAddr: 0x10000DDC8, symSize: 0x44 }
  - { offsetInCU: 0x149E6, offset: 0x414B4, size: 0x8, addend: 0x0, symName: __ZNSt3__16vectorI6CoordsNS_9allocatorIS1_EEE16__destroy_vectorC1B8ue170006ERS4_, symObjAddr: 0x482C, symBinAddr: 0x10000DE0C, symSize: 0x34 }
  - { offsetInCU: 0x14A1E, offset: 0x414EC, size: 0x8, addend: 0x0, symName: __ZNSt3__16vectorI6CoordsNS_9allocatorIS1_EEE16__destroy_vectorclB8ue170006Ev, symObjAddr: 0x4860, symBinAddr: 0x10000DE40, symSize: 0x90 }
  - { offsetInCU: 0x14A43, offset: 0x41511, size: 0x8, addend: 0x0, symName: __ZNSt3__16vectorI6CoordsNS_9allocatorIS1_EEE16__destroy_vectorC2B8ue170006ERS4_, symObjAddr: 0x48F0, symBinAddr: 0x10000DED0, symSize: 0x20 }
  - { offsetInCU: 0x14A7B, offset: 0x41549, size: 0x8, addend: 0x0, symName: __ZNSt3__16vectorI6CoordsNS_9allocatorIS1_EEE7__clearB8ue170006Ev, symObjAddr: 0x4910, symBinAddr: 0x10000DEF0, symSize: 0x28 }
  - { offsetInCU: 0x14AA0, offset: 0x4156E, size: 0x8, addend: 0x0, symName: __ZNSt3__114basic_ifstreamIcNS_11char_traitsIcEEED2Ev, symObjAddr: 0x4D00, symBinAddr: 0x10000DF18, symSize: 0x64 }
  - { offsetInCU: 0x14AD8, offset: 0x415A6, size: 0x8, addend: 0x0, symName: __ZTv0_n24_NSt3__114basic_ifstreamIcNS_11char_traitsIcEEED1Ev, symObjAddr: 0x4D64, symBinAddr: 0x10000DF7C, symSize: 0x28 }
  - { offsetInCU: 0x14B0D, offset: 0x415DB, size: 0x8, addend: 0x0, symName: __ZNKSt3__113basic_istreamIcNS_11char_traitsIcEEE6sentrycvbB8ue170006Ev, symObjAddr: 0x5048, symBinAddr: 0x10000E1DC, symSize: 0x1C }
  - { offsetInCU: 0x14B32, offset: 0x41600, size: 0x8, addend: 0x0, symName: __ZNSt3__112basic_stringIcNS_11char_traitsIcEENS_9allocatorIcEEE5clearB8ue170006Ev, symObjAddr: 0x5064, symBinAddr: 0x10000E1F8, symSize: 0x78 }
  - { offsetInCU: 0x14B58, offset: 0x41626, size: 0x8, addend: 0x0, symName: __ZNSt3__115basic_streambufIcNS_11char_traitsIcEEE6sbumpcB8ue170006Ev, symObjAddr: 0x5100, symBinAddr: 0x10000E270, symSize: 0x78 }
  - { offsetInCU: 0x14B7D, offset: 0x4164B, size: 0x8, addend: 0x0, symName: __ZNSt3__111char_traitsIcE12to_char_typeB8ue170006Ei, symObjAddr: 0x51A8, symBinAddr: 0x10000E2E8, symSize: 0x18 }
  - { offsetInCU: 0x14BA0, offset: 0x4166E, size: 0x8, addend: 0x0, symName: __ZNSt3__111char_traitsIcE2eqEcc, symObjAddr: 0x51C0, symBinAddr: 0x10000E300, symSize: 0x28 }
  - { offsetInCU: 0x14BD1, offset: 0x4169F, size: 0x8, addend: 0x0, symName: __ZNKSt3__112basic_stringIcNS_11char_traitsIcEENS_9allocatorIcEEE8max_sizeB8ue170006Ev, symObjAddr: 0x51E8, symBinAddr: 0x10000E328, symSize: 0xAC }
  - { offsetInCU: 0x14C22, offset: 0x416F0, size: 0x8, addend: 0x0, symName: __ZNSt3__18ios_base18__setstate_nothrowB8ue170006Ej, symObjAddr: 0x5294, symBinAddr: 0x10000E3D4, symSize: 0x64 }
  - { offsetInCU: 0x14C56, offset: 0x41724, size: 0x8, addend: 0x0, symName: __ZNKSt3__19basic_iosIcNS_11char_traitsIcEEE10exceptionsB8ue170006Ev, symObjAddr: 0x52F8, symBinAddr: 0x10000E438, symSize: 0x24 }
  - { offsetInCU: 0x14C7B, offset: 0x41749, size: 0x8, addend: 0x0, symName: __ZNSt3__111char_traitsIcE6assignB8ue170006ERcRKc, symObjAddr: 0x5348, symBinAddr: 0x10000E45C, symSize: 0x24 }
  - { offsetInCU: 0x14CAC, offset: 0x4177A, size: 0x8, addend: 0x0, symName: __ZNSt3__112basic_stringIcNS_11char_traitsIcEENS_9allocatorIcEEE15__set_long_sizeB8ue170006Em, symObjAddr: 0x536C, symBinAddr: 0x10000E480, symSize: 0x38 }
  - { offsetInCU: 0x14CE0, offset: 0x417AE, size: 0x8, addend: 0x0, symName: __ZNSt3__112basic_stringIcNS_11char_traitsIcEENS_9allocatorIcEEE16__set_short_sizeB8ue170006Em, symObjAddr: 0x53A4, symBinAddr: 0x10000E4B8, symSize: 0x78 }
  - { offsetInCU: 0x14D14, offset: 0x417E2, size: 0x8, addend: 0x0, symName: __ZNSt3__111char_traitsIcE11to_int_typeB8ue170006Ec, symObjAddr: 0x5434, symBinAddr: 0x10000E530, symSize: 0x14 }
  - { offsetInCU: 0x14D42, offset: 0x41810, size: 0x8, addend: 0x0, symName: __ZNSt3__116allocator_traitsINS_9allocatorIcEEE8max_sizeB8ue170006IS2_vvEEmRKS2_, symObjAddr: 0x5448, symBinAddr: 0x10000E544, symSize: 0x28 }
  - { offsetInCU: 0x14D6D, offset: 0x4183B, size: 0x8, addend: 0x0, symName: __ZNKSt3__112basic_stringIcNS_11char_traitsIcEENS_9allocatorIcEEE7__allocB8ue170006Ev, symObjAddr: 0x5470, symBinAddr: 0x10000E56C, symSize: 0x24 }
  - { offsetInCU: 0x14D92, offset: 0x41860, size: 0x8, addend: 0x0, symName: __ZNKSt3__117__compressed_pairINS_12basic_stringIcNS_11char_traitsIcEENS_9allocatorIcEEE5__repES5_E6secondB8ue170006Ev, symObjAddr: 0x5494, symBinAddr: 0x10000E590, symSize: 0x24 }
  - { offsetInCU: 0x14DB7, offset: 0x41885, size: 0x8, addend: 0x0, symName: __ZNKSt3__122__compressed_pair_elemINS_9allocatorIcEELi1ELb1EE5__getB8ue170006Ev, symObjAddr: 0x54B8, symBinAddr: 0x10000E5B4, symSize: 0x14 }
  - { offsetInCU: 0x14DDC, offset: 0x418AA, size: 0x8, addend: 0x0, symName: __ZNKSt3__18ios_base10exceptionsB8ue170006Ev, symObjAddr: 0x54CC, symBinAddr: 0x10000E5C8, symSize: 0x18 }
  - { offsetInCU: 0x14E03, offset: 0x418D1, size: 0x8, addend: 0x0, symName: __ZNKSt3__19basic_iosIcNS_11char_traitsIcEEE4failB8ue170006Ev, symObjAddr: 0x557C, symBinAddr: 0x10000E5E0, symSize: 0x28 }
  - { offsetInCU: 0x14E28, offset: 0x418F6, size: 0x8, addend: 0x0, symName: __ZNKSt3__18ios_base4failB8ue170006Ev, symObjAddr: 0x55A4, symBinAddr: 0x10000E608, symSize: 0x28 }
  - { offsetInCU: 0x14E6D, offset: 0x4193B, size: 0x8, addend: 0x0, symName: __ZNSt3__19basic_iosIcNS_11char_traitsIcEEEC2B8ue170006Ev, symObjAddr: 0x5C80, symBinAddr: 0x10000E630, symSize: 0x44 }
  - { offsetInCU: 0x14E96, offset: 0x41964, size: 0x8, addend: 0x0, symName: __ZNSt3__113basic_ostreamIcNS_11char_traitsIcEEEC2B8ue170006EPNS_15basic_streambufIcS2_EE, symObjAddr: 0x5CC4, symBinAddr: 0x10000E674, symSize: 0x60 }
  - { offsetInCU: 0x14ED9, offset: 0x419A7, size: 0x8, addend: 0x0, symName: __ZNSt3__18ios_baseC2B8ue170006Ev, symObjAddr: 0x5D24, symBinAddr: 0x10000E6D4, symSize: 0x24 }
  - { offsetInCU: 0x14F02, offset: 0x419D0, size: 0x8, addend: 0x0, symName: __ZNSt3__19basic_iosIcNS_11char_traitsIcEEE4initB8ue170006EPNS_15basic_streambufIcS2_EE, symObjAddr: 0x5D48, symBinAddr: 0x10000E6F8, symSize: 0x44 }
  - { offsetInCU: 0x14F37, offset: 0x41A05, size: 0x8, addend: 0x0, symName: __ZNSt3__113basic_istreamIcNS_11char_traitsIcEEEC2B8ue170006EPNS_15basic_streambufIcS2_EE, symObjAddr: 0x5DC8, symBinAddr: 0x10000E73C, symSize: 0x64 }
...
